                              1 	.title	Test of Z280 assembler
                              2 	.module	tz280x.asm
                              3 
                              4 	; To test asz280 with .con and .lst defined:
                              5     	; Constants / Internal symbols mode.
                              6 	; Verifies assembler output.
                              7 	;
                              8 	;	asz280 -lbcoxff -p tz280x_CL asz280_CL tz280x 
                              9 	;	asxscn tz280x_CL.lst
                             10 	;
                             11 	;
                             12 	; To test asz280 with .con and .rst defined:
                             13     	; Constants / Internal symbols mode.
                             14 	; Verifies linked code.
                             15 	;
                             16 	;	asz280 -lbcoxff -p tz280x_CR asz280_CR tz280x 
                             17 	;	aslink -nf tz280x_CR
                             18 	;	asxscn tz280x_CR.rst
                             19 	;
                             20 	;
                             21 	; To test asz280 with .ext and .lst defined:
                             22     	; Constants with External symbols mode.
                             23 	; Verifies assembler output.
                             24 	;
                             25 	;	asz280 -lbcoxff -p tz280x_XL asz280_XL tz280x 
                             26 	;	asxscn tz280x_XL.lst
                             27 	;
                             28 	;
                             29 	; To test asz280 with .ext and .rst defined:
                             30     	; Constants with External symbols mode.
                             31 	; Verifies linked code.
                             32 	;
                             33 	;	asz280 -lbcoxff -p tz280x_XR asz280_XR tz280x 
                             34 	;	aslink -nf tz280x_XR
                             35 	;	asxscn tz280x_XR.rst
                             36 	;
                             37 	; To test asz280 with .ext and .lst defined:
                             38 	; Full external symbol mode. (.EXLR defined)
                             39 	; Verifies assembler output.
                             40 	;
                             41 	;	asz280 -lbcoxff -p tz280x_EXL asz280_EXL tz280x 
                             42 	;	asxscn tz280x_EXL.lst
                             43 	;
                             44 	;
                             45 	; To test asz280 with .ext and .rst defined:
                             46 	; Full external symbol mode. (.EXLR defined)
                             47 	; Verifies linked code.
                             48 	;
                             49 	;	asz280 -lbcoxff -p tz280x_EXR asz280_EXR tz280x 
                             50 	;	aslink -nf tz280x_EXR
                             51 	;	asxscn tz280x_EXR.rst
                             52 	;
                             53 
                     0006    85 	CXLR = CXLR	; .con / .ext / .lst / .rst
                             86 
                             95 	; Assembled with .ext option.
                            100 	; Assembled with .lst option.
                            110 	; Full External Symbol Mode. (.EXLR defined)
                            118 
                     0008   119 	C_LR = 0x08 - (CXLR & 0x08)	; = 0  if .con with either .lst/.rst
                     0000   120 	_XLR = 0x04 - (CXLR & 0x04)	; = 0  if .ext with either .lst/.rst
                     0000   121 	CXL_ = 0x02 - (CXLR & 0x02)	; = 0  if .lst with either .con/.ext
                     0001   122 	CX_R = 0x01 - (CXLR & 0x01)	; = 0  if .rst with either .con/.ext
                     0004   123 	C_L_ = 0x0A - CXLR		; = 0  if .con and .lst
                     0003   124 	C__R = 0x09 - CXLR		; = 0  if .con and .rst
                     0000   125 	_XL_ = 0x06 - CXLR		; = 0  if .ext and .lst
                     FFFF   126 	_X_R = 0x05 - CXLR		; = 0  if .ext and .rst
                            127 
                            131 
                            132 ;*******************************************************************	
                            133 ;*******************************************************************
                            134 
                     0055   135 	offset	=	0x55		;arbitrary constants
                     0020   136 	n	=	0x20
                     0584   137 	nn	=	0x0584
                            138 
                     0055   139 	sxoff	=	0x55		; SX offset (-128..127)
                     1122   140 	lxoff	=	0x1122		;  X offset
                     1234   141 	raoff	=	0x1234		; RA address/offset
                     3344   142 	daddr	=	0x3344		; DA address
                            143 
                     0055   144 	offsetc	==	offset		;arbitrary constants
                     0020   145 	nc	==	n
                     0584   146 	nnc	==	nn
                            147 
                     0055   148 	sxofc	==	sxoff		; SX offset (-128..127)
                     1122   149 	lxofc	==	lxoff		;  X offset
                     1234   150 	raofc	==	raoff		; RA address/offset
                     3344   151 	daddc	==	daddr		; DA address
                            152 
                            156 ;*******************************************************************	
                            157 ;*******************************************************************
                            158 ;	Test of External References By Substitution
                            159 ;*******************************************************************	
                            160 ;*******************************************************************
                            161 
                            172 	.define		offset		"offsetx"
                            173 	.define		n		"nx"
                            174 	.define		nn		"nnx"
                            175 	.define		sxoff		"sxofx"
                            176 	.define		lxoff		"lxofx"
                            177 	.define		raoff		"raofx"
                            178 	.define		daddr		"daddx"
                            179 
                            180 		.globl  offsetx		; External symbols given a
                            181 		.globl	nx		; default value of 0 by
                            182 		.globl	nnx		; assembler. Value defined
                            183 		.globl	sxofx		; at link time from another
                            184 		.globl	lxofx		; object file or by the
                            185 		.globl	raofx		; linker -g ...x=value option.
                            186 		.globl	daddx
                            215 
                            216 	.macro	.pcr_lclx A,B
                            217 	  .globl A
                            218 	  .ifb B
                            219 	    x'A == . + 4
                            220 	  .else
                            221 	    x'A == . + B
                            222 	  .endif
                            223 	.endm
                            224 
                            225 	.macro	.pcr_xtrn A,B,C
                            226 	  .globl A
                            227 	  .ifb C
                            228 	    x'A == B + . + 4
                            229 	  .else
                            230 	    x'A == B + . + C
                            231 	  .endif
                            232 	.endm
                            233 
                            234 ;*******************************************************************	
                            235 ;*******************************************************************	
                            236 ;*******************************************************************
                            248 
                            249 	.macro	.pcr_ofst A,B
                            250           .nval	_dot_, .
                            251 	  .ifb B
                            252  	    pcr_ofst = A + _dot_ + 4
                            253 	  .else
                            254  	    pcr_ofst = A + _dot_ + B
                            255 	  .endif
                            256 	.endm
                            257 
                            258 
                     0000   259 ODDBALL_SHIFT_ROTATE	=	0	; prefer this set to 0
                            260 
                            261 	.area	_code
                            262 	
                            263 	.z80
   0000 83                  264 	.byte	.__.CPU.	; 83
                            265 	.z80u
   0001 87                  266 	.byte	.__.CPU.	; 87
                            267 	.z180
   0002 8B                  268 	.byte	.__.CPU.	; 8B
                            269 	.hd64
   0003 8B                  270 	.byte	.__.CPU.	; 8B
                            271 	.z280
   0004 33                  272 	.byte	.__.CPU.	; 33
                            273 	.z280n
   0005 11                  274 	.byte	.__.CPU.	; 11
                            275 	.z280p
   0006 F3                  276 	.byte	.__.CPU.	; F3
                            277 
                     0000   278 	. = . - 7
                            279 
                            280 ;*******************************************************************	
                            281 ;*******************************************************************
                            282 ;	Start test of addressing syntax	
                            283 ;*******************************************************************	
                            284 ;*******************************************************************	
                            285 	;***********************************************************
                            286 	; add with carry
                            287 	.z280
   0000 8E                  288 	adc	a,(hl)			;8E
   0001 DD 89               289 	adc	a,(hl+ix)		;DD 89
   0003 DD 8A               290 	adc	a,(hl+iy)		;DD 8A
   0005 FD 8Br00s00         295 	adc	a,(hl+lxofx)		;FD 8Br00s00
   0009 FD 8Br00s00         296 	adc	a,(hl+sxofx)		;FD 8Br00s00
   000D FD 8Br00s00         297 	adc	a,lxofx(hl)		;FD 8Br00s00
   0011 FD 8Br00s00         298 	adc	a,sxofx(hl)		;FD 8Br00s00
   0015 DD 8B               317 	adc	a,(ix+iy)		;DD 8B
   0017 DD 8E 00            318 	adc	a,(ix)			;DD 8E 00
   001A FD 89r00s00         323 	adc	a,(ix+lxofx)		;FD 89r00s00
   001E FD 89r00s00         324 	adc	a,lxofx(ix)		;FD 89r00s00
   0022 FD 89rDEsEE         325 	adc	a,(ix-lxofc+x)		;FD 89rDEsEE
   0026 FD 89rDEsEE         326 	adc	a,-lxofc+x(ix)		;FD 89rDEsEE
   002A FD 89r00s00         369 	adc	a,(ix+sxofx)		;FD 89r00s00
   002E FD 89r00s00         370 	adc	a,sxofx(ix)		;FD 89r00s00
   0032 FD 89rABsFF         371 	adc	a,(ix-sxofc+x)		;FD 89rABsFF
   0036 FD 89rABsFF         372 	adc	a,-sxofc+x(ix)		;FD 89rABsFF
   003A FD 8E 00            409 	adc	a,(iy)			;FD 8E 00
   003D FD 8Ar00s00         414 	adc	a,(iy+lxofx)		;FD 8Ar00s00
   0041 FD 8Ar00s00         415 	adc	a,lxofx(iy)		;FD 8Ar00s00
   0045 FD 8ArDEsEE         416 	adc	a,(iy-lxofc+x)		;FD 8ArDEsEE
   0049 FD 8ArDEsEE         417 	adc	a,-lxofc+x(iy)		;FD 8ArDEsEE
   004D FD 8Ar00s00         458 	adc	a,(iy+sxofx)		;FD 8Ar00s00
   0051 FD 8Ar00s00         459 	adc	a,sxofx(iy)		;FD 8Ar00s00
   0055 FD 8ArABsFF         460 	adc	a,(iy-sxofc+x)		;FD 8ArABsFF
   0059 FD 8ArABsFF         461 	adc	a,-sxofc+x(iy)		;FD 8ArABsFF
   005D FD 88p00q00         503 	adc	a,adc01(pc)		;FD 88p00q00
   0061 FD 88p00q00         507 	adc	a,(pc+adc02)		;FD 88p00q00
   0065 FD 88p00q00         511 	adc	a,[adc03]		;FD 88p00q00
   0069 FD 88p00q00         515 	adc	a,adc04(pc)		;FD 88p00q00
   006D FD 88p00q00         519 	adc	a,(pc+adc05)		;FD 88p00q00
   0071 FD 88p00q00         523 	adc	a,[adc06]		;FD 88p00q00
   0075 FD 88p00q00         527 	adc	a,adc07(pc)		;FD 88p00q00
   0079 FD 88p00q00         531 	adc	a,(pc+adc08)		;FD 88p00q00
   007D FD 88p00q00         535 	adc	a,[adc09]		;FD 88p00q00
   0081 FD 88 FC FF         707 	adc	a,[.]			;FD 88 FC FF
   0085 DD 88r00s00         712 	adc	a,(sp+lxofx)		;DD 88r00s00
   0089 DD 88r00s00         713 	adc	a,lxofx(sp)		;DD 88r00s00
   008D DD 8Fr00s00         714 	adc	a,(daddx)		;DD 8Fr00s00
   0091 88                  731 	adc	a,b			;88
   0092 89                  732 	adc	a,c			;89
   0093 8A                  733 	adc	a,d			;8A
   0094 8B                  734 	adc	a,e			;8B
   0095 8C                  735 	adc	a,h			;8C
   0096 8D                  736 	adc	a,l			;8D
   0097 8E                  737 	adc	a,(hl)			;8E
   0098 8F                  738 	adc	a,a			;8F
   0099 DD 8C               739 	adc	a,ixh			;DD 8C
   009B DD 8D               740 	adc	a,ixl			;DD 8D
   009D FD 8C               741 	adc	a,iyh			;FD 8C
   009F FD 8D               742 	adc	a,iyl			;FD 8D
   00A1 CEr00               747 	adc	a,#nx			;CEr00
   00A3 CEr00               748 	adc	a, nx			;CEr00
   00A5 CEr00               749 	adc	a,lxofx			;CEr00
   00A7 ED 4A               766 	adc	hl,bc			;ED 4A
   00A9 ED 5A               767 	adc	hl,de			;ED 5A
   00AB ED 6A               768 	adc	hl,hl			;ED 6A
   00AD ED 7A               769 	adc	hl,sp			;ED 7A
   00AF DD ED 4A            770 	adc	ix,bc			;DD ED 4A
   00B2 DD ED 5A            771 	adc	ix,de			;DD ED 5A
   00B5 DD ED 6A            772 	adc	ix,ix			;DD ED 6A
   00B8 DD ED 7A            773 	adc	ix,sp			;DD ED 7A
   00BB FD ED 4A            774 	adc	iy,bc			;FD ED 4A
   00BE FD ED 5A            775 	adc	iy,de			;FD ED 5A
   00C1 FD ED 6A            776 	adc	iy,iy			;FD ED 6A
   00C4 FD ED 7A            777 	adc	iy,sp			;FD ED 7A
                            778 	
                            779 	
                            780 ;*******************************************************************
                            781 ;*******************************************************************
                            782 ;	End test of addressing syntax	
                            783 ;*******************************************************************
                            784 ;*******************************************************************
                            785 ;*******************************************************************
                            786 
                            787 
                            788 ;*******************************************************************
                            789 ;	ADC	
                            790 ;		Leading 'a' operand is optional.
                            791 ;		If offset is ommitted 0 is assumed.
                            792 ;*******************************************************************
                            793 	;***********************************************************
                            794 	; add with carry to 'a'
                            795 	.z80
   00C7 8E                  796 	adc	a,(hl)			;8E
   00C8 DD 8Er00            801 	adc	a,offsetx(ix)		;DD 8Er00
   00CB FD 8Er00            802 	adc	a,offsetx(iy)		;FD 8Er00
   00CE DD 8Er00            803 	adc	a,(ix+offsetx)		;DD 8Er00
   00D1 FD 8Er00            804 	adc	a,(iy+offsetx)		;FD 8Er00
   00D4 DD 8E 00            823 	adc	a,(ix)			;DD 8E 00
   00D7 FD 8E 00            824 	adc	a,(iy)			;FD 8E 00
   00DA 8F                  825 	adc	a,a			;8F
   00DB 88                  826 	adc	a,b			;88
   00DC 89                  827 	adc	a,c			;89
   00DD 8A                  828 	adc	a,d			;8A
   00DE 8B                  829 	adc	a,e			;8B
   00DF 8C                  830 	adc	a,h			;8C
   00E0 8D                  831 	adc	a,l			;8D
   00E1 CEr00               836 	adc	a,#nx			;CEr00
   00E3 CEr00               837 	adc	a, nx			;CEr00
                            852 	;***********************************************************
   00E5 8E                  853 	adc	(hl)			;8E
   00E6 DD 8Er00            858 	adc	offsetx(ix)		;DD 8Er00
   00E9 FD 8Er00            859 	adc	offsetx(iy)		;FD 8Er00
   00EC DD 8Er00            860 	adc	(ix+offsetx)		;DD 8Er00
   00EF FD 8Er00            861 	adc	(iy+offsetx)		;FD 8Er00
   00F2 DD 8E 00            880 	adc	(ix)			;DD 8E 00
   00F5 FD 8E 00            881 	adc	(iy)			;FD 8E 00
   00F8 8F                  882 	adc	a			;8F
   00F9 88                  883 	adc	b			;88
   00FA 89                  884 	adc	c			;89
   00FB 8A                  885 	adc	d			;8A
   00FC 8B                  886 	adc	e			;8B
   00FD 8C                  887 	adc	h			;8C
   00FE 8D                  888 	adc	l			;8D
   00FF CEr00               893 	adc	#nx			;CEr00
   0101 CEr00               894 	adc	 nx			;CEr00
                            909 	;***********************************************************
                            910 	; add with carry register pair to 'hl'
   0103 ED 4A               911 	adc	hl,bc			;ED 4A
   0105 ED 5A               912 	adc	hl,de			;ED 5A
   0107 ED 6A               913 	adc	hl,hl			;ED 6A
   0109 ED 7A               914 	adc	hl,sp			;ED 7A
                            915 	;***********************************************************
                            916 	; add with carry to accumulator with 'a'
                            917 	.z280
   010B DD 8Fr06s00         922 	adc	a,(nnx+6)		;DD 8Fr06s00
   010F FD 89r00s00         923 	adc	a,(ix+nnx)		;FD 89r00s00
   0113 FD 8Ar00s00         924 	adc	a,(iy+nnx)		;FD 8Ar00s00
   0117 FD 8Br00s00         925 	adc	a,(hl+nnx)		;FD 8Br00s00
   011B DD 88r00s00         926 	adc	a,(sp+nnx)		;DD 88r00s00
   011F FD 89r00s00         927 	adc	a,sxofx(ix)		;FD 89r00s00
   0123 FD 89r00s00         928 	adc	a,(ix+sxofx)		;FD 89r00s00
   0127 FD 8Ar00s00         929 	adc	a,sxofx(iy)		;FD 8Ar00s00
   012B FD 8Ar00s00         930 	adc	a,(iy+sxofx)		;FD 8Ar00s00
   012F FD 8Br00s00         931 	adc	a,sxofx(hl)		;FD 8Br00s00
   0133 FD 8Br00s00         932 	adc	a,(hl+sxofx)		;FD 8Br00s00
   0137 DD 88r00s00         933 	adc	a,sxofx(sp)		;DD 88r00s00
   013B DD 88r00s00         934 	adc	a,(sp+sxofx)		;DD 88r00s00
   013F FD 89r00s00         935 	adc	a,lxofx(ix)		;FD 89r00s00
   0143 FD 89r00s00         936 	adc	a,(ix+lxofx)		;FD 89r00s00
   0147 FD 8Ar00s00         937 	adc	a,lxofx(iy)		;FD 8Ar00s00
   014B FD 8Ar00s00         938 	adc	a,(iy+lxofx)		;FD 8Ar00s00
   014F FD 8Br00s00         939 	adc	a,lxofx(hl)		;FD 8Br00s00
   0153 FD 8Br00s00         940 	adc	a,(hl+lxofx)		;FD 8Br00s00
   0157 DD 88r00s00         941 	adc	a,lxofx(sp)		;DD 88r00s00
   015B DD 88r00s00         942 	adc	a,(sp+lxofx)		;DD 88r00s00
   015F DD 8E 00           1007 	adc	a,(ix)			;DD 8E 00
   0162 FD 8E 00           1008 	adc	a,(iy)			;FD 8E 00
   0165 8E                 1009 	adc	a,(hl)			;8E
   0166 DD 88 00 00        1010 	adc	a,(sp)			;DD 88 00 00
   016A FD 88p00q00        1016 	adc	a,adc11(pc)		;FD 88p00q00
   016E FD 88p00q00        1020 	adc	a,(pc+adc12)		;FD 88p00q00
   0172 FD 88p00q00        1024 	adc	a,[adc13]		;FD 88p00q00
   0176 FD 88 1C 00        1094 	adc	a,[.+32]		;FD 88 1C 00
   017A DD 89              1095 	adc	a,(hl+ix)		;DD 89
   017C DD 8A              1096 	adc	a,(hl+iy)		;DD 8A
   017E DD 8B              1097 	adc	a,(ix+iy)		;DD 8B
                           1098 	;***********************************************************
                           1099 	; add with carry to accumulator without 'a'
                           1100 	.z280
   0180 DD 8Fr06s00        1105 	adc	(nnx+6)			;DD 8Fr06s00
   0184 FD 89r00s00        1106 	adc	(ix+nnx)			;FD 89r00s00
   0188 FD 8Ar00s00        1107 	adc	(iy+nnx)			;FD 8Ar00s00
   018C FD 8Br00s00        1108 	adc	(hl+nnx)			;FD 8Br00s00
   0190 DD 88r00s00        1109 	adc	(sp+nnx)			;DD 88r00s00
   0194 FD 89r00s00        1110 	adc	sxofx(ix)		;FD 89r00s00
   0198 FD 89r00s00        1111 	adc	(ix+sxofx)		;FD 89r00s00
   019C FD 8Ar00s00        1112 	adc	sxofx(iy)		;FD 8Ar00s00
   01A0 FD 8Ar00s00        1113 	adc	(iy+sxofx)		;FD 8Ar00s00
   01A4 FD 8Br00s00        1114 	adc	sxofx(hl)		;FD 8Br00s00
   01A8 FD 8Br00s00        1115 	adc	(hl+sxofx)		;FD 8Br00s00
   01AC DD 88r00s00        1116 	adc	sxofx(sp)		;DD 88r00s00
   01B0 DD 88r00s00        1117 	adc	(sp+sxofx)		;DD 88r00s00
   01B4 FD 89r00s00        1118 	adc	lxofx(ix)		;FD 89r00s00
   01B8 FD 89r00s00        1119 	adc	(ix+lxofx)		;FD 89r00s00
   01BC FD 8Ar00s00        1120 	adc	lxofx(iy)		;FD 8Ar00s00
   01C0 FD 8Ar00s00        1121 	adc	(iy+lxofx)		;FD 8Ar00s00
   01C4 FD 8Br00s00        1122 	adc	lxofx(hl)		;FD 8Br00s00
   01C8 FD 8Br00s00        1123 	adc	(hl+lxofx)		;FD 8Br00s00
   01CC DD 88r00s00        1124 	adc	lxofx(sp)		;DD 88r00s00
   01D0 DD 88r00s00        1125 	adc	(sp+lxofx)		;DD 88r00s00
   01D4 DD 8E 00           1192 	adc	(ix)			;DD 8E 00
   01D7 FD 8E 00           1193 	adc	(iy)			;FD 8E 00
   01DA 8E                 1194 	adc	(hl)			;8E
   01DB DD 88 00 00        1195 	adc	(sp)			;DD 88 00 00
   01DF FD 88p00q00        1201 	adc	adc14(pc)		;FD 88p00q00
   01E3 FD 88p00q00        1205 	adc	(pc+adc15)		;FD 88p00q00
   01E7 FD 88p00q00        1209 	adc	[adc16]			;FD 88p00q00
   01EB FD 88 1C 00        1279 	adc	[.+32]			;FD 88 1C 00
   01EF DD 89              1280 	adc	(hl+ix)			;DD 89
   01F1 DD 8A              1281 	adc	(hl+iy)			;DD 8A
   01F3 DD 8B              1282 	adc	(ix+iy)			;DD 8B
                           1283 	;***********************************************************
                           1284 	; add with carry to register IX, IY
   01F5 DD ED 4A           1285 	adc	ix,bc			;DD ED 4A
   01F8 DD ED 5A           1286 	adc	ix,de			;DD ED 5A
   01FB DD ED 6A           1287 	adc	ix,ix			;DD ED 6A
   01FE DD ED 7A           1288 	adc	ix,sp			;DD ED 7A
   0201 FD ED 4A           1289 	adc	iy,bc			;FD ED 4A
   0204 FD ED 5A           1290 	adc	iy,de			;FD ED 5A
   0207 FD ED 6A           1291 	adc	iy,iy			;FD ED 6A
   020A FD ED 7A           1292 	adc	iy,sp			;FD ED 7A
                           1293 		
                           1294 ;*******************************************************************
                           1295 ;	ADD	
                           1296 ;		Leading 'a' operand is optional.
                           1297 ;		If offset is ommitted 0 is assumed.
                           1298 ;*******************************************************************
                           1299 	;***********************************************************
                           1300 	; add operand to 'a' with 'a'
                           1301 	.z80
   020D 86                 1302 	add	a,(hl)			;86
   020E DD 86r00           1307 	add	a,offsetx(ix)		;DD 86r00
   0211 FD 86r00           1308 	add	a,offsetx(iy)		;FD 86r00
   0214 DD 86r00           1309 	add	a,(ix+offsetx)		;DD 86r00
   0217 FD 86r00           1310 	add	a,(iy+offsetx)		;FD 86r00
   021A 87                 1329 	add	a,a			;87
   021B 80                 1330 	add	a,b			;80
   021C 81                 1331 	add	a,c			;81
   021D 82                 1332 	add	a,d			;82
   021E 83                 1333 	add	a,e			;83
   021F 84                 1334 	add	a,h			;84
   0220 85                 1335 	add	a,l			;85
   0221 C6r00              1340 	add	a,#nx			;C6r00
   0223 C6r00              1341 	add	a, nx			;C6r00
                           1356 	;***********************************************************
                           1357 	; add operand to 'a' without 'a'
   0225 86                 1358 	add	(hl)			;86	
   0226 DD 86r00           1363 	add	offsetx(ix)		;DD 86r00
   0229 FD 86r00           1364 	add	offsetx(iy)		;FD 86r00
   022C DD 86r00           1365 	add	(ix+offsetx)		;DD 86r00
   022F FD 86r00           1366 	add	(iy+offsetx)		;FD 86r00
   0232 87                 1385 	add	a			;87
   0233 80                 1386 	add	b			;80
   0234 81                 1387 	add	c			;81
   0235 82                 1388 	add	d			;82
   0236 83                 1389 	add	e			;83
   0237 84                 1390 	add	h			;84
   0238 85                 1391 	add	l			;85
   0239 C6r00              1396 	add	#nx			;C6r00
   023B C6r00              1397 	add	 nx			;C6r00
                           1412 	;***********************************************************
                           1413 	; add register pair to 'hl'
   023D 09                 1414 	add	hl,bc			;09
   023E 19                 1415 	add	hl,de			;19
   023F 29                 1416 	add	hl,hl			;29
   0240 39                 1417 	add	hl,sp			;39
                           1418 	;***********************************************************
                           1419 	; add register pair to 'ix'
   0241 DD 09              1420 	add	ix,bc			;DD 09
   0243 DD 19              1421 	add	ix,de			;DD 19
   0245 DD 29              1422 	add	ix,ix			;DD 29
   0247 DD 39              1423 	add	ix,sp			;DD 39
                           1424 	;***********************************************************
                           1425 	; add register pair to 'iy'
   0249 FD 09              1426 	add	iy,bc			;FD 09
   024B FD 19              1427 	add	iy,de			;FD 19
   024D FD 29              1428 	add	iy,iy			;FD 29
   024F FD 39              1429 	add	iy,sp			;FD 39
                           1430 	;***********************************************************
                           1431 	; add operand to 'a' with 'a'
                           1432 	;  p. 5-16
                           1433 	.z280
   0251 DD 84              1434 	add	a,ixh			;DD 84
   0253 DD 85              1435 	add	a,ixl			;DD 85
   0255 FD 84              1436 	add	a,iyh			;FD 84
   0257 FD 85              1437 	add	a,iyl			;FD 85
   0259 DD 87r06s00        1442 	add	a,(nnx+6)		;DD 87r06s00
   025D FD 81r00s00        1443 	add	a,(ix+nnx)		;FD 81r00s00
   0261 FD 82r00s00        1444 	add	a,(iy+nnx)		;FD 82r00s00
   0265 FD 83r00s00        1445 	add	a,(hl+nnx)		;FD 83r00s00
   0269 DD 80r00s00        1446 	add	a,(sp+nnx)		;DD 80r00s00
   026D FD 81r00s00        1447 	add	a,sxofx(ix)		;FD 81r00s00
   0271 FD 81r00s00        1448 	add	a,(ix+sxofx)		;FD 81r00s00
   0275 FD 82r00s00        1449 	add	a,sxofx(iy)		;FD 82r00s00
   0279 FD 82r00s00        1450 	add	a,(iy+sxofx)		;FD 82r00s00
   027D FD 83r00s00        1451 	add	a,sxofx(hl)		;FD 83r00s00
   0281 FD 83r00s00        1452 	add	a,(hl+sxofx)		;FD 83r00s00
   0285 DD 80r00s00        1453 	add	a,sxofx(sp)		;DD 80r00s00
   0289 DD 80r00s00        1454 	add	a,(sp+sxofx)		;DD 80r00s00
   028D FD 81r00s00        1455 	add	a,lxofx(ix)		;FD 81r00s00
   0291 FD 81r00s00        1456 	add	a,(ix+lxofx)		;FD 81r00s00
   0295 FD 82r00s00        1457 	add	a,lxofx(iy)		;FD 82r00s00
   0299 FD 82r00s00        1458 	add	a,(iy+lxofx)		;FD 82r00s00
   029D FD 83r00s00        1459 	add	a,lxofx(hl)		;FD 83r00s00
   02A1 FD 83r00s00        1460 	add	a,(hl+lxofx)		;FD 83r00s00
   02A5 DD 80r00s00        1461 	add	a,lxofx(sp)		;DD 80r00s00
   02A9 DD 80r00s00        1462 	add	a,(sp+lxofx)		;DD 80r00s00
   02AD DD 86 00           1528 	add	a,(ix)			;DD 86 00
   02B0 FD 86 00           1529 	add	a,(iy)			;FD 86 00
   02B3 86                 1530 	add	a,(hl)			;86
   02B4 DD 80 00 00        1531 	add	a,(sp)			;DD 80 00 00
   02B8 FD 80p00q00        1537 	add	a,add01(pc)		;FD 80p00q00
   02BC FD 80p00q00        1541 	add	a,(pc+add02)		;FD 80p00q00
   02C0 FD 80p00q00        1545 	add	a,[add03]		;FD 80p00q00
   02C4 FD 80 30 12        1615 	add	a,[.+raofc]		;FD 80 30 12
   02C8 DD 81              1616 	add	a,(hl+ix)		;DD 81
   02CA DD 82              1617 	add	a,(hl+iy)		;DD 82
   02CC DD 83              1618 	add	a,(ix+iy)		;DD 83
                           1619 	;***********************************************************
                           1620 	; add operand to 'a' without 'a'
                           1621 	.z280
   02CE DD 84              1622 	add	ixh			;DD 84
   02D0 DD 85              1623 	add	ixl			;DD 85
   02D2 FD 84              1624 	add	iyh			;FD 84
   02D4 FD 85              1625 	add	iyl			;FD 85
   02D6 DD 87r06s00        1630 	add	(nnx+6)			;DD 87r06s00
   02DA FD 81r00s00        1631 	add	(ix+nnx)			;FD 81r00s00
   02DE FD 82r00s00        1632 	add	(iy+nnx)			;FD 82r00s00
   02E2 FD 83r00s00        1633 	add	(hl+nnx)			;FD 83r00s00
   02E6 DD 80r00s00        1634 	add	(sp+nnx)			;DD 80r00s00
   02EA FD 81r00s00        1635 	add	sxofx(ix)		;FD 81r00s00
   02EE FD 81r00s00        1636 	add	(ix+sxofx)		;FD 81r00s00
   02F2 FD 82r00s00        1637 	add	sxofx(iy)		;FD 82r00s00
   02F6 FD 82r00s00        1638 	add	(iy+sxofx)		;FD 82r00s00
   02FA FD 83r00s00        1639 	add	sxofx(hl)		;FD 83r00s00
   02FE FD 83r00s00        1640 	add	(hl+sxofx)		;FD 83r00s00
   0302 DD 80r00s00        1641 	add	sxofx(sp)		;DD 80r00s00
   0306 DD 80r00s00        1642 	add	(sp+sxofx)		;DD 80r00s00
   030A FD 81r00s00        1643 	add	lxofx(ix)		;FD 81r00s00
   030E FD 81r00s00        1644 	add	(ix+lxofx)		;FD 81r00s00
   0312 FD 82r00s00        1645 	add	lxofx(iy)		;FD 82r00s00
   0316 FD 82r00s00        1646 	add	(iy+lxofx)		;FD 82r00s00
   031A FD 83r00s00        1647 	add	lxofx(hl)		;FD 83r00s00
   031E FD 83r00s00        1648 	add	(hl+lxofx)		;FD 83r00s00
   0322 DD 80r00s00        1649 	add	lxofx(sp)		;DD 80r00s00
   0326 DD 80r00s00        1650 	add	(sp+lxofx)		;DD 80r00s00
   032A DD 86 00           1716 	add	(ix)			;DD 86 00
   032D FD 86 00           1717 	add	(iy)			;FD 86 00
   0330 86                 1718 	add	(hl)			;86
   0331 DD 80 00 00        1719 	add	(sp)			;DD 80 00 00
   0335 FD 80p00q00        1725 	add	add04(pc)		;FD 80p00q00
   0339 FD 80p00q00        1729 	add	(pc+add05)		;FD 80p00q00
   033D FD 80p00q00        1733 	add	[add06]			;FD 80p00q00
   0341 FD 80 30 12        1803 	add	[.+raofc]		;FD 80 30 12
   0345 DD 81              1804 	add	(hl+ix)			;DD 81
   0347 DD 82              1805 	add	(hl+iy)			;DD 82
   0349 DD 83              1806 	add	(ix+iy)			;DD 83
                           1807 	;***********************************************************
   034B ED 6D              1808 	add	hl,a			;ED 6D
   034D DD ED 6D           1809 	add	ix,a			;DD ED 6D
   0350 FD ED 6D           1810 	add	iy,a			;FD ED 6D
                           1811 
                           1812 ;*******************************************************************
                           1813 ;	ADDW	
                           1814 ;*******************************************************************
                           1815 	;***********************************************************
                           1816 	.z280
   0353 FD ED F6r00s00     1821 	addw	hl,#nx			;FD ED F6r00s00
   0358 FD ED F6r00s00     1822 	addw	hl,#daddx		;FD ED F6r00s00
   035D DD ED D6r00s00     1823 	addw	hl,(daddx)		;DD ED D6r00s00
   0362 FD ED C6r00s00     1824 	addw	hl,sxofx(ix)		;FD ED C6r00s00
   0367 FD ED C6r00s00     1825 	addw	hl,(ix+sxofx)		;FD ED C6r00s00
   036C FD ED C6r00s00     1826 	addw	hl,lxofx(ix)		;FD ED C6r00s00
   0371 FD ED C6r00s00     1827 	addw	hl,(ix+lxofx)		;FD ED C6r00s00
   0376 FD ED D6r00s00     1828 	addw	hl,sxofx(iy)		;FD ED D6r00s00
   037B FD ED D6r00s00     1829 	addw	hl,(iy+sxofx)		;FD ED D6r00s00
   0380 FD ED D6r00s00     1830 	addw	hl,lxofx(iy)		;FD ED D6r00s00
   0385 FD ED D6r00s00     1831 	addw	hl,(iy+lxofx)		;FD ED D6r00s00
   038A DD ED C6           1864 	addw	hl,(hl)			;DD ED C6
                           1865 	;***********************************************************
                           1866 	; add register pair to 'hl'
   038D 09                 1867 	addw	hl,bc			;09
   038E 19                 1868 	addw	hl,de			;19
   038F 29                 1869 	addw	hl,hl			;29
   0390 39                 1870 	addw	hl,sp			;39
                           1871 	;***********************************************************
   0391 DD ED F6p00q00     1877 	addw	hl,addw01(pc)		;DD ED F6p00q00
   0396 DD ED F6p00q00     1881 	addw	hl,(pc+addw02)		;DD ED F6p00q00
   039B DD ED F6p00q00     1885 	addw	hl,[addw03]		;DD ED F6p00q00
   03A0 DD ED F6 1B 00     1955 	addw	hl,[.+nc]		;DD ED F6 1B 00
                           1956 
                           1957 	;***********************************************************
                           1958 	; Equivalent to addw
                           1959 	;  p. 5-18
   03A5 FD ED F6r00s00     1964 	add	hl,#nx			;FD ED F6r00s00
   03AA FD ED F6r00s00     1965 	add	hl,#daddx		;FD ED F6r00s00
   03AF DD ED D6r00s00     1966 	add	hl,(daddx)		;DD ED D6r00s00
   03B4 FD ED C6r00s00     1967 	add	hl,sxofx(ix)		;FD ED C6r00s00
   03B9 FD ED C6r00s00     1968 	add	hl,(ix+sxofx)		;FD ED C6r00s00
   03BE FD ED C6r00s00     1969 	add	hl,lxofx(ix)		;FD ED C6r00s00
   03C3 FD ED C6r00s00     1970 	add	hl,(ix+lxofx)		;FD ED C6r00s00
   03C8 FD ED D6r00s00     1971 	add	hl,sxofx(iy)		;FD ED D6r00s00
   03CD FD ED D6r00s00     1972 	add	hl,(iy+sxofx)		;FD ED D6r00s00
   03D2 FD ED D6r00s00     1973 	add	hl,lxofx(iy)		;FD ED D6r00s00
   03D7 FD ED D6r00s00     1974 	add	hl,(iy+lxofx)		;FD ED D6r00s00
                           2007 
                           2008 ;*******************************************************************
                           2009 ;	AND	
                           2010 ;		Leading 'a' operand is optional.
                           2011 ;		If offset is ommitted 0 is assumed.
                           2012 ;*******************************************************************
                           2013 	;***********************************************************
                           2014 	; logical 'and' operand with 'a'
                           2015 	.z80
   03DC A6                 2016 	and	a,(hl)			;A6
   03DD DD A6r00           2021 	and	a,offsetx(ix)		;DD A6r00
   03E0 FD A6r00           2022 	and	a,offsetx(iy)		;FD A6r00
   03E3 DD A6r00           2023 	and	a,(ix+offsetx)		;DD A6r00
   03E6 FD A6r00           2024 	and	a,(iy+offsetx)		;FD A6r00
   03E9 A7                 2043 	and	a,a			;A7
   03EA A0                 2044 	and	a,b			;A0
   03EB A1                 2045 	and	a,c			;A1
   03EC A2                 2046 	and	a,d			;A2
   03ED A3                 2047 	and	a,e			;A3
   03EE A4                 2048 	and	a,h			;A4
   03EF A5                 2049 	and	a,l			;A5
   03F0 E6r00              2054 	and	a,#nx			;E6r00
   03F2 E6r00              2055 	and	a, nx			;E6r00
                           2070 	;***********************************************************
                           2071 	; logical 'and' operand without 'a'
                           2072 	.z80
   03F4 A6                 2073 	and	(hl)			;A6
   03F5 DD A6r00           2078 	and	offsetx(ix)		;DD A6r00
   03F8 FD A6r00           2079 	and	offsetx(iy)		;FD A6r00
   03FB DD A6r00           2080 	and	(ix+offsetx)		;DD A6r00
   03FE FD A6r00           2081 	and	(iy+offsetx)		;FD A6r00
   0401 A7                 2100 	and	a			;A7
   0402 A0                 2101 	and	b			;A0
   0403 A1                 2102 	and	c			;A1
   0404 A2                 2103 	and	d			;A2
   0405 A3                 2104 	and	e			;A3
   0406 A4                 2105 	and	h			;A4
   0407 A5                 2106 	and	l			;A5
   0408 E6r00              2111 	and	#nx			;E6r00
   040A E6r00              2112 	and	 nx			;E6r00
                           2127 	;***********************************************************
                           2128 	; logical 'and' operand with 'a'
                           2129 	;  p. 5--19
                           2130 	.z280
   040C DD A4              2131 	and	a,ixh			;DD A4
   040E DD A5              2132 	and	a,ixl			;DD A5
   0410 FD A4              2133 	and	a,iyh			;FD A4
   0412 FD A5              2134 	and	a,iyl			;FD A5
   0414 DD A7r06s00        2139 	and	a,(nx+6)			;DD A7r06s00
   0418 FD A1r00s00        2140 	and	a,(ix+nnx)		;FD A1r00s00
   041C FD A2r00s00        2141 	and	a,(iy+nnx)		;FD A2r00s00
   0420 FD A3r00s00        2142 	and	a,(hl+nnx)		;FD A3r00s00
   0424 DD A0r00s00        2143 	and	a,(sp+nnx)		;DD A0r00s00
   0428 FD A1r00s00        2144 	and	a,sxofx(ix)		;FD A1r00s00
   042C FD A1r00s00        2145 	and	a,(ix+sxofx)		;FD A1r00s00
   0430 FD A2r00s00        2146 	and	a,sxofx(iy)		;FD A2r00s00
   0434 FD A2r00s00        2147 	and	a,(iy+sxofx)		;FD A2r00s00
   0438 FD A3r00s00        2148 	and	a,sxofx(hl)		;FD A3r00s00
   043C FD A3r00s00        2149 	and	a,(hl+sxofx)		;FD A3r00s00
   0440 DD A0r00s00        2150 	and	a,sxofx(sp)		;DD A0r00s00
   0444 DD A0r00s00        2151 	and	a,(sp+sxofx)		;DD A0r00s00
   0448 FD A1r00s00        2152 	and	a,lxofx(ix)		;FD A1r00s00
   044C FD A1r00s00        2153 	and	a,(ix+lxofx)		;FD A1r00s00
   0450 FD A2r00s00        2154 	and	a,lxofx(iy)		;FD A2r00s00
   0454 FD A2r00s00        2155 	and	a,(iy+lxofx)		;FD A2r00s00
   0458 FD A3r00s00        2156 	and	a,lxofx(hl)		;FD A3r00s00
   045C FD A3r00s00        2157 	and	a,(hl+lxofx)		;FD A3r00s00
   0460 DD A0r00s00        2158 	and	a,lxofx(sp)		;DD A0r00s00
   0464 DD A0r00s00        2159 	and	a,(sp+lxofx)		;DD A0r00s00
   0468 DD A6 00           2225 	and	a,(ix)			;DD A6 00
   046B FD A6 00           2226 	and	a,(iy)			;FD A6 00
   046E A6                 2227 	and	a,(hl)			;A6
   046F DD A0 00 00        2228 	and	a,(sp)			;DD A0 00 00
   0473 FD A0p00q00        2234 	and	a,and01(pc)		;FD A0p00q00
   0477 FD A0p00q00        2238 	and	a,(pc+and02)		;FD A0p00q00
   047B FD A0p00q00        2242 	and	a,[and03]		;FD A0p00q00
   047F FD A0 1C 00        2312 	and	a,[.+32]		;FD A0 1C 00
   0483 FD A0 30 12        2313 	and	a,(pc+(.+raofc))	;FD A0 30 12
   0487 DD A0rE0sFF        2318 	and	a,-nc+x(sp)		;DD A0rE0sFF
   048B DD A1              2343 	and	a,(hl+ix)		;DD A1
   048D DD A2              2344 	and	a,(hl+iy)		;DD A2
   048F DD A3              2345 	and	a,(ix+iy)		;DD A3
                           2346 	;***********************************************************
                           2347 	; logical 'and' operand without 'a'
                           2348 	;  p. 5--19
                           2349 	.z280
   0491 DD A4              2350 	and	ixh			;DD A4
   0493 DD A5              2351 	and	ixl			;DD A5
   0495 FD A4              2352 	and	iyh			;FD A4
   0497 FD A5              2353 	and	iyl			;FD A5
   0499 DD A7r00s00        2358 	and	(daddx)			;DD A7r00s00
   049D FD A1r00s00        2359 	and	lxofx(ix)		;FD A1r00s00
   04A1 FD A2r00s00        2360 	and	(iy+lxofx)		;FD A2r00s00
   04A5 FD A3r00s00        2361 	and	lxofx(hl)		;FD A3r00s00
   04A9 FD A0p00q00        2385 	and	and04(pc)		;FD A0p00q00
   04AD FD A0p00q00        2389 	and	(pc+and05)		;FD A0p00q00
   04B1 FD A0p00q00        2393 	and	[and06]			;FD A0p00q00
   04B5 FD A0 1C 00        2463 	and	[.+32]			;FD A0 1C 00
   04B9 FD A0 30 12        2464 	and	(pc+(.+raofc))		;FD A0 30 12
   04BD DD A0rE0sFF        2469 	and	-nc+x(sp)		;DD A0rE0sFF
   04C1 DD A1              2494 	and	(hl+ix)			;DD A1
   04C3 DD A2              2495 	and	(hl+iy)			;DD A2
   04C5 DD A3              2496 	and	(ix+iy)			;DD A3
                           2497 
                           2498 ;*******************************************************************
                           2499 ;	BIT	
                           2500 ;*******************************************************************
                           2501 	;***********************************************************
                           2502 	; test bit of location or register
                           2503 	.z80
   04C7 CB 46              2504 	bit	0,(hl)			;CB 46
   04C9 DD CBr00 46        2509 	bit	0,offsetx(ix)		;DD CBr00 46
   04CD FD CBr00 46        2510 	bit	0,offsetx(iy)		;FD CBr00 46
   04D1 DD CBr00 46        2511 	bit	0,(ix+offsetx)		;DD CBr00 46
   04D5 FD CBr00 46        2512 	bit	0,(iy+offsetx)		;FD CBr00 46
   04D9 CB 47              2531 	bit	0,a			;CB 47
   04DB CB 40              2532 	bit	0,b			;CB 40
   04DD CB 41              2533 	bit	0,c			;CB 41
   04DF CB 42              2534 	bit	0,d			;CB 42
   04E1 CB 43              2535 	bit	0,e			;CB 43
   04E3 CB 44              2536 	bit	0,h			;CB 44
   04E5 CB 45              2537 	bit	0,l			;CB 45
   04E7 CB 4E              2538 	bit	1,(hl)			;CB 4E
   04E9 DD CBr00 4E        2543 	bit	1,offsetx(ix)		;DD CBr00 4E
   04ED FD CBr00 4E        2544 	bit	1,offsetx(iy)		;FD CBr00 4E
   04F1 DD CBr00 4E        2545 	bit	1,(ix+offsetx)		;DD CBr00 4E
   04F5 FD CBr00 4E        2546 	bit	1,(iy+offsetx)		;FD CBr00 4E
   04F9 CB 4F              2565 	bit	1,a			;CB 4F
   04FB CB 48              2566 	bit	1,b			;CB 48
   04FD CB 49              2567 	bit	1,c			;CB 49
   04FF CB 4A              2568 	bit	1,d			;CB 4A
   0501 CB 4B              2569 	bit	1,e			;CB 4B
   0503 CB 4C              2570 	bit	1,h			;CB 4C
   0505 CB 4D              2571 	bit	1,l			;CB 4D
   0507 CB 56              2572 	bit	2,(hl)			;CB 56
   0509 DD CBr00 56        2577 	bit	2,offsetx(ix)		;DD CBr00 56
   050D FD CBr00 56        2578 	bit	2,offsetx(iy)		;FD CBr00 56
   0511 DD CBr00 56        2579 	bit	2,(ix+offsetx)		;DD CBr00 56
   0515 FD CBr00 56        2580 	bit	2,(iy+offsetx)		;FD CBr00 56
   0519 CB 57              2599 	bit	2,a			;CB 57
   051B CB 50              2600 	bit	2,b			;CB 50
   051D CB 51              2601 	bit	2,c			;CB 51
   051F CB 52              2602 	bit	2,d			;CB 52
   0521 CB 53              2603 	bit	2,e			;CB 53
   0523 CB 54              2604 	bit	2,h			;CB 54
   0525 CB 55              2605 	bit	2,l			;CB 55
   0527 CB 5E              2606 	bit	3,(hl)			;CB 5E
   0529 DD CBr00 5E        2611 	bit	3,offsetx(ix)		;DD CBr00 5E
   052D FD CBr00 5E        2612 	bit	3,offsetx(iy)		;FD CBr00 5E
   0531 DD CBr00 5E        2613 	bit	3,(ix+offsetx)		;DD CBr00 5E
   0535 FD CBr00 5E        2614 	bit	3,(iy+offsetx)		;FD CBr00 5E
   0539 CB 5F              2633 	bit	3,a			;CB 5F
   053B CB 58              2634 	bit	3,b			;CB 58
   053D CB 59              2635 	bit	3,c			;CB 59
   053F CB 5A              2636 	bit	3,d			;CB 5A
   0541 CB 5B              2637 	bit	3,e			;CB 5B
   0543 CB 5C              2638 	bit	3,h			;CB 5C
   0545 CB 5D              2639 	bit	3,l			;CB 5D
   0547 CB 66              2640 	bit	4,(hl)			;CB 66
   0549 DD CBr00 66        2645 	bit	4,offsetx(ix)		;DD CBr00 66
   054D FD CBr00 66        2646 	bit	4,offsetx(iy)		;FD CBr00 66
   0551 DD CBr00 66        2647 	bit	4,(ix+offsetx)		;DD CBr00 66
   0555 FD CBr00 66        2648 	bit	4,(iy+offsetx)		;FD CBr00 66
   0559 CB 67              2667 	bit	4,a			;CB 67
   055B CB 60              2668 	bit	4,b			;CB 60
   055D CB 61              2669 	bit	4,c			;CB 61
   055F CB 62              2670 	bit	4,d			;CB 62
   0561 CB 63              2671 	bit	4,e			;CB 63
   0563 CB 64              2672 	bit	4,h			;CB 64
   0565 CB 65              2673 	bit	4,l			;CB 65
   0567 CB 6E              2674 	bit	5,(hl)			;CB 6E
   0569 DD CBr00 6E        2679 	bit	5,offsetx(ix)		;DD CBr00 6E
   056D FD CBr00 6E        2680 	bit	5,offsetx(iy)		;FD CBr00 6E
   0571 DD CBr00 6E        2681 	bit	5,(ix+offsetx)		;DD CBr00 6E
   0575 FD CBr00 6E        2682 	bit	5,(iy+offsetx)		;FD CBr00 6E
   0579 CB 6F              2701 	bit	5,a			;CB 6F
   057B CB 68              2702 	bit	5,b			;CB 68
   057D CB 69              2703 	bit	5,c			;CB 69
   057F CB 6A              2704 	bit	5,d			;CB 6A
   0581 CB 6B              2705 	bit	5,e			;CB 6B
   0583 CB 6C              2706 	bit	5,h			;CB 6C
   0585 CB 6D              2707 	bit	5,l			;CB 6D
   0587 CB 76              2708 	bit	6,(hl)			;CB 76
   0589 DD CBr00 76        2713 	bit	6,offsetx(ix)		;DD CBr00 76
   058D FD CBr00 76        2714 	bit	6,offsetx(iy)		;FD CBr00 76
   0591 DD CBr00 76        2715 	bit	6,(ix+offsetx)		;DD CBr00 76
   0595 FD CBr00 76        2716 	bit	6,(iy+offsetx)		;FD CBr00 76
   0599 CB 77              2735 	bit	6,a			;CB 77
   059B CB 70              2736 	bit	6,b			;CB 70
   059D CB 71              2737 	bit	6,c			;CB 71
   059F CB 72              2738 	bit	6,d			;CB 72
   05A1 CB 73              2739 	bit	6,e			;CB 73
   05A3 CB 74              2740 	bit	6,h			;CB 74
   05A5 CB 75              2741 	bit	6,l			;CB 75
   05A7 CB 7E              2742 	bit	7,(hl)			;CB 7E
   05A9 DD CBr00 7E        2747  	bit	7,offsetx(ix)		;DD CBr00 7E
   05AD FD CBr00 7E        2748 	bit	7,offsetx(iy)		;FD CBr00 7E
   05B1 DD CBr00 7E        2749 	bit	7,(ix+offsetx)		;DD CBr00 7E
   05B5 FD CBr00 7E        2750 	bit	7,(iy+offsetx)		;FD CBr00 7E
   05B9 CB 7F              2769 	bit	7,a			;CB 7F
   05BB CB 78              2770 	bit	7,b			;CB 78
   05BD CB 79              2771 	bit	7,c			;CB 79
   05BF CB 7A              2772 	bit	7,d			;CB 7A
   05C1 CB 7B              2773 	bit	7,e			;CB 7B
   05C3 CB 7C              2774 	bit	7,h			;CB 7C
   05C5 CB 7D              2775 	bit	7,l			;CB 7D
                           2776 
                           2777 ;*******************************************************************
                           2778 ;	CALL	
                           2779 ;*******************************************************************
                           2780 	;***********************************************************
                           2781 	; call subroutine at nn if condition is true
                           2782 	.z80
   05C7 DCr00s00           2787 	call	C,nnx			;DCr00s00
   05CA FCr00s00           2788 	call	M,nnx			;FCr00s00
   05CD FCr00s00           2789 	call	s,nnx			;FCr00s00
   05D0 D4r00s00           2790 	call	NC,nnx			;D4r00s00
   05D3 C4r00s00           2791 	call	NZ,nnx			;C4r00s00
   05D6 F4r00s00           2792 	call	P,nnx			;F4r00s00
   05D9 F4r00s00           2793 	CALL	NS,nnx			;F4r00s00
   05DC ECr00s00           2794 	call	PE,nnx			;ECr00s00
   05DF ECr00s00           2795 	call	V,nnx			;ECr00s00
   05E2 E4r00s00           2796 	call	PO,nnx			;E4r00s00
   05E5 E4r00s00           2797 	call	nv,nnx			;E4r00s00
   05E8 CCr00s00           2798 	call	Z,nnx			;CCr00s00
                           2833 	;***********************************************************
                           2834 	; unconditional call to subroutine at nn
   05EB CDr00s00           2839 	call	nnx			;CDr00s00
   05EE CDr00s00           2840 	call	(nnx)			;CDr00s00
   05F1 CDr00s00           2841 	call	#nnx			;CDr00s00
                           2858 	;***********************************************************
                           2859 	;  p. 5-21
                           2860 	.z280
   05F4 DD CD              2861 	call	(hl)			;DD CD
   05F6 DD CC              2862 	call	z,(hl)			;DD CC
   05F8 DD E4              2863 	call	NV,(hl)			;DD E4
   05FA FD CDp00q00        2869 	call	call01(pc)		;FD CDp00q00
   05FE FD CDp00q00        2873 	call	(pc+call02)		;FD CDp00q00
   0602 FD CDp00q00        2877 	call	[call03]		;FD CDp00q00
   0606 FD CD 04 01        2947 	call	[.+0x108]		;FD CD 04 01
   060A FD DCp34q12        2955 	call	c,raofc+call04(pc)	;FD DCp34q12
   060E FD DCp34q12        2959 	call	c,(pc+raofc+call05)	;FD DCp34q12
   0612 FD DCp34q12        2963 	call	c,[raofc+call06]	;FD DCp34q12
   0616 FD DC 04 01        3007 	call	c,.+0x108(pc)		;FD DC 04 01
                           3008 ;*******************************************************************
                           3009 ;	CCF	
                           3010 ;*******************************************************************
                           3011 	;***********************************************************
                           3012 	; complement carry flag
                           3013 	.z80
   061A 3F                 3014 	ccf				;3F
                           3015 
                           3016 ;*******************************************************************
                           3017 ;	CP	
                           3018 ;		Leading 'a' operand is optional.
                           3019 ;		If offset is ommitted 0 is assumed.
                           3020 ;*******************************************************************
                           3021 	;***********************************************************
                           3022 	; compare operand with 'a'
                           3023 	.z80
   061B BE                 3024 	cp	a,(hl)			;BE
   061C DD BEr00           3029 	cp	a,offsetx(ix)		;DD BEr00
   061F FD BEr00           3030 	cp	a,offsetx(iy)		;FD BEr00
   0622 DD BEr00           3031 	cp	a,(ix+offsetx)		;DD BEr00
   0625 FD BEr00           3032 	cp	a,(iy+offsetx)		;FD BEr00
   0628 BF                 3051 	cp	a,a			;BF
   0629 B8                 3052 	cp	a,b			;B8
   062A B9                 3053 	cp	a,c			;B9
   062B BA                 3054 	cp	a,d			;BA
   062C BB                 3055 	cp	a,e			;BB
   062D BC                 3056 	cp	a,h			;BC
   062E BD                 3057 	cp	a,l			;BD
   062F FEr00              3062 	cp	a,#nx			;FEr00
   0631 FEr00              3063 	cp	a, nx			;FEr00
                           3078 	;***********************************************************
                           3079 	; compare operand without 'a'
                           3080 	.z80
   0633 BE                 3081 	cp	a,(hl)			;BE
   0634 DD BEr00           3086 	cp	offsetx(ix)		;DD BEr00
   0637 FD BEr00           3087 	cp	offsetx(iy)		;FD BEr00
   063A DD BEr00           3088 	cp	(ix+offsetx)		;DD BEr00
   063D FD BEr00           3089 	cp	(iy+offsetx)		;FD BEr00
   0640 BF                 3108 	cp	a			;BF
   0641 B8                 3109 	cp	b			;B8
   0642 B9                 3110 	cp	c			;B9
   0643 BA                 3111 	cp	d			;BA
   0644 BB                 3112 	cp	e			;BB
   0645 BC                 3113 	cp	h			;BC
   0646 BD                 3114 	cp	l			;BD
   0647 FEr00              3119 	cp	#nx			;FEr00
   0649 FEr00              3120 	cp	 nx			;FEr00
                           3135 	;***********************************************************
                           3136 	; compare operand with 'a'
                           3137 	;  p. 5-23
                           3138 	.z280
   064B DD BC              3139 	cp	a,ixh			;DD BC
   064D DD BD              3140 	cp	a,ixl			;DD BD
   064F FD BC              3141 	cp	a,iyh			;FD BC
   0651 FD BD              3142 	cp	a,iyl			;FD BD
   0653 FEr00              3147 	cp	a,#nx			;FEr00
   0655 DD BFr00s00        3148 	cp	a,(daddx)		;DD BFr00s00
   0659 FD B9r00s00        3149 	cp	a,sxofx(ix)		;FD B9r00s00
   065D FD B9r00s00        3150 	cp	a,(ix+sxofx)		;FD B9r00s00
   0661 FD BAr00s00        3151 	cp	a,sxofx(iy)		;FD BAr00s00
   0665 FD BAr00s00        3152 	cp	a,(iy+sxofx)		;FD BAr00s00
   0669 FD BBr00s00        3153 	cp	a,sxofx(hl)		;FD BBr00s00
   066D FD BBr00s00        3154 	cp	a,(hl+sxofx)		;FD BBr00s00
   0671 DD B8r00s00        3155 	cp	a,sxofx(sp)		;DD B8r00s00
   0675 DD B8r00s00        3156 	cp	a,(sp+sxofx)		;DD B8r00s00
   0679 FD B9r00s00        3157 	cp	a,lxofx(ix)		;FD B9r00s00
   067D FD B9r00s00        3158 	cp	a,(ix+lxofx)		;FD B9r00s00
   0681 FD BAr00s00        3159 	cp	a,lxofx(iy)		;FD BAr00s00
   0685 FD BAr00s00        3160 	cp	a,(iy+lxofx)		;FD BAr00s00
   0689 FD BBr00s00        3161 	cp	a,lxofx(hl)		;FD BBr00s00
   068D FD BBr00s00        3162 	cp	a,(hl+lxofx)		;FD BBr00s00
   0691 DD B8r00s00        3163 	cp	a,lxofx(sp)		;DD B8r00s00
   0695 DD B8r00s00        3164 	cp	a,(sp+lxofx)		;DD B8r00s00
   0699 DD BE 00           3224 	cp	a,(ix)			;DD BE 00
   069C FD BE 00           3225 	cp	a,(iy)			;FD BE 00
   069F BE                 3226 	cp	a,(hl)			;BE
   06A0 DD B8 00 00        3227 	cp	a,(sp)			;DD B8 00 00
   06A4 FD B8p00q00        3233 	cp	a,cp01(pc)		;FD B8p00q00
   06A8 FD B8p00q00        3237 	cp	a,(pc+cp02)		;FD B8p00q00
   06AC FD B8p00q00        3241 	cp	a,[cp03]		;FD B8p00q00
   06B0 FD B8 51 00        3311 	cp	a,[.+offsetc]		;FD B8 51 00
   06B4 DD B9              3312 	cp	a,(hl+ix)		;DD B9
   06B6 DD BA              3313 	cp	a,(hl+iy)		;DD BA
   06B8 DD BB              3314 	cp	a,(ix+iy)		;DD BB
                           3315 	;***********************************************************
                           3316 	; compare operand without 'a'
                           3317 	;  p. 5-23
                           3318 	.z280
   06BA FEr00              3323 	cp	#nx			;FEr00
   06BC DD BFr00s00        3324 	cp	(daddx)			;DD BFr00s00
   06C0 FD B9r00s00        3325 	cp	sxofx(ix)		;FD B9r00s00
   06C4 FD B9r00s00        3326 	cp	(ix+sxofx)		;FD B9r00s00
   06C8 FD BAr00s00        3327 	cp	sxofx(iy)		;FD BAr00s00
   06CC FD BAr00s00        3328 	cp	(iy+sxofx)		;FD BAr00s00
   06D0 FD BBr00s00        3329 	cp	sxofx(hl)		;FD BBr00s00
   06D4 FD BBr00s00        3330 	cp	(hl+sxofx)		;FD BBr00s00
   06D8 DD B8r00s00        3331 	cp	sxofx(sp)		;DD B8r00s00
   06DC DD B8r00s00        3332 	cp	(sp+sxofx)		;DD B8r00s00
   06E0 FD B9r00s00        3333 	cp	lxofx(ix)		;FD B9r00s00
   06E4 FD B9r00s00        3334 	cp	(ix+lxofx)		;FD B9r00s00
   06E8 FD BAr00s00        3335 	cp	lxofx(iy)		;FD BAr00s00
   06EC FD BAr00s00        3336 	cp	(iy+lxofx)		;FD BAr00s00
   06F0 FD BBr00s00        3337 	cp	lxofx(hl)		;FD BBr00s00
   06F4 FD BBr00s00        3338 	cp	(hl+lxofx)		;FD BBr00s00
   06F8 DD B8r00s00        3339 	cp	lxofx(sp)		;DD B8r00s00
   06FC DD B8r00s00        3340 	cp	(sp+lxofx)		;DD B8r00s00
   0700 DD BE 00           3400 	cp	(ix)			;DD BE 00
   0703 FD BE 00           3401 	cp	(iy)			;FD BE 00
   0706 BE                 3402 	cp	(hl)			;BE
   0707 DD B8 00 00        3403 	cp	(sp)			;DD B8 00 00
   070B FD B8p00q00        3409 	cp	cp04(pc)		;FD B8p00q00
   070F FD B8p00q00        3413 	cp	(pc+cp05)		;FD B8p00q00
   0713 FD B8p00q00        3417 	cp	[cp06]			;FD B8p00q00
   0717 FD B8 51 00        3487 	cp	[.+offsetc]		;FD B8 51 00
   071B DD B9              3488 	cp	(hl+ix)			;DD B9
   071D DD BA              3489 	cp	(hl+iy)			;DD BA
   071F DD BB              3490 	cp	(ix+iy)			;DD BB
                           3491 ;*******************************************************************
                           3492 ;	CPW	
                           3493 ;*******************************************************************
                           3494 	;***********************************************************
                           3495 	; compare word operand with 'hl'
                           3496 	;  p. 5-29
                           3497 	.z280
   0721 ED C7              3498 	cpw	hl,bc			;ED C7
   0723 ED D7              3499 	cpw	hl,de			;ED D7
   0725 ED E7              3500 	cpw	hl,hl			;ED E7
   0727 ED F7              3501 	cpw	hl,sp			;ED F7
   0729 DD ED E7           3502 	cpw	hl,ix			;DD ED E7
   072C FD ED E7           3503 	cpw	hl,iy			;FD ED E7
   072F FD ED F7r00s00     3508 	cpw	hl,#nnx			;FD ED F7r00s00
   0734 DD ED D7r00s00     3509 	cpw	hl,(daddx)		;DD ED D7r00s00
   0739 FD ED C7r00s00     3510 	cpw	hl,sxofx(ix)		;FD ED C7r00s00
   073E FD ED C7r00s00     3511 	cpw	hl,(ix+sxofx)		;FD ED C7r00s00
   0743 FD ED C7r00s00     3512 	cpw	hl,lxofx(ix)		;FD ED C7r00s00
   0748 FD ED C7r00s00     3513 	cpw	hl,(ix+lxofx)		;FD ED C7r00s00
   074D FD ED D7r00s00     3514 	cpw	hl,sxofx(iy)		;FD ED D7r00s00
   0752 FD ED D7r00s00     3515 	cpw	hl,(iy+sxofx)		;FD ED D7r00s00
   0757 FD ED D7r00s00     3516 	cpw	hl,lxofx(iy)		;FD ED D7r00s00
   075C FD ED D7r00s00     3517 	cpw	hl,(iy+lxofx)		;FD ED D7r00s00
   0761 DD ED C7           3548 	cpw	hl,(hl)			;DD ED C7
   0764 FD ED C7 00 00     3549 	cpw	hl,(ix)			;FD ED C7 00 00
   0769 FD ED D7 00 00     3550 	cpw	hl,(iy)			;FD ED D7 00 00
   076E DD ED F7p00q00     3556 	cpw	hl,cpw01(pc)		;DD ED F7p00q00
   0773 DD ED F7p00q00     3560 	cpw	hl,(pc+cpw02)		;DD ED F7p00q00
   0778 DD ED F7p00q00     3564 	cpw	hl,[cpw03]		;DD ED F7p00q00
   077D DD ED F7 0F 00     3634 	cpw	hl,[.+20]		;DD ED F7 0F 00
                           3635 
                           3636 	;***********************************************************
                           3637 	; compare word operand without 'hl'
   0782 ED C7              3638 	cpw	bc			;ED C7
   0784 ED D7              3639 	cpw	de			;ED D7
   0786 ED E7              3640 	cpw	hl			;ED E7
   0788 ED F7              3641 	cpw	sp			;ED F7
   078A DD ED E7           3642 	cpw	ix			;DD ED E7
   078D FD ED E7           3643 	cpw	iy			;FD ED E7
   0790 FD ED F7r00s00     3648 	cpw	#nnx			;FD ED F7r00s00
   0795 DD ED D7r00s00     3649 	cpw	(daddx)			;DD ED D7r00s00
   079A FD ED C7r00s00     3650 	cpw	sxofx(ix)		;FD ED C7r00s00
   079F FD ED C7r00s00     3651 	cpw	(ix+sxofx)		;FD ED C7r00s00
   07A4 FD ED C7r00s00     3652 	cpw	lxofx(ix)		;FD ED C7r00s00
   07A9 FD ED C7r00s00     3653 	cpw	(ix+lxofx)		;FD ED C7r00s00
   07AE FD ED D7r00s00     3654 	cpw	sxofx(iy)		;FD ED D7r00s00
   07B3 FD ED D7r00s00     3655 	cpw	(iy+sxofx)		;FD ED D7r00s00
   07B8 FD ED D7r00s00     3656 	cpw	lxofx(iy)		;FD ED D7r00s00
   07BD FD ED D7r00s00     3657 	cpw	(iy+lxofx)		;FD ED D7r00s00
   07C2 DD ED C7           3688 	cpw	(hl)			;DD ED C7
   07C5 FD ED C7 00 00     3689 	cpw	(ix)			;FD ED C7 00 00
   07CA FD ED D7 00 00     3690 	cpw	(iy)			;FD ED D7 00 00
   07CF DD ED F7p00q00     3696 	cpw	cpw04(pc)		;DD ED F7p00q00
   07D4 DD ED F7p00q00     3700 	cpw	(pc+cpw05)		;DD ED F7p00q00
   07D9 DD ED F7p00q00     3704 	cpw	[cpw06]			;DD ED F7p00q00
   07DE DD ED F7 0F 00     3774 	cpw	[.+20]			;DD ED F7 0F 00
                           3775 
                           3776 	;***********************************************************
                           3777 	; Alternative to cpw hl,...
                           3778 	;  p. 5-29
                           3779 	.z280
   07E3 ED C7              3780 	cp	hl,bc			;ED C7
   07E5 ED D7              3781 	cp	hl,de			;ED D7
   07E7 ED E7              3782 	cp	hl,hl			;ED E7
   07E9 ED F7              3783 	cp	hl,sp			;ED F7
   07EB DD ED E7           3784 	cp	hl,ix			;DD ED E7
   07EE FD ED E7           3785 	cp	hl,iy			;FD ED E7
   07F1 FD ED F7r00s00     3790 	cp	hl,#nnx			;FD ED F7r00s00
   07F6 DD ED D7r00s00     3791 	cp	hl,(daddx)		;DD ED D7r00s00
   07FB FD ED C7r00s00     3792 	cp	hl,sxofx(ix)		;FD ED C7r00s00
   0800 FD ED C7r00s00     3793 	cp	hl,(ix+sxofx)		;FD ED C7r00s00
   0805 FD ED C7r00s00     3794 	cp	hl,lxofx(ix)		;FD ED C7r00s00
   080A FD ED C7r00s00     3795 	cp	hl,(ix+lxofx)		;FD ED C7r00s00
   080F FD ED D7r00s00     3796 	cp	hl,sxofx(iy)		;FD ED D7r00s00
   0814 FD ED D7r00s00     3797 	cp	hl,(iy+sxofx)		;FD ED D7r00s00
   0819 FD ED D7r00s00     3798 	cp	hl,lxofx(iy)		;FD ED D7r00s00
   081E FD ED D7r00s00     3799 	cp	hl,(iy+lxofx)		;FD ED D7r00s00
   0823 DD ED C7           3830 	cp	hl,(hl)			;DD ED C7
   0826 FD ED C7 00 00     3831 	cp	hl,(ix)			;FD ED C7 00 00
   082B FD ED D7 00 00     3832 	cp	hl,(iy)			;FD ED D7 00 00
   0830 DD ED F7p00q00     3838 	cp	hl,cp07(pc)		;DD ED F7p00q00
   0835 DD ED F7p00q00     3842 	cp	hl,(pc+cp08)		;DD ED F7p00q00
   083A DD ED F7p00q00     3846 	cp	hl,[cp09]		;DD ED F7p00q00
   083F DD ED F7 0F 00     3916 	cp	hl,[.+20]		;DD ED F7 0F 00
                           3917 
                           3918 ;*******************************************************************
                           3919 ;	CPD	
                           3920 ;*******************************************************************
                           3921 	;***********************************************************
                           3922 	; compare location (hl) and 'a'
                           3923 	; decrement 'hl' and 'bc'
                           3924 	.z80
   0844 ED A9              3925 	cpd				;ED A9
                           3926 
                           3927 ;*******************************************************************
                           3928 ;	CPDR	
                           3929 ;*******************************************************************
                           3930 	;***********************************************************
                           3931 	; compare location (hl) and 'a'
                           3932 	; decrement 'hl' and 'bc'
                           3933 	; repeat until 'bc' = 0
                           3934 	.z80
   0846 ED B9              3935 	cpdr				;ED B9
                           3936 
                           3937 ;*******************************************************************
                           3938 ;	CPI	
                           3939 ;*******************************************************************
                           3940 	;***********************************************************
                           3941 	; compare location (hl) and 'a'
                           3942 	; increment 'hl' and decrement 'bc'
                           3943 	.z80
   0848 ED A1              3944 	cpi				;ED A1
                           3945 
                           3946 ;*******************************************************************
                           3947 ;	CPIR	
                           3948 ;*******************************************************************
                           3949 	;***********************************************************
                           3950 	; compare location (hl) and 'a'
                           3951 	; increment 'hl' and decrement 'bc'
                           3952 	; repeat until 'bc' = 0
                           3953 	.z80
   084A ED B1              3954 	cpir				;ED B1
                           3955 
                           3956 ;*******************************************************************
                           3957 ;	CPL	
                           3958 ;*******************************************************************
                           3959 	;***********************************************************
                           3960 	; 1's complement of 'a'
                           3961 	.z80
   084C 2F                 3962 	cpl				;2F
                           3963 
                           3964 ;*******************************************************************
                           3965 ;	DAA	
                           3966 ;*******************************************************************
                           3967 	;***********************************************************
                           3968 	; decimal adjust 'a'
                           3969 	.z80
   084D 27                 3970 	daa				;27
                           3971 
                           3972 ;*******************************************************************
                           3973 ;	DEC	
                           3974 ;*******************************************************************
                           3975 	;***********************************************************
                           3976 	; decrement operand
                           3977 	.z80
   084E 35                 3978 	dec	(hl)			;35
   084F DD 35r00           3983 	dec	offsetx(ix)		;DD 35r00
   0852 FD 35r00           3984 	dec	offsetx(iy)		;FD 35r00
   0855 DD 35r00           3985 	dec	(ix+offsetx)		;DD 35r00
   0858 FD 35r00           3986 	dec	(iy+offsetx)		;FD 35r00
   085B 3D                 4005 	dec	a			;3D
   085C 05                 4006 	dec	b			;05
   085D 0B                 4007 	dec	bc			;0B
   085E 0D                 4008 	dec	c			;0D
   085F 15                 4009 	dec	d			;15
   0860 1B                 4010 	dec	de			;1B
   0861 1D                 4011 	dec	e			;1D
   0862 25                 4012 	dec	h			;25
   0863 2B                 4013 	dec	hl			;2B
   0864 DD 2B              4014 	dec	ix			;DD 2B
   0866 FD 2B              4015 	dec	iy			;FD 2B
   0868 2D                 4016 	dec	l			;2D
   0869 3B                 4017 	dec	sp			;3B
                           4018 	;***********************************************************
                           4019 	;  p. 5-32
                           4020 	.z280
   086A DD 25              4021 	dec	ixh			;DD 25
   086C DD 2D              4022 	dec	ixl			;DD 2D
   086E FD 25              4023 	dec	iyh			;FD 25
   0870 FD 2D              4024 	dec	iyl			;FD 2D
   0872 DD 3Dr00s00        4029 	dec	(daddx)			;DD 3Dr00s00
   0876 FD 0Dr00s00        4030 	dec	sxofx(ix)		;FD 0Dr00s00
   087A FD 0Dr00s00        4031 	dec	(ix+sxofx)		;FD 0Dr00s00
   087E FD 15r00s00        4032 	dec	sxofx(iy)		;FD 15r00s00
   0882 FD 15r00s00        4033 	dec	(iy+sxofx)		;FD 15r00s00
   0886 FD 1Dr00s00        4034 	dec	sxofx(hl)		;FD 1Dr00s00
   088A FD 1Dr00s00        4035 	dec	(hl+sxofx)		;FD 1Dr00s00
   088E DD 05r00s00        4036 	dec	sxofx(sp)		;DD 05r00s00
   0892 DD 05r00s00        4037 	dec	(sp+sxofx)		;DD 05r00s00
   0896 FD 0Dr00s00        4038 	dec	lxofx(ix)		;FD 0Dr00s00
   089A FD 0Dr00s00        4039 	dec	(ix+lxofx)		;FD 0Dr00s00
   089E FD 15r00s00        4040 	dec	lxofx(iy)		;FD 15r00s00
   08A2 FD 15r00s00        4041 	dec	(iy+lxofx)		;FD 15r00s00
   08A6 FD 1Dr00s00        4042 	dec	lxofx(hl)		;FD 1Dr00s00
   08AA FD 1Dr00s00        4043 	dec	(hl+lxofx)		;FD 1Dr00s00
   08AE DD 05r00s00        4044 	dec	lxofx(sp)		;DD 05r00s00
   08B2 DD 05r00s00        4045 	dec	(sp+lxofx)		;DD 05r00s00
   08B6 DD 35 00           4103 	dec	(ix)			;DD 35 00
   08B9 FD 35 00           4104 	dec	(iy)			;FD 35 00
   08BC 35                 4105 	dec	(hl)			;35
   08BD DD 05 00 00        4106 	dec	(sp)			;DD 05 00 00
   08C1 FD 05p00q00        4112 	dec	dec01(pc)		;FD 05p00q00
   08C5 FD 05p00q00        4116 	dec	(pc+dec02)		;FD 05p00q00
   08C9 FD 05p00q00        4120 	dec	[dec03]			;FD 05p00q00
   08CD FD 05 51 00        4190 	dec	[.+offsetc]		;FD 05 51 00
   08D1 DD 0D              4191 	dec	(hl+ix)			;DD 0D
   08D3 DD 15              4192 	dec	(hl+iy)			;DD 15
   08D5 DD 1D              4193 	dec	(ix+iy)			;DD 1D
                           4194 
                           4195 ;*******************************************************************
                           4196 ;	DECB	
                           4197 ;*******************************************************************
                           4198 	;***********************************************************
                           4199 	; decrement byte operand
                           4200 	;  p. 5-32
                           4201 	.z80
   08D7 35                 4202 	decb	(hl)			;35
   08D8 DD 35r00           4207 	decb	offsetx(ix)		;DD 35r00
   08DB FD 35r00           4208 	decb	offsetx(iy)		;FD 35r00
   08DE DD 35r00           4209 	decb	(ix+offsetx)		;DD 35r00
   08E1 FD 35r00           4210 	decb	(iy+offsetx)		;FD 35r00
                           4229 	;***********************************************************
                           4230 	.z280
   08E4 DD 3Dr00s00        4235 	decb	(daddx)			;DD 3Dr00s00
   08E8 FD 0Dr00s00        4236 	decb	sxofx(ix)		;FD 0Dr00s00
   08EC FD 0Dr00s00        4237 	decb	(ix+sxofx)		;FD 0Dr00s00
   08F0 FD 15r00s00        4238 	decb	sxofx(iy)		;FD 15r00s00
   08F4 FD 15r00s00        4239 	decb	(iy+sxofx)		;FD 15r00s00
   08F8 FD 1Dr00s00        4240 	decb	sxofx(hl)		;FD 1Dr00s00
   08FC FD 1Dr00s00        4241 	decb	(hl+sxofx)		;FD 1Dr00s00
   0900 DD 05r00s00        4242 	decb	sxofx(sp)		;DD 05r00s00
   0904 DD 05r00s00        4243 	decb	(sp+sxofx)		;DD 05r00s00
   0908 FD 0Dr00s00        4244 	decb	lxofx(ix)		;FD 0Dr00s00
   090C FD 0Dr00s00        4245 	decb	(ix+lxofx)		;FD 0Dr00s00
   0910 FD 15r00s00        4246 	decb	lxofx(iy)		;FD 15r00s00
   0914 FD 15r00s00        4247 	decb	(iy+lxofx)		;FD 15r00s00
   0918 FD 1Dr00s00        4248 	decb	lxofx(hl)		;FD 1Dr00s00
   091C FD 1Dr00s00        4249 	decb	(hl+lxofx)		;FD 1Dr00s00
   0920 DD 05r00s00        4250 	decb	lxofx(sp)		;DD 05r00s00
   0924 DD 05r00s00        4251 	decb	(sp+lxofx)		;DD 05r00s00
   0928 DD 35 00           4309 	decb	(ix)			;DD 35 00
   092B FD 35 00           4310 	decb	(iy)			;FD 35 00
   092E 35                 4311 	decb	(hl)			;35
   092F DD 05 00 00        4312 	decb	(sp)			;DD 05 00 00
   0933 FD 05p00q00        4318 	decb	decb01(pc)		;FD 05p00q00
   0937 FD 05p00q00        4322 	decb	(pc+decb02)		;FD 05p00q00
   093B FD 05p00q00        4326 	decb	[decb03]		;FD 05p00q00
   093F FD 05 51 00        4396 	decb	[.+offsetc]		;FD 05 51 00
   0943 DD 0D              4397 	decb	(hl+ix)			;DD 0D
   0945 DD 15              4398 	decb	(hl+iy)			;DD 15
   0947 DD 1D              4399 	decb	(ix+iy)			;DD 1D
                           4400 
                           4401 ;*******************************************************************
                           4402 ;	DECW	
                           4403 ;*******************************************************************
                           4404 	;***********************************************************
                           4405 	;  p. 5-32
                           4406 	.z80
   0949 0B                 4407 	decw	bc			;0B
   094A 1B                 4408 	decw	de			;1B
   094B 2B                 4409 	decw	hl			;2B
   094C 3B                 4410 	decw	sp			;3B
   094D DD 2B              4411 	decw	ix			;DD 2B
   094F FD 2B              4412 	decw	iy			;FD 2B
                           4413 	;***********************************************************
                           4414 	;  p. 5-33
                           4415 	.z280
   0951 DD 1Br00s00        4420 	decw	(daddx)			;DD 1Br00s00
   0955 FD 0Br00s00        4421 	decw	sxofx(ix)		;FD 0Br00s00
   0959 FD 0Br00s00        4422 	decw	(ix+sxofx)		;FD 0Br00s00
   095D FD 1Br00s00        4423 	decw	sxofx(iy)		;FD 1Br00s00
   0961 FD 1Br00s00        4424 	decw	(iy+sxofx)		;FD 1Br00s00
   0965 FD 0Br00s00        4425 	decw	lxofx(ix)		;FD 0Br00s00
   0969 FD 0Br00s00        4426 	decw	(ix+lxofx)		;FD 0Br00s00
   096D FD 1Br00s00        4427 	decw	lxofx(iy)		;FD 1Br00s00
   0971 FD 1Br00s00        4428 	decw	(iy+lxofx)		;FD 1Br00s00
   0975 FD 0B 00 00        4457 	decw	(ix)			;FD 0B 00 00
   0979 FD 1B 00 00        4458 	decw	(iy)			;FD 1B 00 00
   097D DD 0B              4459 	decw	(hl)			;DD 0B
   097F DD 3Bp00q00        4465 	decw	decw01(pc)		;DD 3Bp00q00
   0983 DD 3Bp00q00        4469 	decw	(pc+decw02)		;DD 3Bp00q00
   0987 DD 3Bp00q00        4473 	decw	[decw03]		;DD 3Bp00q00
   098B DD 3B 51 00        4543 	decw	[.+offsetc]		;DD 3B 51 00
                           4544 
                           4545 ;*******************************************************************
                           4546 ;	DI	
                           4547 ;*******************************************************************
                           4548 	;***********************************************************
                           4549 	; disable interrupts
                           4550 	.z80
   098F F3                 4551 	di				;F3
                           4552 ;	di	#3			;	q
                           4553 	.z180
   0990 F3                 4554 	di				;F3
                           4555 ;	di	#3			;	q
                           4556 	;***********************************************************
                           4557 	;  p. 5-34
                           4558 	.z280
                           4559 ;	di				;	q
                           4560 ;	di	#3			;	q
                           4561 	.z280p
   0991 F3                 4562 	di				;F3
   0992 ED 77 03           4563 	di	#3			;ED 77 03
   0995 ED 77 03           4564 	di	 3			;ED 77 03
                           4565 
                           4566 ;*******************************************************************
                           4567 ;	DIV	
                           4568 ;*******************************************************************
                           4569 	;***********************************************************
                           4570 	;  p. 5-35	DIV(byte)
                           4571 	.z280
   0998 ED FC              4572 	div	hl,a			;ED FC
   099A ED C4              4573 	div	hl,b			;ED C4
   099C ED CC              4574 	div	hl,c			;ED CC
   099E ED D4              4575 	div	hl,d			;ED D4
   09A0 ED DC              4576 	div	hl,e			;ED DC
   09A2 ED E4              4577 	div	hl,h			;ED E4
   09A4 ED EC              4578 	div	hl,l			;ED EC
   09A6 DD ED E4           4579 	div	hl,ixh			;DD ED E4
   09A9 DD ED EC           4580 	div	hl,ixl			;DD ED EC
   09AC FD ED E4           4581 	div	hl,iyh			;FD ED E4
   09AF FD ED EC           4582 	div	hl,iyl			;FD ED EC
   09B2 FD ED FC 0A        4583 	div	hl,#10			;FD ED FC 0A
   09B6 DD ED FCr00s00     4588 	div	hl,(daddx)		;DD ED FCr00s00
   09BB FD ED CCr00s00     4589 	div	hl,offsetx(ix)		;FD ED CCr00s00
   09C0 FD ED CCr00s00     4590 	div	hl,(ix+offsetx)		;FD ED CCr00s00
   09C5 FD ED D4r00s00     4591 	div	hl,offsetx(iy)		;FD ED D4r00s00
   09CA FD ED D4r00s00     4592 	div	hl,(iy+offsetx)		;FD ED D4r00s00
   09CF FD ED DCr00s00     4593 	div	hl,offsetx(hl)		;FD ED DCr00s00
   09D4 FD ED DCr00s00     4594 	div	hl,(hl+offsetx)		;FD ED DCr00s00
   09D9 DD ED C4r00s00     4595 	div	hl,offsetx(sp)		;DD ED C4r00s00
   09DE DD ED C4r00s00     4596 	div	hl,(sp+offsetx)		;DD ED C4r00s00
   09E3 FD ED CCr00s00     4597 	div	hl,lxofx(ix)		;FD ED CCr00s00
   09E8 FD ED CCr00s00     4598 	div	hl,(ix+lxofx)		;FD ED CCr00s00
   09ED FD ED D4r00s00     4599 	div	hl,lxofx(iy)		;FD ED D4r00s00
   09F2 FD ED D4r00s00     4600 	div	hl,(iy+lxofx)		;FD ED D4r00s00
   09F7 FD ED DCr00s00     4601 	div	hl,lxofx(hl)		;FD ED DCr00s00
   09FC FD ED DCr00s00     4602 	div	hl,(hl+lxofx)		;FD ED DCr00s00
   0A01 DD ED C4r00s00     4603 	div	hl,lxofx(sp)		;DD ED C4r00s00
   0A06 DD ED C4r00s00     4604 	div	hl,(sp+lxofx)		;DD ED C4r00s00
   0A0B DD ED F4 00        4662 	div	hl,(ix)			;DD ED F4 00
   0A0F FD ED F4 00        4663 	div	hl,(iy)			;FD ED F4 00
                           4664 ; misprint in the manual on p. 5-35 says the following should assemble as ED E4
                           4665 ;  Appendix C.  corrects this to ED F4
   0A13 ED F4              4666 	div	hl,(hl)			;ED F4
   0A15 FD ED C4p00q00     4672 	div	hl,div01(pc)		;FD ED C4p00q00
   0A1A FD ED C4p00q00     4676 	div	hl,(pc+div02)		;FD ED C4p00q00
   0A1F FD ED C4p00q00     4680 	div	hl,[div03]		;FD ED C4p00q00
   0A24 FD ED C4 50 00     4750 	div	hl,[.+offsetc]		;FD ED C4 50 00
   0A29 DD ED CC           4751 	div	hl,(hl+ix)		;DD ED CC
   0A2C DD ED D4           4752 	div	hl,(hl+iy)		;DD ED D4
   0A2F DD ED DC           4753 	div	hl,(ix+iy)		;DD ED DC
                           4754 
                           4755 ;*******************************************************************
                           4756 ;	DIVU
                           4757 ;*******************************************************************
                           4758 	;***********************************************************
                           4759 	;  p. 5-37	DIVU(byte)
                           4760 	.z280
   0A32 ED FD              4761 	divu	hl,a			;ED FD
   0A34 ED C5              4762 	divu	hl,b			;ED C5
   0A36 ED CD              4763 	divu	hl,c			;ED CD
   0A38 ED D5              4764 	divu	hl,d			;ED D5
   0A3A ED DD              4765 	divu	hl,e			;ED DD
   0A3C ED E5              4766 	divu	hl,h			;ED E5
   0A3E ED ED              4767 	divu	hl,l			;ED ED
   0A40 DD ED E5           4768 	divu	hl,ixh			;DD ED E5
   0A43 DD ED ED           4769 	divu	hl,ixl			;DD ED ED
   0A46 FD ED E5           4770 	divu	hl,iyh			;FD ED E5
   0A49 FD ED ED           4771 	divu	hl,iyl			;FD ED ED
   0A4C FD ED FD 0A        4772 	divu	hl,#10			;FD ED FD 0A
   0A50 DD ED FDr00s00     4777 	divu	hl,(daddx)		;DD ED FDr00s00
   0A55 FD ED CDr00s00     4778 	divu	hl,offsetx(ix)		;FD ED CDr00s00
   0A5A FD ED CDr00s00     4779 	divu	hl,(ix+offsetx)		;FD ED CDr00s00
   0A5F FD ED D5r00s00     4780 	divu	hl,offsetx(iy)		;FD ED D5r00s00
   0A64 FD ED D5r00s00     4781 	divu	hl,(iy+offsetx)		;FD ED D5r00s00
   0A69 FD ED DDr00s00     4782 	divu	hl,offsetx(hl)		;FD ED DDr00s00
   0A6E FD ED DDr00s00     4783 	divu	hl,(hl+offsetx)		;FD ED DDr00s00
   0A73 DD ED C5r00s00     4784 	divu	hl,offsetx(sp)		;DD ED C5r00s00
   0A78 DD ED C5r00s00     4785 	divu	hl,(sp+offsetx)		;DD ED C5r00s00
   0A7D FD ED CDr00s00     4786 	divu	hl,lxofx(ix)		;FD ED CDr00s00
   0A82 FD ED CDr00s00     4787 	divu	hl,(ix+lxofx)		;FD ED CDr00s00
   0A87 FD ED D5r00s00     4788 	divu	hl,lxofx(iy)		;FD ED D5r00s00
   0A8C FD ED D5r00s00     4789 	divu	hl,(iy+lxofx)		;FD ED D5r00s00
   0A91 FD ED DDr00s00     4790 	divu	hl,lxofx(hl)		;FD ED DDr00s00
   0A96 FD ED DDr00s00     4791 	divu	hl,(hl+lxofx)		;FD ED DDr00s00
   0A9B DD ED C5r00s00     4792 	divu	hl,lxofx(sp)		;DD ED C5r00s00
   0AA0 DD ED C5r00s00     4793 	divu	hl,(sp+lxofx)		;DD ED C5r00s00
   0AA5 FD ED F5 00        4851 	divu	hl,(iy)			;FD ED F5 00
   0AA9 DD ED F5 00        4852 	divu	hl,(ix)			;DD ED F5 00
   0AAD ED F5              4853 	divu	hl,(hl)			;ED F5
   0AAF FD ED C5p00q00     4859 	divu	hl,divu01(pc)		;FD ED C5p00q00
   0AB4 FD ED C5p00q00     4863 	divu	hl,(pc+divu02)		;FD ED C5p00q00
   0AB9 FD ED C5p00q00     4867 	divu	hl,[divu03]		;FD ED C5p00q00
   0ABE FD ED C5 50 00     4937 	divu	hl,[.+offsetc]		;FD ED C5 50 00
   0AC3 DD ED CD           4938 	divu	hl,(hl+ix)		;DD ED CD
   0AC6 DD ED D5           4939 	divu	hl,(hl+iy)		;DD ED D5
   0AC9 DD ED DD           4940 	divu	hl,(ix+iy)		;DD ED DD
                           4941 
                           4942 ;*******************************************************************
                           4943 ;	DIVUW	
                           4944 ;*******************************************************************
                           4945 	;***********************************************************
                           4946 	;  p. 5-39	DIVUW(word)
                           4947 	.z280
   0ACC ED CB              4948 	divuw	dehl,bc			;ED CB
   0ACE ED DB              4949 	divuw	dehl,de			;ED DB
   0AD0 ED EB              4950 	divuw	dehl,hl			;ED EB
   0AD2 ED FB              4951 	divuw	dehl,sp			;ED FB
   0AD4 DD ED EB           4952 	divuw	dehl,ix			;DD ED EB
   0AD7 FD ED EB           4953 	divuw	dehl,iy			;FD ED EB
   0ADA DD ED CB           4954 	divuw	dehl,(hl)		;DD ED CB
   0ADD FD ED CB 00 00     4955 	divuw	dehl,(ix)		;FD ED CB 00 00
   0AE2 FD ED DB 00 00     4956 	divuw	dehl,(iy)		;FD ED DB 00 00
   0AE7 FD ED FBr00s00     4961     	divuw	dehl,#nx			;FD ED FBr00s00
   0AEC FD ED FBr00s00     4962 	divuw	dehl,#nnx		;FD ED FBr00s00
   0AF1 DD ED DBr00s00     4963 	divuw	dehl,(daddx)		;DD ED DBr00s00
   0AF6 FD ED CBr00s00     4964 	divuw	dehl,(ix+offsetx)	;FD ED CBr00s00
   0AFB FD ED CBr00s00     4965 	divuw	dehl,offsetx(ix)		;FD ED CBr00s00
   0B00 FD ED DBr00s00     4966 	divuw	dehl,(iy+offsetx)	;FD ED DBr00s00
   0B05 FD ED DBr00s00     4967 	divuw	dehl,offsetx(iy)		;FD ED DBr00s00
   0B0A FD ED CBr00s00     4968 	divuw	dehl,(ix+lxofx)		;FD ED CBr00s00
   0B0F FD ED CBr00s00     4969 	divuw	dehl,lxofx(ix)		;FD ED CBr00s00
   0B14 FD ED DBr00s00     4970 	divuw	dehl,(iy+lxofx)		;FD ED DBr00s00
   0B19 FD ED DBr00s00     4971 	divuw	dehl,lxofx(iy)		;FD ED DBr00s00
   0B1E FD ED CB 00 00     5004 	divuw	dehl,(ix)		;FD ED CB 00 00
   0B23 FD ED DB 00 00     5005 	divuw	dehl,(iy)		;FD ED DB 00 00
   0B28 DD ED CB           5006 	divuw	dehl,(hl)		;DD ED CB
   0B2B DD ED FBp00q00     5012 	divuw	dehl,divuw01(pc)		;DD ED FBp00q00
   0B30 DD ED FBp00q00     5016 	divuw	dehl,(pc+divuw02)		;DD ED FBp00q00
   0B35 DD ED FBp00q00     5020 	divuw	dehl,[divuw03]			;DD ED FBp00q00
   0B3A DD ED FB 50 00     5090 	divuw	dehl,[.+offsetc]	;DD ED FB 50 00
                           5091 
                           5092 ;*******************************************************************
                           5093 ;	DIVW	
                           5094 ;*******************************************************************
                           5095 	;***********************************************************
                           5096 	;  p. 5-41	DIVW(word)
                           5097 	.z280
   0B3F ED CA              5098 	divw	dehl,bc			;ED CA
   0B41 ED DA              5099 	divw	dehl,de			;ED DA
   0B43 ED EA              5100 	divw	dehl,hl			;ED EA
   0B45 ED FA              5101 	divw	dehl,sp			;ED FA
   0B47 DD ED EA           5102 	divw	dehl,ix			;DD ED EA
   0B4A FD ED EA           5103 	divw	dehl,iy			;FD ED EA
   0B4D DD ED CA           5104 	divw	dehl,(hl)		;DD ED CA
   0B50 FD ED CA 00 00     5105 	divw	dehl,(ix)		;FD ED CA 00 00
   0B55 FD ED DA 00 00     5106 	divw	dehl,(iy)		;FD ED DA 00 00
   0B5A FD ED FAr00s00     5111 	divw	dehl,#nx			;FD ED FAr00s00
   0B5F FD ED FAr00s00     5112 	divw	dehl,#nnx		;FD ED FAr00s00
   0B64 DD ED DAr00s00     5113 	divw	dehl,(daddx)		;DD ED DAr00s00
   0B69 FD ED CAr00s00     5114 	divw	dehl,(ix+offsetx)	;FD ED CAr00s00
   0B6E FD ED CAr00s00     5115 	divw	dehl,offsetx(ix)		;FD ED CAr00s00
   0B73 FD ED DAr00s00     5116 	divw	dehl,(iy+offsetx)	;FD ED DAr00s00
   0B78 FD ED DAr00s00     5117 	divw	dehl,offsetx(iy)		;FD ED DAr00s00
   0B7D FD ED CAr00s00     5118 	divw	dehl,(ix+lxofx)		;FD ED CAr00s00
   0B82 FD ED CAr00s00     5119 	divw	dehl,lxofx(ix)		;FD ED CAr00s00
   0B87 FD ED DAr00s00     5120 	divw	dehl,(iy+lxofx)		;FD ED DAr00s00
   0B8C FD ED DAr00s00     5121 	divw	dehl,lxofx(iy)		;FD ED DAr00s00
   0B91 FD ED CA 00 00     5154 	divw	dehl,(ix)		;FD ED CA 00 00
   0B96 FD ED DA 00 00     5155 	divw	dehl,(iy)		;FD ED DA 00 00
   0B9B DD ED CA           5156 	divw	dehl,(hl)		;DD ED CA
   0B9E DD ED FAp00q00     5162 	divw	dehl,divw01(pc)			;DD ED FAp00q00
   0BA3 DD ED FAp00q00     5166 	divw	dehl,(pc+divw02)		;DD ED FAp00q00
   0BA8 DD ED FAp00q00     5170 	divw	dehl,[divw03]			;DD ED FAp00q00
   0BAD DD ED FA 50 00     5240 	divw	dehl,[.+offsetc]	;DD ED FA 50 00
                           5241 
                           5242 ;*******************************************************************
                           5243 ;	DJNZ	
                           5244 ;*******************************************************************
                           5245 	.z80
                           5246 	;***********************************************************
                           5247 	; decrement b and jump relative if b # 0
   0BB2 10 10              5248 	djnz	.+0x12			;10 10
                           5249 
                           5250 ;*******************************************************************
                           5251 ;	EI	
                           5252 ;*******************************************************************
                           5253 	;***********************************************************
                           5254 	; enable interrupts
                           5255 	.z80
   0BB4 FB                 5256 	ei				;FB
                           5257 	.z180
   0BB5 FB                 5258 	ei				;FB
                           5259 	;***********************************************************
                           5260 	;  p. 5-44
                           5261 	.z280p
   0BB6 FB                 5262 	ei				;FB
   0BB7 ED 7F 37           5263 	ei	#0x37			;ED 7F 37
                           5264 
                           5265 ;*******************************************************************
                           5266 ;	EX	
                           5267 ;		If offset is ommitted 0 is assumed.
                           5268 ;*******************************************************************
                           5269 	;***********************************************************
                           5270 	; exchange location and (sp)
                           5271 	.z80
   0BBA E3                 5272 	ex	(sp),hl			;E3
   0BBB DD E3              5273 	ex	(sp),ix			;DD E3
   0BBD FD E3              5274 	ex	(sp),iy			;FD E3
                           5275 	;***********************************************************
                           5276 	; exchange af and af'
   0BBF 08                 5277 	ex	af,af'			;08
                           5278 	;***********************************************************
                           5279 	; exchange de and hl
   0BC0 EB                 5280 	ex	de,hl			;EB
                           5281 	;***********************************************************
                           5282 	;  p. 5-47
                           5283 	.z280
   0BC1 ED EF              5284 	ex	h,l			;ED EF
                           5285 	;  p. 5-48
   0BC3 DD EB              5286 	ex	ix,hl			;DD EB
   0BC5 FD EB              5287 	ex	iy,hl			;FD EB
   0BC7 FD EB              5288 	ex	hl,iy			;FD EB
   0BC9 DD EB              5289 	ex	hl,ix			;DD EB
                           5290 	; p. 5-49
   0BCB ED 3F              5291 	ex	a,a			;ED 3F
   0BCD ED 07              5292 	ex	a,b			;ED 07
   0BCF ED 0F              5293 	ex	a,c			;ED 0F
   0BD1 ED 17              5294 	ex	a,d			;ED 17
   0BD3 ED 1F              5295 	ex	a,e			;ED 1F
   0BD5 ED 27              5296 	ex	a,h			;ED 27
   0BD7 ED 2F              5297 	ex	a,l			;ED 2F
   0BD9 DD ED 27           5298 	ex	a,ixh			;DD ED 27
   0BDC DD ED 2F           5299 	ex	a,ixl			;DD ED 2F
   0BDF FD ED 27           5300 	ex	a,iyh			;FD ED 27
   0BE2 FD ED 2F           5301 	ex	a,iyl			;FD ED 2F
   0BE5 ED 37              5302 	ex	a,(hl)			;ED 37
   0BE7 DD ED 3Fr00s00     5307 	ex	a,(daddx)		;DD ED 3Fr00s00
   0BEC FD ED 0Fr00s00     5308 	ex	a,offsetx(ix)		;FD ED 0Fr00s00
   0BF1 FD ED 0Fr00s00     5309 	ex	a,(ix+offsetx)		;FD ED 0Fr00s00
   0BF6 FD ED 17r00s00     5310 	ex	a,offsetx(iy)		;FD ED 17r00s00
   0BFB FD ED 17r00s00     5311 	ex	a,(iy+offsetx)		;FD ED 17r00s00
   0C00 FD ED 1Fr00s00     5312 	ex	a,offsetx(hl)		;FD ED 1Fr00s00
   0C05 FD ED 1Fr00s00     5313 	ex	a,(hl+offsetx)		;FD ED 1Fr00s00
   0C0A DD ED 07r00s00     5314 	ex	a,offsetx(sp)		;DD ED 07r00s00
   0C0F DD ED 07r00s00     5315 	ex	a,(sp+offsetx)		;DD ED 07r00s00
   0C14 FD ED 0Fr00s00     5316 	ex	a,lxofx(ix)		;FD ED 0Fr00s00
   0C19 FD ED 0Fr00s00     5317 	ex	a,(ix+lxofx)		;FD ED 0Fr00s00
   0C1E FD ED 17r00s00     5318 	ex	a,lxofx(iy)		;FD ED 17r00s00
   0C23 FD ED 17r00s00     5319 	ex	a,(iy+lxofx)		;FD ED 17r00s00
   0C28 FD ED 1Fr00s00     5320 	ex	a,lxofx(hl)		;FD ED 1Fr00s00
   0C2D FD ED 1Fr00s00     5321 	ex	a,(hl+lxofx)		;FD ED 1Fr00s00
   0C32 DD ED 07r00s00     5322 	ex	a,lxofx(sp)		;DD ED 07r00s00
   0C37 DD ED 07r00s00     5323 	ex	a,(sp+lxofx)		;DD ED 07r00s00
   0C3C DD ED 37 00        5381 	ex	a,(ix)			;DD ED 37 00
   0C40 FD ED 37 00        5382 	ex	a,(iy)			;FD ED 37 00
                           5383 ;	ex	a,(hl)			;FD ED 1F 00 00
   0C44 FD ED 07p00q00     5389 	ex	a,ex01(pc)		;FD ED 07p00q00
   0C49 FD ED 07p00q00     5393 	ex	a,(pc+ex02)		;FD ED 07p00q00
   0C4E FD ED 07p00q00     5397 	ex	a,[ex03]		;FD ED 07p00q00
   0C53 FD ED 07 D9 EE     5467 	ex	a,[.-lxofc]		;FD ED 07 D9 EE
   0C58 DD ED 0F           5468 	ex	a,(hl+ix)		;DD ED 0F
   0C5B DD ED 17           5469 	ex	a,(hl+iy)		;DD ED 17
   0C5E DD ED 1F           5470 	ex	a,(ix+iy)		;DD ED 1F
                           5471 
                           5472 ;*******************************************************************
                           5473 ;	EXTS	
                           5474 ;*******************************************************************
                           5475 	;***********************************************************
                           5476 	;  extend sign  a->hl,   hl->dehl
                           5477 	;  pp. 5-50, 5-51
   0C61 ED 64              5478 	exts				;ED 64
   0C63 ED 64              5479 	exts	a			;ED 64
   0C65 ED 6C              5480 	exts	hl			;ED 6C
                           5481 
                           5482 ;*******************************************************************
                           5483 ;	EXX	
                           5484 ;*******************************************************************
                           5485 	;***********************************************************
                           5486 	; exchange:
                           5487 	;	bc <-> bc'
                           5488 	;	de <-> de'
                           5489 	;	hl <-> hl'
                           5490 	.z80
   0C67 D9                 5491 	exx				;D9
                           5492 
                           5493 ;*******************************************************************
                           5494 ;	HALT	
                           5495 ;*******************************************************************
                           5496 	;***********************************************************
                           5497 	; halt (wait for interrupt or reset)
                           5498 	.z80
   0C68 76                 5499 	halt				;76
                           5500 
                           5501 ;*******************************************************************
                           5502 ;	IM	
                           5503 ;*******************************************************************
                           5504 	;***********************************************************
                           5505 	; set interrupt mode
                           5506 	.z80
   0C69 ED 46              5507 	im	0			;ED 46
   0C6B ED 56              5508 	im	1			;ED 56
   0C6D ED 5E              5509 	im	2			;ED 5E
                           5510 	.z280p
   0C6F ED 4E              5511 	im	3			;ED 4E
                           5512 
                           5513 ;*******************************************************************
                           5514 ;	IN and INW	
                           5515 ;*******************************************************************
                           5516 	;***********************************************************
                           5517 	; load 'a' with input from device n
                           5518 	.z80
   0C71 DBr00              5523 	in	a,(nx)			;DBr00
   0C73 DB 33              5536 	in	a,0x33			;DB 33
                           5537 	;***********************************************************
                           5538 	; load register with input from (c)
   0C75 ED 78              5539 	in	a,(c)			;ED 78
   0C77 ED 40              5540 	in	b,(c)			;ED 40
   0C79 ED 48              5541 	in	c,(c)			;ED 48
   0C7B ED 50              5542 	in	d,(c)			;ED 50
   0C7D ED 58              5543 	in	e,(c)			;ED 58
   0C7F ED 60              5544 	in	h,(c)			;ED 60
   0C81 ED 68              5545 	in	l,(c)			;ED 68
                           5546 	;***********************************************************
                           5547 	;  p. 5-55
                           5548 	.z280
   0C83 DD ED 60           5549 	in	ixh,(c)			;DD ED 60
   0C86 DD ED 68           5550 	in	ixl,(c)			;DD ED 68
   0C89 FD ED 60           5551 	in	iyh,(c)			;FD ED 60
   0C8C FD ED 68           5552 	in	iyl,(c)			;FD ED 68
   0C8F DD ED 78r00s00     5557 	in	(daddx),(c)		;DD ED 78r00s00
   0C94 FD ED 48r00s00     5558 	in	offsetx(ix),(c)		;FD ED 48r00s00
   0C99 FD ED 48r00s00     5559 	in	(ix+offsetx),(c)		;FD ED 48r00s00
   0C9E FD ED 50r00s00     5560 	in	offsetx(iy),(c)		;FD ED 50r00s00
   0CA3 FD ED 50r00s00     5561 	in	(iy+offsetx),(c)		;FD ED 50r00s00
   0CA8 FD ED 58r00s00     5562 	in	offsetx(hl),(c)		;FD ED 58r00s00
   0CAD FD ED 58r00s00     5563 	in	(hl+offsetx),(c)		;FD ED 58r00s00
   0CB2 DD ED 40r00s00     5564 	in	offsetx(sp),(c)		;DD ED 40r00s00
   0CB7 DD ED 40r00s00     5565 	in	(sp+offsetx),(c)		;DD ED 40r00s00
   0CBC FD ED 48r00s00     5566 	in	lxofx(ix),(c)		;FD ED 48r00s00
   0CC1 FD ED 48r00s00     5567 	in	(ix+lxofx),(c)		;FD ED 48r00s00
   0CC6 FD ED 50r00s00     5568 	in	lxofx(iy),(c)		;FD ED 50r00s00
   0CCB FD ED 50r00s00     5569 	in	(iy+lxofx),(c)		;FD ED 50r00s00
   0CD0 FD ED 58r00s00     5570 	in	lxofx(hl),(c)		;FD ED 58r00s00
   0CD5 FD ED 58r00s00     5571 	in	(hl+lxofx),(c)		;FD ED 58r00s00
   0CDA DD ED 40r00s00     5572 	in	lxofx(sp),(c)		;DD ED 40r00s00
   0CDF DD ED 40r00s00     5573 	in	(sp+lxofx),(c)		;DD ED 40r00s00
   0CE4 FD ED 40p00q00     5623 	in	in01(pc),(c)		;FD ED 40p00q00
   0CE9 FD ED 40p00q00     5627 	in	(pc+in02),(c)		;FD ED 40p00q00
   0CEE FD ED 40p00q00     5631 	in	[in03],(c)		;FD ED 40p00q00
   0CF3 FD ED 40 50 00     5701 	in	[.+offsetc],(c)		;FD ED 40 50 00
   0CF8 DD ED 48           5702 	in	(ix+hl),(c)		;DD ED 48
   0CFB DD ED 50           5703 	in	(hl+iy),(c)		;DD ED 50
   0CFE DD ED 58           5704 	in	(iy+ix),(c)		;DD ED 58
                           5705 	;***********************************************************
                           5706 	;  p. 5-65
   0D01 ED B7              5707 	in	hl,(c)			;ED B7
   0D03 ED B7              5708 	inw	hl,(c)			;ED B7
                           5709 
                           5710 ;*******************************************************************
                           5711 ;	INC	
                           5712 ;		If offset is ommitted 0 is assumed.
                           5713 ;*******************************************************************
                           5714 	;***********************************************************
                           5715 	; increment operand
                           5716 	.z80
   0D05 34                 5717 	inc	(hl)			;34
   0D06 DD 34r00           5722 	inc	offsetx(ix)		;DD 34r00
   0D09 DD 34r00           5723 	inc	(ix+offsetx)		;DD 34r00
   0D0C FD 34r00           5724 	inc	offsetx(iy)		;FD 34r00
   0D0F FD 34r00           5725 	inc	(iy+offsetx)		;FD 34r00
   0D12 3C                 5744 	inc	a			;3C
   0D13 04                 5745 	inc	b			;04
   0D14 03                 5746 	inc	bc			;03
   0D15 0C                 5747 	inc	c			;0C
   0D16 14                 5748 	inc	d			;14
   0D17 13                 5749 	inc	de			;13
   0D18 1C                 5750 	inc	e			;1C
   0D19 24                 5751 	inc	h			;24
   0D1A 23                 5752 	inc	hl			;23
   0D1B DD 23              5753 	inc	ix			;DD 23
   0D1D FD 23              5754 	inc	iy			;FD 23
   0D1F 2C                 5755 	inc	l			;2C
   0D20 33                 5756 	inc	sp			;33
                           5757 
   0D21 03                 5758 	incw	bc			;03
   0D22 13                 5759 	incw	de			;13
   0D23 23                 5760 	incw	hl			;23
   0D24 33                 5761 	incw	sp			;33
                           5762 
                           5763 	;***********************************************************
                           5764 	; increment operand
                           5765 	;  p. 5-57
                           5766 	.z280
   0D25 DD 24              5767 	inc	ixh			;DD 24
   0D27 DD 2C              5768 	inc	ixl			;DD 2C
   0D29 FD 24              5769 	inc	iyh			;FD 24
   0D2B FD 2C              5770 	inc 	iyl			;FD 2C
   0D2D DD 3Cr00s00        5775 	inc	(daddx)			;DD 3Cr00s00
   0D31 FD 0Cr00s00        5776 	inc	offsetx(ix)		;FD 0Cr00s00
   0D35 FD 0Cr00s00        5777 	inc	(ix+offsetx)		;FD 0Cr00s00
   0D39 FD 14r00s00        5778 	inc	offsetx(iy)		;FD 14r00s00
   0D3D FD 14r00s00        5779 	inc	(iy+offsetx)		;FD 14r00s00
   0D41 FD 1Cr00s00        5780 	inc	offsetx(hl)		;FD 1Cr00s00
   0D45 FD 1Cr00s00        5781 	inc	(hl+offsetx)		;FD 1Cr00s00
   0D49 DD 04r00s00        5782 	inc	offsetx(sp)		;DD 04r00s00
   0D4D DD 04r00s00        5783 	inc	(sp+offsetx)		;DD 04r00s00
   0D51 FD 0Cr00s00        5784 	inc	lxofx(ix)		;FD 0Cr00s00
   0D55 FD 0Cr00s00        5785 	inc	(ix+lxofx)		;FD 0Cr00s00
   0D59 FD 14r00s00        5786 	inc	lxofx(iy)		;FD 14r00s00
   0D5D FD 14r00s00        5787 	inc	(iy+lxofx)		;FD 14r00s00
   0D61 FD 1Cr00s00        5788 	inc	lxofx(hl)		;FD 1Cr00s00
   0D65 FD 1Cr00s00        5789 	inc	(hl+lxofx)		;FD 1Cr00s00
   0D69 DD 04r00s00        5790 	inc	lxofx(sp)		;DD 04r00s00
   0D6D DD 04r00s00        5791 	inc	(sp+lxofx)		;DD 04r00s00
   0D71 FD 04p00q00        5854 	inc	inc01(pc)		;FD 04p00q00
   0D75 FD 04p00q00        5858 	inc	(pc+inc02)		;FD 04p00q00
   0D79 FD 04p00q00        5862 	inc	[inc03]			;FD 04p00q00
   0D7D FD 04 51 00        5932 	inc	[.+offsetc]		;FD 04 51 00
   0D81 DD 0C              5933 	inc	(hl+ix)			;DD 0C
   0D83 DD 14              5934 	inc	(hl+iy)			;DD 14
   0D85 DD 1C              5935 	inc	(ix+iy)			;DD 1C
                           5936 
                           5937 ;*******************************************************************
                           5938 ;	INCW	
                           5939 ;		If offset is ommitted 0 is assumed.
                           5940 ;*******************************************************************
                           5941 	;***********************************************************
                           5942 	; increment word operand
   0D87 03                 5943 	incw	bc			;03
   0D88 13                 5944 	incw	de			;13
   0D89 23                 5945 	incw	hl			;23
   0D8A 33                 5946 	incw	sp			;33
   0D8B DD 23              5947 	incw	ix			;DD 23
   0D8D FD 23              5948 	incw	iy			;FD 23
                           5949 
   0D8F DD 03              5950 	incw	(hl)			;DD 03
   0D91 DD 13r00s00        5955 	incw	(daddx)			;DD 13r00s00
   0D95 FD 03r00s00        5956 	incw	offsetx(ix)		;FD 03r00s00
   0D99 FD 03r00s00        5957 	incw	(ix+offsetx)		;FD 03r00s00
   0D9D FD 13r00s00        5958 	incw	lxofx(iy)		;FD 13r00s00
   0DA1 FD 13r00s00        5959 	incw	(iy+lxofx)		;FD 13r00s00
   0DA5 DD 33p00q00        5985 	incw	incw01(pc)		;DD 33p00q00
   0DA9 DD 33p00q00        5989 	incw	(pc+incw02)		;DD 33p00q00
   0DAD DD 33p00q00        5993 	incw	[incw03]		;DD 33p00q00
   0DB1 DD 33 30 12        6063 	incw	[.+raofc]		;DD 33 30 12
                           6064 
                           6065 ;*******************************************************************
                           6066 ;	IND	
                           6067 ;*******************************************************************
                           6068 	;***********************************************************
                           6069 	; load location (hl) with input
                           6070 	; from port (c)
                           6071 	; decrement 'hl' and 'b'
                           6072 	.z80
   0DB5 ED AA              6073 	ind				;ED AA
                           6074 
                           6075 ;*******************************************************************
                           6076 ;	INDR	
                           6077 ;*******************************************************************
                           6078 	;***********************************************************
                           6079 	; load location (hl) with input
                           6080 	; from port (c)
                           6081 	; decrement 'hl' and 'b'
                           6082 	; repeat until 'b' = 0
                           6083 	.z80
   0DB7 ED BA              6084 	indr				;ED BA
                           6085 
                           6086 ;*******************************************************************
                           6087 ;	INI	
                           6088 ;*******************************************************************
                           6089 	;***********************************************************
                           6090 	; load location (hl) with input
                           6091 	; from port (c)
                           6092 	; increment 'hl' and decrement 'b'
                           6093 	.z80
   0DB9 ED A2              6094 	ini				;ED A2
                           6095 
                           6096 ;*******************************************************************
                           6097 ;	INIR	
                           6098 ;*******************************************************************
                           6099 	;***********************************************************
                           6100 	; load location (hl) with input
                           6101 	; from port (c)
                           6102 	; increment 'hl' and decrement 'b'
                           6103 	; repeat until 'b' = 0
                           6104 	.z80
   0DBB ED B2              6105 	inir				;ED B2
                           6106 
                           6107 ;*******************************************************************
                           6108 ;	INDW, INDR, INIW, and INIRW	
                           6109 ;*******************************************************************
                           6110 	;***********************************************************
                           6111 	.z280
   0DBD ED 8A              6112 jmp1:	indw				;ED 8A
   0DBF ED 9A              6113 	indrw				;ED 9A
   0DC1 ED 82              6114 	iniw				;ED 82
   0DC3 ED 92              6115 	inirw				;ED 92
                           6116 
                           6117 ;*******************************************************************
                           6118 ;	JAF	
                           6119 ;*******************************************************************
                           6120 	;***********************************************************
                           6121  	; jump on auxiliary accumulator/flag (AF)
                           6122 	;  p. 5-66
   0DC5 DD 28 F5           6123 	jaf	jmp1			;DD 28 F5
                           6124 
                           6125 ;*******************************************************************
                           6126 ;	JAR	
                           6127 ;*******************************************************************
                           6128 	;***********************************************************
                           6129 	; jump on auxiliary register set
                           6130 	;  p. 5-67
                           6131 	.z280
   0DC8 DD 20 F2           6132 	jar	jmp1			;DD 20 F2
                           6133 
                           6134 ;*******************************************************************
                           6135 ;	JP	
                           6136 ;*******************************************************************
                           6137 	;***********************************************************
                           6138 	; unconditional jump to location nn
                           6139 	.z80
   0DCB E9                 6140 	jp	(hl)			;E9
   0DCC DD E9              6141 	jp	(ix)			;DD E9
   0DCE FD E9              6142 	jp	(iy)			;FD E9
                           6143 	;***********************************************************
                           6144 	; jump to location if condition is true
   0DD0 C3r00s00           6149 	jp	nnx			;C3r00s00
   0DD3 DAr00s00           6150 	jp	C,nnx			;DAr00s00
   0DD6 FAr00s00           6151 	jp	M,nnx			;FAr00s00
   0DD9 D2r00s00           6152 	jp	NC,nnx			;D2r00s00
   0DDC C2r00s00           6153 	jp	NZ,nnx			;C2r00s00
   0DDF F2r00s00           6154 	jp	P,nnx			;F2r00s00
   0DE2 EAr00s00           6155 	jp	PE,nnx			;EAr00s00
   0DE5 E2r00s00           6156 	jp	PO,nnx			;E2r00s00
   0DE8 CAr00s00           6157 	jp	Z,nnx			;CAr00s00
                           6186 	;***********************************************************
                           6187 	;  p. 5-68
                           6188 	.z280
   0DEB DD C2              6189 	jp	nz,(hl)			;DD C2
   0DED DD CA              6190 	jp	z,(hl)			;DD CA
   0DEF DD D2              6191 	jp	nc,(hl)			;DD D2
   0DF1 DD DA              6192 	jp	c,(hl)			;DD DA
   0DF3 DD E2              6193 	jp	nv,(hl)			;DD E2
   0DF5 DD EA              6194 	jp	v,(hl)			;DD EA
   0DF7 DD F2              6195 	jp	ns,(hl)			;DD F2
   0DF9 DD FA              6196 	jp	s,(hl)			;DD FA
   0DFB DD E2              6197 	jp	po,(hl)			;DD E2
   0DFD DD EA              6198 	jp	pe,(hl)			;DD EA
   0DFF DD F2              6199 	jp	p,(hl)			;DD F2
   0E01 DD FA              6200 	jp	m,(hl)			;DD FA
                           6201 	; long relative jumps
   0E03 FD C3 B6 FF        6202 	jp	[jmp1]			;FD C3 B6 FF
   0E07 FD C2 B2 FF        6203 	jp	nz,[jmp1]		;FD C2 B2 FF
   0E0B FD CA AE FF        6204 	jp	z,[jmp1]		;FD CA AE FF
   0E0F FD F2 AA FF        6205 	jp	p,[jmp1]		;FD F2 AA FF
   0E13 FD FA A6 FF        6206 	jp	m,[jmp1]		;FD FA A6 FF
   0E17 FD C3p00q00        6212 	jp	jp01(pc)		;FD C3p00q00
   0E1B FD C3p00q00        6216 	jp	(pc+jp02)		;FD C3p00q00
   0E1F FD C3p00q00        6220 	jp	[jp03]			;FD C3p00q00
   0E23 FD C3 51 00        6290 	jp	[.+offsetc]		;FD C3 51 00
                           6291 
                           6292 ;*******************************************************************
                           6293 ;	JR	
                           6294 ;*******************************************************************
                           6295 	;***********************************************************
                           6296 	; unconditional jump relative to PC+e
   0E27 18 10              6297 	jr	ljr1+0x10		;18 10
                           6298 	.z80
                           6299 	;***********************************************************
                           6300 	; jump relative to PC+e if condition is true
   0E29 38 10              6301 ljr1:	jr	C,1$+0x10		;38 10
   0E2B 30 10              6302 1$:	jr	NC,2$+0x10		;30 10
   0E2D 20 10              6303 2$:	jr	NZ,3$+0x10		;20 10
   0E2F 28 10              6304 3$:	jr	Z,4$+0x10		;28 10
   0E31                    6305 4$:	
   0E31 18 F6              6306 ljr2:	jr	ljr1			;18 F6
                           6307 
   0E33 38p00              6315 xjr_1::	jr	C, jr_1			;38p00
   0E35 30p00              6316 xjr_2::	jr	NC,jr_2			;30p00
   0E37 20p00              6317 xjr_3::	jr	NZ,jr_3			;20p00
   0E39 28p00              6318 xjr_4::	jr	Z, jr_4			;28p00
                           6342 
                           6343 ;*******************************************************************
                           6344 ;	LD	
                           6345 ;		Leading 'a' operand is optional.
                           6346 ;		If offset is ommitted 0 is assumed.
                           6347 ;*******************************************************************
                           6348 	;***********************************************************
                           6349 	; load source to destination
                           6350 	.z80
   0E3B 7E                 6351 	ld	a,(hl)			;7E
   0E3C DD 7Er00           6356 	ld	a,offsetx(ix)		;DD 7Er00
   0E3F DD 7Er00           6357 	ld	a,(ix+offsetx)		;DD 7Er00
   0E42 FD 7Er00           6358 	ld	a,offsetx(iy)		;FD 7Er00
   0E45 FD 7Er00           6359 	ld	a,(iy+offsetx)		;FD 7Er00
   0E48 7F                 6378 	ld	a,a			;7F
   0E49 78                 6379 	ld	a,b			;78
   0E4A 79                 6380 	ld	a,c			;79
   0E4B 7A                 6381 	ld	a,d			;7A
   0E4C 7B                 6382 	ld	a,e			;7B
   0E4D 7C                 6383 	ld	a,h			;7C
   0E4E 7D                 6384 	ld	a,l			;7D
   0E4F 3Er00              6389 	ld	a,#nx			;3Er00
   0E51 3Er00              6390 	ld	a, nx			;3Er00
   0E53 46                 6405 	ld	b,(hl)			;46
   0E54 DD 46r00           6410 	ld	b,offsetx(ix)		;DD 46r00
   0E57 DD 46r00           6411 	ld	b,(ix+offsetx)		;DD 46r00
   0E5A FD 46r00           6412 	ld	b,offsetx(iy)		;FD 46r00
   0E5D FD 46r00           6413 	ld	b,(iy+offsetx)		;FD 46r00
   0E60 47                 6432 	ld	b,a			;47
   0E61 40                 6433 	ld	b,b			;40
   0E62 41                 6434 	ld	b,c			;41
   0E63 42                 6435 	ld	b,d			;42
   0E64 43                 6436 	ld	b,e			;43
   0E65 44                 6437 	ld	b,h			;44
   0E66 45                 6438 	ld	b,l			;45
   0E67 06r00              6443 	ld	b,#nx			;06r00
   0E69 06r00              6444 	ld	b, nx			;06r00
   0E6B 4E                 6459 	ld	c,(hl)			;4E
   0E6C DD 4Er00           6464 	ld	c,offsetx(ix)		;DD 4Er00
   0E6F DD 4Er00           6465 	ld	c,(ix+offsetx)		;DD 4Er00
   0E72 FD 4Er00           6466 	ld	c,offsetx(iy)		;FD 4Er00
   0E75 FD 4Er00           6467 	ld	c,(iy+offsetx)		;FD 4Er00
   0E78 4F                 6486 	ld	c,a			;4F
   0E79 48                 6487 	ld	c,b			;48
   0E7A 49                 6488 	ld	c,c			;49
   0E7B 4A                 6489 	ld	c,d			;4A
   0E7C 4B                 6490 	ld	c,e			;4B
   0E7D 4C                 6491 	ld	c,h			;4C
   0E7E 4D                 6492 	ld	c,l			;4D
   0E7F 0Er00              6497 	ld	c,#nx			;0Er00
   0E81 0Er00              6498 	ld	c, nx			;0Er00
   0E83 56                 6513 	ld	d,(hl)			;56
   0E84 DD 56r00           6518 	ld	d,offsetx(ix)		;DD 56r00
   0E87 DD 56r00           6519 	ld	d,(ix+offsetx)		;DD 56r00
   0E8A FD 56r00           6520 	ld	d,offsetx(iy)		;FD 56r00
   0E8D FD 56r00           6521 	ld	d,(iy+offsetx)		;FD 56r00
   0E90 57                 6540 	ld	d,a			;57
   0E91 50                 6541 	ld	d,b			;50
   0E92 51                 6542 	ld	d,c			;51
   0E93 52                 6543 	ld	d,d			;52
   0E94 53                 6544 	ld	d,e			;53
   0E95 54                 6545 	ld	d,h			;54
   0E96 55                 6546 	ld	d,l			;55
   0E97 16r00              6551 	ld	d,#nx			;16r00
   0E99 16r00              6552 	ld	d, nx			;16r00
   0E9B 5E                 6567 	ld	e,(hl)			;5E
   0E9C DD 5Er00           6572 	ld	e,offsetx(ix)		;DD 5Er00
   0E9F DD 5Er00           6573 	ld	e,(ix+offsetx)		;DD 5Er00
   0EA2 FD 5Er00           6574 	ld	e,offsetx(iy)		;FD 5Er00
   0EA5 FD 5Er00           6575 	ld	e,(iy+offsetx)		;FD 5Er00
   0EA8 5F                 6594 	ld	e,a			;5F
   0EA9 58                 6595 	ld	e,b			;58
   0EAA 59                 6596 	ld	e,c			;59
   0EAB 5A                 6597 	ld	e,d			;5A
   0EAC 5B                 6598 	ld	e,e			;5B
   0EAD 5C                 6599 	ld	e,h			;5C
   0EAE 5D                 6600 	ld	e,l			;5D
   0EAF 1Er00              6605 	ld	e,#nx			;1Er00
   0EB1 1Er00              6606 	ld	e, nx			;1Er00
   0EB3 66                 6621 	ld	h,(hl)			;66
   0EB4 DD 66r00           6626 	ld	h,offsetx(ix)		;DD 66r00
   0EB7 DD 66r00           6627 	ld	h,(ix+offsetx)		;DD 66r00
   0EBA FD 66r00           6628 	ld	h,offsetx(iy)		;FD 66r00
   0EBD FD 66r00           6629 	ld	h,(iy+offsetx)		;FD 66r00
   0EC0 67                 6648 	ld	h,a			;67
   0EC1 60                 6649 	ld	h,b			;60
   0EC2 61                 6650 	ld	h,c			;61
   0EC3 62                 6651 	ld	h,d			;62
   0EC4 63                 6652 	ld	h,e			;63
   0EC5 64                 6653 	ld	h,h			;64
   0EC6 65                 6654 	ld	h,l			;65
   0EC7 26r00              6659 	ld	h,#nx			;26r00
   0EC9 26r00              6660 	ld	h, nx			;26r00
   0ECB 6E                 6675 	ld	l,(hl)			;6E
   0ECC DD 6Er00           6680 	ld	l,offsetx(ix)		;DD 6Er00
   0ECF DD 6Er00           6681 	ld	l,(ix+offsetx)		;DD 6Er00
   0ED2 FD 6Er00           6682 	ld	l,offsetx(iy)		;FD 6Er00
   0ED5 FD 6Er00           6683 	ld	l,(iy+offsetx)		;FD 6Er00
   0ED8 6F                 6702 	ld	l,a			;6F
   0ED9 68                 6703 	ld	l,b			;68
   0EDA 69                 6704 	ld	l,c			;69
   0EDB 6A                 6705 	ld	l,d			;6A
   0EDC 6B                 6706 	ld	l,e			;6B
   0EDD 6C                 6707 	ld	l,h			;6C
   0EDE 6D                 6708 	ld	l,l			;6D
   0EDF 2Er00              6713 	ld	l,#nx			;2Er00
   0EE1 2Er00              6714 	ld	l, nx			;2Er00
                           6729 	;***********************************************************
   0EE3 ED 47              6730 	ld	i,a			;ED 47
   0EE5 ED 4F              6731 	ld	r,a			;ED 4F
   0EE7 ED 57              6732 	ld	a,i			;ED 57
   0EE9 ED 5F              6733 	ld	a,r			;ED 5F
                           6734 	;***********************************************************
   0EEB 02                 6735 	ld	(bc),a			;02
   0EEC 12                 6736 	ld	(de),a			;12
   0EED 0A                 6737 	ld	a,(bc)			;0A
   0EEE 1A                 6738 	ld	a,(de)			;1A
                           6739 	;***********************************************************
   0EEF 77                 6740 	ld	(hl),a			;77
   0EF0 70                 6741 	ld	(hl),b			;70
   0EF1 71                 6742 	ld	(hl),c			;71
   0EF2 72                 6743 	ld	(hl),d			;72
   0EF3 73                 6744 	ld	(hl),e			;73
   0EF4 74                 6745 	ld	(hl),h			;74
   0EF5 75                 6746 	ld	(hl),l			;75
   0EF6 36r00              6751 	ld	(hl),#nx			;36r00
   0EF8 36r00              6752 	ld	(hl), nx			;36r00
                           6767 	;***********************************************************
   0EFA DD 77r00           6772 	ld	offsetx(ix),a		;DD 77r00
   0EFD DD 70r00           6773 	ld	offsetx(ix),b		;DD 70r00
   0F00 DD 71r00           6774 	ld	offsetx(ix),c		;DD 71r00
   0F03 DD 72r00           6775 	ld	offsetx(ix),d		;DD 72r00
   0F06 DD 73r00           6776 	ld	offsetx(ix),e		;DD 73r00
   0F09 DD 74r00           6777 	ld	offsetx(ix),h		;DD 74r00
   0F0C DD 75r00           6778 	ld	offsetx(ix),l		;DD 75r00
   0F0F DD 36r00r00        6779 	ld	offsetx(ix),#nx		;DD 36r00r00
   0F13 DD 36r00r00        6780 	ld	offsetx(ix), nx		;DD 36r00r00
                           6781 	;***********************************************************
   0F17 DD 77r00           6782 	ld	(ix+offsetx),a		;DD 77r00
   0F1A DD 70r00           6783 	ld	(ix+offsetx),b		;DD 70r00
   0F1D DD 71r00           6784 	ld	(ix+offsetx),c		;DD 71r00
   0F20 DD 72r00           6785 	ld	(ix+offsetx),d		;DD 72r00
   0F23 DD 73r00           6786 	ld	(ix+offsetx),e		;DD 73r00
   0F26 DD 74r00           6787 	ld	(ix+offsetx),h		;DD 74r00
   0F29 DD 75r00           6788 	ld	(ix+offsetx),l		;DD 75r00
   0F2C DD 36r00r00        6789 	ld	(ix+offsetx),#nx		;DD 36r00r00
   0F30 DD 36r00r00        6790 	ld	(ix+offsetx), nx		;DD 36r00r00
                           6791 	;***********************************************************
   0F34 FD 77r00           6792 	ld	offsetx(iy),a		;FD 77r00
   0F37 FD 70r00           6793 	ld	offsetx(iy),b		;FD 70r00
   0F3A FD 71r00           6794 	ld	offsetx(iy),c		;FD 71r00
   0F3D FD 72r00           6795 	ld	offsetx(iy),d		;FD 72r00
   0F40 FD 73r00           6796 	ld	offsetx(iy),e		;FD 73r00
   0F43 FD 74r00           6797 	ld	offsetx(iy),h		;FD 74r00
   0F46 FD 75r00           6798 	ld	offsetx(iy),l		;FD 75r00
   0F49 FD 36r00r00        6799 	ld	offsetx(iy),#nx		;FD 36r00r00
   0F4D FD 36r00r00        6800 	ld	offsetx(iy), nx		;FD 36r00r00
                           6801 	;***********************************************************
   0F51 FD 77r00           6802 	ld	(iy+offsetx),a		;FD 77r00
   0F54 FD 70r00           6803 	ld	(iy+offsetx),b		;FD 70r00
   0F57 FD 71r00           6804 	ld	(iy+offsetx),c		;FD 71r00
   0F5A FD 72r00           6805 	ld	(iy+offsetx),d		;FD 72r00
   0F5D FD 73r00           6806 	ld	(iy+offsetx),e		;FD 73r00
   0F60 FD 74r00           6807 	ld	(iy+offsetx),h		;FD 74r00
   0F63 FD 75r00           6808 	ld	(iy+offsetx),l		;FD 75r00
   0F66 FD 36r00r00        6809 	ld	(iy+offsetx),#nx		;FD 36r00r00
   0F6A FD 36r00r00        6810 	ld	(iy+offsetx), nx		;FD 36r00r00
                           6811 	;***********************************************************
   0F6E 32r00s00           6812 	ld	(nnx),a			;32r00s00
   0F71 ED 43r00s00        6813 	ld	(nnx),bc			;ED 43r00s00
   0F75 ED 53r00s00        6814 	ld	(nnx),de			;ED 53r00s00
   0F79 22r00s00           6815 	ld	(nnx),hl			;22r00s00
   0F7C ED 73r00s00        6816 	ld	(nnx),sp			;ED 73r00s00
   0F80 DD 22r00s00        6817 	ld	(nnx),ix			;DD 22r00s00
   0F84 FD 22r00s00        6818 	ld	(nnx),iy			;FD 22r00s00
                           6819 	;***********************************************************
   0F88 3Ar00s00           6820 	ld	a,(nnx)			;3Ar00s00
   0F8B ED 4Br00s00        6821 	ld	bc,(nnx)			;ED 4Br00s00
   0F8F ED 5Br00s00        6822 	ld	de,(nnx)			;ED 5Br00s00
   0F93 2Ar00s00           6823 	ld	hl,(nnx)			;2Ar00s00
   0F96 ED 7Br00s00        6824 	ld	sp,(nnx)			;ED 7Br00s00
   0F9A DD 2Ar00s00        6825 	ld	ix,(nnx)			;DD 2Ar00s00
   0F9E FD 2Ar00s00        6826 	ld	iy,(nnx)			;FD 2Ar00s00
                           6827 	;***********************************************************
   0FA2 01r00s00           6828 	ld	bc,#nx			;01r00s00
   0FA5 01r00s00           6829 	ld	bc, nx			;01r00s00
   0FA8 11r00s00           6830 	ld	de,#nx			;11r00s00
   0FAB 11r00s00           6831 	ld	de, nx			;11r00s00
   0FAE 21r00s00           6832 	ld	hl,#nx			;21r00s00
   0FB1 21r00s00           6833 	ld	hl, nx			;21r00s00
   0FB4 31r00s00           6834 	ld	sp,#nx			;31r00s00
   0FB7 31r00s00           6835 	ld	sp, nx			;31r00s00
   0FBA DD 21r00s00        6836 	ld	ix,#nx			;DD 21r00s00
   0FBE DD 21r00s00        6837 	ld	ix, nx			;DD 21r00s00
   0FC2 FD 21r00s00        6838 	ld	iy,#nx			;FD 21r00s00
   0FC6 FD 21r00s00        6839 	ld	iy, nx			;FD 21r00s00
                           6840 	;***********************************************************
   0FCA 01r00s00           6841 	ld	bc,#nnx			;01r00s00
   0FCD 01r00s00           6842 	ld	bc, nnx			;01r00s00
   0FD0 11r00s00           6843 	ld	de,#nnx			;11r00s00
   0FD3 11r00s00           6844 	ld	de, nnx			;11r00s00
   0FD6 21r00s00           6845 	ld	hl,#nnx			;21r00s00
   0FD9 21r00s00           6846 	ld	hl, nnx			;21r00s00
   0FDC 31r00s00           6847 	ld	sp,#nnx			;31r00s00
   0FDF 31r00s00           6848 	ld	sp, nnx			;31r00s00
   0FE2 DD 21r00s00        6849 	ld	ix,#nnx			;DD 21r00s00
   0FE6 DD 21r00s00        6850 	ld	ix, nnx			;DD 21r00s00
   0FEA FD 21r00s00        6851 	ld	iy,#nnx			;FD 21r00s00
   0FEE FD 21r00s00        6852 	ld	iy, nnx			;FD 21r00s00
                           7025 	;***********************************************************
   0FF2 F9                 7026 	ld	sp,hl			;F9
   0FF3 DD F9              7027 	ld	sp,ix			;DD F9
   0FF5 FD F9              7028 	ld	sp,iy			;FD F9
                           7029 
                           7030 	;***********************************************************
                           7031 	; p. 5-70
                           7032 	.z280
   0FF7 DD 7C              7033 	ld	a,ixh			;DD 7C
   0FF9 DD 7D              7034 	ld	a,ixl			;DD 7D
   0FFB FD 7C              7035 	ld	a,iyh			;FD 7C
   0FFD FD 7D              7036 	ld	a,iyl			;FD 7D
   0FFF 3Er00              7041     	ld	a,#nx			;3Er00
   1001 3Ar00s00           7042 	ld	a,(daddx)		;3Ar00s00
   1004 FD 79r00s00        7043 	ld	a,offsetx(ix)		;FD 79r00s00
   1008 FD 79r00s00        7044 	ld	a,(ix+offsetx)		;FD 79r00s00
   100C FD 7Ar00s00        7045 	ld	a,offsetx(iy)		;FD 7Ar00s00
   1010 FD 7Ar00s00        7046 	ld	a,(iy+offsetx)		;FD 7Ar00s00
   1014 FD 7Br00s00        7047 	ld	a,offsetx(hl)		;FD 7Br00s00
   1018 FD 7Br00s00        7048 	ld	a,(hl+offsetx)		;FD 7Br00s00
   101C DD 78r00s00        7049 	ld	a,offsetx(sp)		;DD 78r00s00
   1020 DD 78r00s00        7050 	ld	a,(sp+offsetx)		;DD 78r00s00
   1024 FD 79r00s00        7051 	ld	a,lxofx(ix)		;FD 79r00s00
   1028 FD 79r00s00        7052 	ld	a,(ix+lxofx)		;FD 79r00s00
   102C FD 7Ar00s00        7053 	ld	a,lxofx(iy)		;FD 7Ar00s00
   1030 FD 7Ar00s00        7054 	ld	a,(iy+lxofx)		;FD 7Ar00s00
   1034 FD 7Br00s00        7055 	ld	a,lxofx(hl)		;FD 7Br00s00
   1038 FD 7Br00s00        7056 	ld	a,(hl+lxofx)		;FD 7Br00s00
   103C DD 78r00s00        7057 	ld	a,lxofx(sp)		;DD 78r00s00
   1040 DD 78r00s00        7058 	ld	a,(sp+lxofx)		;DD 78r00s00
   1044 DD 7E 00           7118 	ld	a,(ix)			;DD 7E 00
   1047 FD 7E 00           7119 	ld	a,(iy)			;FD 7E 00
   104A 7E                 7120 	ld	a,(hl)			;7E
                           7121 ;	ld	a,(hl)			;FD 7B 00 00
   104B DD 78 00 00        7122 	ld	a,(sp)			;DD 78 00 00
   104F FD 78p00q00        7128 	ld	a,ld01(pc)		;FD 78p00q00
   1053 FD 78p00q00        7132 	ld	a,(pc+ld02)		;FD 78p00q00
   1057 FD 78p00q00        7136 	ld	a,[ld03]		;FD 78p00q00
   105B FD 78 1E 11        7206 	ld	a,[.+lxofc]		;FD 78 1E 11
   105F DD 79              7207 	ld	a,(hl+ix)		;DD 79
   1061 DD 7A              7208 	ld	a,(hl+iy)		;DD 7A
   1063 DD 7B              7209 	ld	a,(ix+iy)		;DD 7B
                           7210 	;***********************************************************
                           7211 	; p. 5-71
                           7212 	.z280
   1065 DD 67              7213 	ld	ixh,a			;DD 67
   1067 DD 6F              7214 	ld	ixl,a			;DD 6F
   1069 FD 67              7215 	ld	iyh,a			;FD 67
   106B FD 6F              7216 	ld	iyl,a			;FD 6F
   106D 32r00s00           7221     	ld	(daddx),a		;32r00s00
   1070 ED 2Br00s00        7222 	ld	offsetx(ix),a		;ED 2Br00s00
   1074 ED 2Br00s00        7223 	ld	(ix+offsetx),a		;ED 2Br00s00
   1078 ED 33r00s00        7224 	ld	offsetx(iy),a		;ED 33r00s00
   107C ED 33r00s00        7225 	ld	(iy+offsetx),a		;ED 33r00s00
   1080 ED 3Br00s00        7226 	ld	offsetx(hl),a		;ED 3Br00s00
   1084 ED 3Br00s00        7227 	ld	(hl+offsetx),a		;ED 3Br00s00
   1088 ED 03r00s00        7228 	ld	offsetx(sp),a		;ED 03r00s00
   108C ED 03r00s00        7229 	ld	(sp+offsetx),a		;ED 03r00s00
   1090 ED 2Br00s00        7230 	ld	lxofx(ix),a		;ED 2Br00s00
   1094 ED 2Br00s00        7231 	ld	(ix+lxofx),a		;ED 2Br00s00
   1098 ED 33r00s00        7232 	ld	lxofx(iy),a		;ED 33r00s00
   109C ED 33r00s00        7233 	ld	(iy+lxofx),a		;ED 33r00s00
   10A0 ED 3Br00s00        7234 	ld	lxofx(hl),a		;ED 3Br00s00
   10A4 ED 3Br00s00        7235 	ld	(hl+lxofx),a		;ED 3Br00s00
   10A8 ED 03r00s00        7236 	ld	lxofx(sp),a		;ED 03r00s00
   10AC ED 03r00s00        7237 	ld	(sp+lxofx),a		;ED 03r00s00
   10B0 DD 77 00           7295 	ld	(ix),a			;DD 77 00
   10B3 FD 77 00           7296 	ld	(iy),a			;FD 77 00
   10B6 77                 7297 	ld	(hl),a			;77
                           7298 ;	ld	(hl),a			;ED 3B 00 00
   10B7 ED 03 00 00        7299 	ld	(sp),a			;ED 03 00 00
   10BB ED 23p00q00        7305 	ld	ld04(pc),a		;ED 23p00q00
   10BF ED 23p00q00        7309 	ld	(pc+ld05),a		;ED 23p00q00
   10C3 ED 23p00q00        7313 	ld	[ld06],a		;ED 23p00q00
   10C7 ED 23 DC FF        7383 	ld	[.-32],a		;ED 23 DC FF
   10CB ED 0B              7384 	ld	(hl+ix),a		;ED 0B
   10CD ED 13              7385 	ld	(hl+iy),a		;ED 13
   10CF ED 1B              7386 	ld	(iy+ix),a		;ED 1B
                           7387 	;***********************************************************
                           7388 	; p. 5-73
                           7389 	.z280
   10D1 DD 26r00           7394 	ld	ixh,#nx			;DD 26r00
   10D4 DD 2Er00           7395 	ld	ixl,#nx			;DD 2Er00
   10D7 FD 26r00           7396 	ld	iyh,#nx			;FD 26r00
   10DA FD 2Er00           7397 	ld	iyl,#nx			;FD 2Er00
   10DD DD 3Er00s00r00     7398 	ld	(daddx),#nx		;DD 3Er00s00r00
   10E2 FD 0Er00s00r00     7399 	ld	offsetx(ix),#nx		;FD 0Er00s00r00
   10E7 FD 0Er00s00r00     7400 	ld	(ix+offsetx),#nx		;FD 0Er00s00r00
   10EC FD 16r00s00r00     7401 	ld	offsetx(iy),#nx		;FD 16r00s00r00
   10F1 FD 16r00s00r00     7402 	ld	(iy+offsetx),#nx		;FD 16r00s00r00
   10F6 FD 1Er00s00r00     7403 	ld	offsetx(hl),#nx		;FD 1Er00s00r00
   10FB FD 1Er00s00r00     7404 	ld	(hl+offsetx),#nx		;FD 1Er00s00r00
   1100 DD 06r00s00r00     7405 	ld	offsetx(sp),#nx		;DD 06r00s00r00
   1105 DD 06r00s00r00     7406 	ld	(sp+offsetx),#nx		;DD 06r00s00r00
   110A FD 0Er00s00r00     7407 	ld	lxofx(ix),#nx		;FD 0Er00s00r00
   110F FD 0Er00s00r00     7408 	ld	(ix+lxofx),#nx		;FD 0Er00s00r00
   1114 FD 16r00s00r00     7409 	ld	lxofx(iy),#nx		;FD 16r00s00r00
   1119 FD 16r00s00r00     7410 	ld	(iy+lxofx),#nx		;FD 16r00s00r00
   111E FD 1Er00s00r00     7411 	ld	lxofx(hl),#nx		;FD 1Er00s00r00
   1123 FD 1Er00s00r00     7412 	ld	(hl+lxofx),#nx		;FD 1Er00s00r00
   1128 DD 06r00s00r00     7413 	ld	lxofx(sp),#nx		;DD 06r00s00r00
   112D DD 06r00s00r00     7414 	ld	(sp+lxofx),#nx		;DD 06r00s00r00
   1132 DD 0Er00           7415 	ld	(hl+ix),#nx		;DD 0Er00
   1135 DD 16r00           7416 	ld	(hl+iy),#nx		;DD 16r00
   1138 DD 1Er00           7417 	ld	(ix+iy),#nx		;DD 1Er00
   113B FD 06pFFqFFr00     7494 	ld	ld07(pc),#nx		;FD 06pFFqFFr00
   1140 FD 06pFFqFFr00     7498 	ld	(pc+ld08),#nx		;FD 06pFFqFFr00
   1145 FD 06pFFqFFr00     7502 	ld	[ld09],#nx		;FD 06pFFqFFr00
   114A FD 06 1B 00 20     7572 	ld	[.+32],#nc		;FD 06 1B 00 20
                           7573 
                           7574 	;***********************************************************
                           7575 	; p. 5-74
                           7576 	.z280
   114F DD 7C              7577 	ld	a,ixh			;DD 7C
   1151 FD 7D              7578 	ld	a,iyl			;FD 7D
   1153 DD 44              7579 	ld	b,ixh			;DD 44
   1155 DD 45              7580 	ld	b,ixl			;DD 45
   1157 DD 4C              7581 	ld	c,ixh			;DD 4C
   1159 DD 4D              7582 	ld	c,ixl			;DD 4D
   115B FD 54              7583 	ld	d,iyh			;FD 54
   115D FD 55              7584 	ld	d,iyl			;FD 55
   115F FD 5C              7585 	ld	e,iyh			;FD 5C
   1161 FD 5D              7586 	ld	e,iyl			;FD 5D
   1163 DD 64              7587 	ld	ixh,ixh			;DD 64
   1165 DD 65              7588 	ld	ixh,ixl			;DD 65
   1167 DD 6C              7589 	ld	ixl,ixh			;DD 6C
   1169 DD 6D              7590 	ld	ixl,ixl			;DD 6D
   116B FD 64              7591 	ld	iyh,iyh			;FD 64
   116D FD 65              7592 	ld	iyh,iyl			;FD 65
   116F FD 6C              7593 	ld	iyl,iyh			;FD 6C
   1171 FD 6D              7594 	ld	iyl,iyl			;FD 6D
   1173 62                 7595 	ld	h,d			;62
   1174 6B                 7596 	ld	l,e			;6B
   1175 DD 67              7597 	ld	ixh,a			;DD 67
   1177 DD 6F              7598 	ld	ixl,a			;DD 6F
   1179 FD 67              7599 	ld	iyh,a			;FD 67
   117B FD 6F              7600 	ld	iyl,a			;FD 6F
   117D DD 60              7601 	ld	ixh,b			;DD 60
   117F DD 69              7602 	ld	ixl,c			;DD 69
   1181 FD 62              7603 	ld	iyh,d			;FD 62
   1183 FD 6B              7604 	ld	iyl,e			;FD 6B
                           7605 
                           7606 ;*******************************************************************
                           7607 ;	LDB	
                           7608 ;*******************************************************************
                           7609 	;***********************************************************
                           7610 	; p. 5-74
                           7611 	.z280
   1185 DD 3Er00s00r00     7616 	ldb	(daddx),#nx		;DD 3Er00s00r00
   118A FD 0Er00s00r00     7617 	ldb	offsetx(ix),#nx		;FD 0Er00s00r00
   118F FD 0Er00s00r00     7618 	ldb	(ix+offsetx),#nx		;FD 0Er00s00r00
   1194 FD 16r00s00r00     7619 	ldb	offsetx(iy),#nx		;FD 16r00s00r00
   1199 FD 16r00s00r00     7620 	ldb	(iy+offsetx),#nx		;FD 16r00s00r00
   119E FD 1Er00s00r00     7621 	ldb	offsetx(hl),#nx		;FD 1Er00s00r00
   11A3 FD 1Er00s00r00     7622 	ldb	(hl+offsetx),#nx		;FD 1Er00s00r00
   11A8 DD 06r00s00r00     7623 	ldb	offsetx(sp),#nx		;DD 06r00s00r00
   11AD DD 06r00s00r00     7624 	ldb	(sp+offsetx),#nx		;DD 06r00s00r00
   11B2 FD 0Er00s00r00     7625 	ldb	lxofx(ix),#nx		;FD 0Er00s00r00
   11B7 FD 0Er00s00r00     7626 	ldb	(ix+lxofx),#nx		;FD 0Er00s00r00
   11BC FD 16r00s00r00     7627 	ldb	lxofx(iy),#nx		;FD 16r00s00r00
   11C1 FD 16r00s00r00     7628 	ldb	(iy+lxofx),#nx		;FD 16r00s00r00
   11C6 FD 1Er00s00r00     7629 	ldb	lxofx(hl),#nx		;FD 1Er00s00r00
   11CB FD 1Er00s00r00     7630 	ldb	(hl+lxofx),#nx		;FD 1Er00s00r00
   11D0 DD 06r00s00r00     7631 	ldb	lxofx(sp),#nx		;DD 06r00s00r00
   11D5 DD 06r00s00r00     7632 	ldb	(sp+lxofx),#nx		;DD 06r00s00r00
   11DA DD 0Er00           7633 	ldb	(hl+ix),#nx		;DD 0Er00
   11DD DD 16r00           7634 	ldb	(hl+iy),#nx		;DD 16r00
   11E0 DD 1Er00           7635 	ldb	(ix+iy),#nx		;DD 1Er00
   11E3 FD 06pFFqFFr00     7704 	ldb	ldb01(pc),#nx		;FD 06pFFqFFr00
   11E8 FD 06pFFqFFr00     7708 	ldb	(pc+ldb02),#nx		;FD 06pFFqFFr00
   11ED FD 06pFFqFFr00     7712 	ldb	[ldb03],#nx		;FD 06pFFqFFr00
   11F2 FD 06 1B 00 20     7782 	ldb	[.+32],#nc		;FD 06 1B 00 20
                           7783 
                           7784 ;*******************************************************************
                           7785 ;	LDA
                           7786 ;*******************************************************************
                           7787 	;***********************************************************
                           7788 	; p. 5-76
   11F7 21r00s00           7793 	lda	hl,(daddx)		;21r00s00
   11FA DD 21r00s00        7794 	lda	ix,(daddx)		;DD 21r00s00
   11FE FD 21r00s00        7795 	lda	iy,(daddx)		;FD 21r00s00
   1202 ED 2Ar00s00        7816 	lda	hl,(ix+sxofx)		;ED 2Ar00s00
   1206 ED 2Ar00s00        7817 	lda	hl,(ix+lxofx)		;ED 2Ar00s00
   120A ED 32r00s00        7818 	lda	hl,(iy+sxofx)		;ED 32r00s00
   120E ED 32r00s00        7819 	lda	hl,(iy+lxofx)		;ED 32r00s00
   1212 ED 3Ar00s00        7820 	lda	hl,(hl+sxofx)		;ED 3Ar00s00
   1216 ED 3Ar00s00        7821 	lda	hl,(hl+lxofx)		;ED 3Ar00s00
   121A ED 02r00s00        7822 	lda	hl,(sp+sxofx)		;ED 02r00s00
   121E ED 02r00s00        7823 	lda	hl,(sp+lxofx)		;ED 02r00s00
   1222 DD ED 2Ar00s00     7824 	lda	ix,(ix+sxofx)		;DD ED 2Ar00s00
   1227 DD ED 2Ar00s00     7825 	lda	ix,(ix+lxofx)		;DD ED 2Ar00s00
   122C DD ED 32r00s00     7826 	lda	ix,(iy+sxofx)		;DD ED 32r00s00
   1231 DD ED 32r00s00     7827 	lda	ix,(iy+lxofx)		;DD ED 32r00s00
   1236 DD ED 3Ar00s00     7828 	lda	ix,(hl+sxofx)		;DD ED 3Ar00s00
   123B DD ED 3Ar00s00     7829 	lda	ix,(hl+lxofx)		;DD ED 3Ar00s00
   1240 DD ED 02r00s00     7830 	lda	ix,(sp+sxofx)		;DD ED 02r00s00
   1245 DD ED 02r00s00     7831 	lda	ix,(sp+lxofx)		;DD ED 02r00s00
   124A FD ED 2Ar00s00     7832 	lda	iy,(ix+sxofx)		;FD ED 2Ar00s00
   124F FD ED 2Ar00s00     7833 	lda	iy,(ix+lxofx)		;FD ED 2Ar00s00
   1254 FD ED 32r00s00     7834 	lda	iy,(iy+sxofx)		;FD ED 32r00s00
   1259 FD ED 32r00s00     7835 	lda	iy,(iy+lxofx)		;FD ED 32r00s00
   125E FD ED 3Ar00s00     7836 	lda	iy,(hl+sxofx)		;FD ED 3Ar00s00
   1263 FD ED 3Ar00s00     7837 	lda	iy,(hl+lxofx)		;FD ED 3Ar00s00
   1268 FD ED 02r00s00     7838 	lda	iy,(sp+sxofx)		;FD ED 02r00s00
   126D FD ED 02r00s00     7839 	lda	iy,(sp+lxofx)		;FD ED 02r00s00
   1272 ED 2Ar00s00        7840 	lda	hl,sxofx(ix)		;ED 2Ar00s00
   1276 ED 2Ar00s00        7841 	lda	hl,lxofx(ix)		;ED 2Ar00s00
   127A ED 32r00s00        7842 	lda	hl,sxofx(iy)		;ED 32r00s00
   127E ED 32r00s00        7843 	lda	hl,lxofx(iy)		;ED 32r00s00
   1282 ED 3Ar00s00        7844 	lda	hl,sxofx(hl)		;ED 3Ar00s00
   1286 ED 3Ar00s00        7845 	lda	hl,lxofx(hl)		;ED 3Ar00s00
   128A ED 02r00s00        7846 	lda	hl,sxofx(sp)		;ED 02r00s00
   128E ED 02r00s00        7847 	lda	hl,lxofx(sp)		;ED 02r00s00
   1292 DD ED 2Ar00s00     7848 	lda	ix,sxofx(ix)		;DD ED 2Ar00s00
   1297 DD ED 2Ar00s00     7849 	lda	ix,lxofx(ix)		;DD ED 2Ar00s00
   129C DD ED 32r00s00     7850 	lda	ix,sxofx(iy)		;DD ED 32r00s00
   12A1 DD ED 32r00s00     7851 	lda	ix,lxofx(iy)		;DD ED 32r00s00
   12A6 DD ED 3Ar00s00     7852 	lda	ix,sxofx(hl)		;DD ED 3Ar00s00
   12AB DD ED 3Ar00s00     7853 	lda	ix,lxofx(hl)		;DD ED 3Ar00s00
   12B0 DD ED 02r00s00     7854 	lda	ix,sxofx(sp)		;DD ED 02r00s00
   12B5 DD ED 02r00s00     7855 	lda	ix,lxofx(sp)		;DD ED 02r00s00
   12BA FD ED 2Ar00s00     7856 	lda	iy,sxofx(ix)		;FD ED 2Ar00s00
   12BF FD ED 2Ar00s00     7857 	lda	iy,lxofx(ix)		;FD ED 2Ar00s00
   12C4 FD ED 32r00s00     7858 	lda	iy,sxofx(iy)		;FD ED 32r00s00
   12C9 FD ED 32r00s00     7859 	lda	iy,lxofx(iy)		;FD ED 32r00s00
   12CE FD ED 3Ar00s00     7860 	lda	iy,sxofx(hl)		;FD ED 3Ar00s00
   12D3 FD ED 3Ar00s00     7861 	lda	iy,lxofx(hl)		;FD ED 3Ar00s00
   12D8 FD ED 02r00s00     7862 	lda	iy,sxofx(sp)		;FD ED 02r00s00
   12DD FD ED 02r00s00     7863 	lda	iy,lxofx(sp)		;FD ED 02r00s00
   12E2 ED 2A 00 00        7970 	lda	hl,(ix)			;ED 2A 00 00
   12E6 ED 32 00 00        7971 	lda	hl,(iy)			;ED 32 00 00
   12EA ED 3A 00 00        7972 	lda	hl,(hl)			;ED 3A 00 00
   12EE ED 02 00 00        7973 	lda	hl,(sp)			;ED 02 00 00
   12F2 DD ED 2A 00 00     7974 	lda	ix,(ix)			;DD ED 2A 00 00
   12F7 DD ED 32 00 00     7975 	lda	ix,(iy)			;DD ED 32 00 00
   12FC DD ED 3A 00 00     7976 	lda	ix,(hl)			;DD ED 3A 00 00
   1301 DD ED 02 00 00     7977 	lda	ix,(sp)			;DD ED 02 00 00
   1306 FD ED 2A 00 00     7978 	lda	iy,(ix)			;FD ED 2A 00 00
   130B FD ED 32 00 00     7979 	lda	iy,(iy)			;FD ED 32 00 00
   1310 FD ED 3A 00 00     7980 	lda	iy,(hl)			;FD ED 3A 00 00
   1315 FD ED 02 00 00     7981 	lda	iy,(sp)			;FD ED 02 00 00
   131A ED 0A              7982 	lda	hl,(ix+hl)		;ED 0A
   131C ED 12              7983 	lda	hl,(hl+iy)		;ED 12
   131E ED 1A              7984 	lda	hl,(ix+iy)		;ED 1A
   1320 DD ED 0A           7985 	lda	ix,(hl+ix)		;DD ED 0A
   1323 DD ED 12           7986 	lda	ix,(hl+iy)		;DD ED 12
   1326 DD ED 1A           7987 	lda	ix,(ix+iy)		;DD ED 1A
   1329 FD ED 0A           7988 	lda	iy,(hl+ix)		;FD ED 0A
   132C FD ED 12           7989 	lda	iy,(hl+iy)		;FD ED 12
   132F FD ED 1A           7990 	lda	iy,(ix+iy)		;FD ED 1A
   1332 DD ED 22p00q00     7996 	lda	ix,lda01(pc)		;DD ED 22p00q00
   1337 DD ED 22p00q00     8000 	lda	ix,(pc+lda02)		;DD ED 22p00q00
   133C DD ED 22p00q00     8004 	lda	ix,[lda03]		;DD ED 22p00q00
   1341 DD ED 22 FB FF     8074 	lda	ix,[.]			;DD ED 22 FB FF
   1346 DD ED 22 1B 00     8075 	lda	ix,[.+nc]		;DD ED 22 1B 00
   134B FD ED 22p00q00     8081 	lda	iy,lda04(pc)		;FD ED 22p00q00
   1350 FD ED 22p00q00     8085 	lda	iy,(pc+lda05)		;FD ED 22p00q00
   1355 FD ED 22p00q00     8089 	lda	iy,[lda06]		;FD ED 22p00q00
   135A FD ED 22 FB FF     8159 	lda	iy,[.]			;FD ED 22 FB FF
   135F FD ED 22 1B 00     8160 	lda	iy,[.+nc]		;FD ED 22 1B 00
   1364 ED 22p00q00        8166 	lda	hl,lda07(pc)		;ED 22p00q00
   1368 ED 22p00q00        8170 	lda	hl,(pc+lda08)		;ED 22p00q00
   136C ED 22p00q00        8174 	lda	hl,[lda09]		;ED 22p00q00
   1370 ED 22 FC FF        8244 	lda	hl,[.]			;ED 22 FC FF
   1374 ED 22 1C 00        8245 	lda	hl,[.+nc]		;ED 22 1C 00
                           8246 
                           8247 ;*******************************************************************
                           8248 ;	LDCTL	
                           8249 ;*******************************************************************
                           8250 	;***********************************************************
                           8251 	;  p. 5-77
                           8252 	.z280p
   1378 ED 66              8253 	ldctl	hl,(c)			;ED 66
   137A DD ED 66           8254 	ldctl	ix,(c)			;DD ED 66
   137D FD ED 66           8255 	ldctl	iy,(c)			;FD ED 66
   1380 ED 6E              8256 	ldctl	(c),hl			;ED 6E
   1382 DD ED 6E           8257 	ldctl	(c),ix			;DD ED 6E
   1385 FD ED 6E           8258 	ldctl	(c),iy			;FD ED 6E
   1388 ED 87              8259 	ldctl	hl,usp			;ED 87
   138A DD ED 87           8260 	ldctl	ix,usp			;DD ED 87
   138D FD ED 87           8261 	ldctl	iy,usp			;FD ED 87
   1390 ED 8F              8262 	ldctl	usp,hl			;ED 8F
   1392 DD ED 8F           8263 	ldctl	usp,ix			;DD ED 8F
   1395 FD ED 8F           8264 	ldctl	usp,iy			;FD ED 8F
                           8265 
                           8266 ;*******************************************************************
                           8267 ;	LDUD	
                           8268 ;		Leading 'a' operand is optional.
                           8269 ;		If offset is ommitted 0 is assumed.
                           8270 ;*******************************************************************
                           8271 	;***********************************************************
                           8272 	;  p. 5-84
                           8273 	.z280p
   1398 ED 86              8278 	ldud	a,(hl)			;ED 86
   139A DD ED 86r00        8279 	ldud	a,sxofx(ix)		;DD ED 86r00
   139E DD ED 86r00        8280 	ldud	a,(ix+sxofx)		;DD ED 86r00
   13A2 DD ED 86 00        8281 	ldud	a,(ix)			;DD ED 86 00
   13A6 FD ED 86r00        8282 	ldud	a,sxofx(iy)		;FD ED 86r00
   13AA FD ED 86r00        8283 	ldud	a,(iy+sxofx)		;FD ED 86r00
   13AE FD ED 86 00        8284 	ldud	a,(iy)			;FD ED 86 00
                           8285 
   13B2 ED 8E              8286 	ldud	(hl),a			;ED 8E
   13B4 DD ED 8Er00        8287 	ldud	sxofx(ix),a		;DD ED 8Er00
   13B8 DD ED 8Er00        8288 	ldud	(ix+sxofx),a		;DD ED 8Er00
   13BC DD ED 8E 00        8289 	ldud	(ix),a			;DD ED 8E 00
   13C0 FD ED 8Er00        8290 	ldud	sxofx(iy),a		;FD ED 8Er00
   13C4 FD ED 8Er00        8291 	ldud	(iy+sxofx),a		;FD ED 8Er00
   13C8 FD ED 8E 00        8292 	ldud	(iy),a			;FD ED 8E 00
                           8333 
                           8334 ;*******************************************************************
                           8335 ;	LDUP	
                           8336 ;		Leading 'a' operand is optional.
                           8337 ;		If offset is ommitted 0 is assumed.
                           8338 ;*******************************************************************
                           8339 	;***********************************************************
                           8340 	;  p. 5-86
                           8341 	.z280p
   13CC ED 96              8346 	ldup	a,(hl)			;ED 96
   13CE DD ED 96r00        8347 	ldup	a,sxofx(ix)		;DD ED 96r00
   13D2 DD ED 96r00        8348 	ldup	a,(ix+sxofx)		;DD ED 96r00
   13D6 DD ED 96 00        8349 	ldup	a,(ix)			;DD ED 96 00
   13DA FD ED 96r00        8350 	ldup	a,sxofx(iy)		;FD ED 96r00
   13DE FD ED 96r00        8351 	ldup	a,(iy+sxofx)		;FD ED 96r00
   13E2 FD ED 96 00        8352 	ldup	a,(iy)			;FD ED 96 00
                           8353 
   13E6 ED 9E              8354 	ldup	(hl),a			;ED 9E
   13E8 DD ED 9Er00        8355 	ldup	sxofx(ix),a		;DD ED 9Er00
   13EC DD ED 9Er00        8356 	ldup	(ix+sxofx),a		;DD ED 9Er00
   13F0 DD ED 9E 00        8357 	ldup	(ix),a			;DD ED 9E 00
   13F4 FD ED 9Er00        8358 	ldup	sxofx(iy),a		;FD ED 9Er00
   13F8 FD ED 9Er00        8359 	ldup	(iy+sxofx),a		;FD ED 9Er00
   13FC FD ED 9E 00        8360 	ldup	(iy),a			;FD ED 9E 00
                           8401 
                           8402 ;*******************************************************************
                           8403 ;	LDW	
                           8404 ;*******************************************************************
                           8405 	;***********************************************************
                           8406 	;  p. 5-88
                           8407 	.z280
   1400 01r00s00           8412 	ldw	bc,#nx			;01r00s00
   1403 11r00s00           8413 	ldw	de,#nx			;11r00s00
   1406 21r00s00           8414 	ldw	hl,#nx			;21r00s00
   1409 31r00s00           8415 	ldw	sp,#nx			;31r00s00
   140C DD 21r00s00        8416 	ldw	ix,#nx			;DD 21r00s00
   1410 FD 21r00s00        8417 	ldw	iy,#nx			;FD 21r00s00
   1414 DD 01r00s00        8418 	ldw	(hl),#nx			;DD 01r00s00
   1418 DD 11r00s00r00s00  8419 	ldw	(daddx),#nx		;DD 11r00s00r00s00
   141E 01r00s00           8420 	ldw	bc,#nnx			;01r00s00
   1421 11r00s00           8421 	ldw	de,#nnx			;11r00s00
   1424 21r00s00           8422 	ldw	hl,#nnx			;21r00s00
   1427 31r00s00           8423 	ldw	sp,#nnx			;31r00s00
   142A DD 21r00s00        8424 	ldw	ix,#nnx			;DD 21r00s00
   142E FD 21r00s00        8425 	ldw	iy,#nnx			;FD 21r00s00
   1432 DD 01r00s00        8426 	ldw	(hl),#nnx		;DD 01r00s00
   1436 DD 11r00s00r00s00  8427 	ldw	(daddx),#nnx		;DD 11r00s00r00s00
   143C DD 31pFEqFFr00s00  8475 	ldw	ldw01(pc),#nx		;DD 31pFEqFFr00s00
   1442 DD 31pFEqFFr00s00  8479 	ldw	(pc+ldw02),#nx		;DD 31pFEqFFr00s00
   1448 DD 31pFEqFFr00s00  8483 	ldw	[ldw03],#nx		;DD 31pFEqFFr00s00
   144E DD 31 00 00 84 05  8552 	ldw	[.+6],#nnc		;DD 31 00 00 84 05
                           8553 
                           8554 	;***********************************************************
                           8555 	;  p. 5-89     two immediates handled above
                           8556 	.z280
   1454 2Ar00s00           8561 	ldw	hl,(daddx)		;2Ar00s00
   1457 DD 2Ar00s00        8562 	ldw	ix,(daddx)		;DD 2Ar00s00
   145B FD 2Ar00s00        8563 	ldw	iy,(daddx)		;FD 2Ar00s00
   145F ED 2Cr00s00        8564 	ldw	hl,sxofx(ix)		;ED 2Cr00s00
   1463 ED 2Cr00s00        8565 	ldw	hl,(ix+sxofx)		;ED 2Cr00s00
   1467 ED 34r00s00        8566 	ldw	hl,sxofx(iy)		;ED 34r00s00
   146B ED 34r00s00        8567 	ldw	hl,(iy+sxofx)		;ED 34r00s00
   146F ED 3Cr00s00        8568 	ldw	hl,sxofx(hl)		;ED 3Cr00s00
   1473 ED 3Cr00s00        8569 	ldw	hl,(hl+sxofx)		;ED 3Cr00s00
   1477 ED 04r00s00        8570 	ldw	hl,sxofx(sp)		;ED 04r00s00
   147B ED 04r00s00        8571 	ldw	hl,(sp+sxofx)		;ED 04r00s00
   147F ED 2Cr00s00        8572 	ldw	hl,lxofx(ix)		;ED 2Cr00s00
   1483 ED 2Cr00s00        8573 	ldw	hl,(ix+lxofx)		;ED 2Cr00s00
   1487 ED 34r00s00        8574 	ldw	hl,lxofx(iy)		;ED 34r00s00
   148B ED 34r00s00        8575 	ldw	hl,(iy+lxofx)		;ED 34r00s00
   148F ED 3Cr00s00        8576 	ldw	hl,lxofx(hl)		;ED 3Cr00s00
   1493 ED 3Cr00s00        8577 	ldw	hl,(hl+lxofx)		;ED 3Cr00s00
   1497 ED 04r00s00        8578 	ldw	hl,lxofx(sp)		;ED 04r00s00
   149B ED 04r00s00        8579 	ldw	hl,(sp+lxofx)		;ED 04r00s00
   149F DD ED 2Cr00s00     8580 	ldw	ix,sxofx(ix)		;DD ED 2Cr00s00
   14A4 DD ED 2Cr00s00     8581 	ldw	ix,(ix+sxofx)		;DD ED 2Cr00s00
   14A9 DD ED 34r00s00     8582 	ldw	ix,sxofx(iy)		;DD ED 34r00s00
   14AE DD ED 34r00s00     8583 	ldw	ix,(iy+sxofx)		;DD ED 34r00s00
   14B3 DD ED 3Cr00s00     8584 	ldw	ix,sxofx(hl)		;DD ED 3Cr00s00
   14B8 DD ED 3Cr00s00     8585 	ldw	ix,(hl+sxofx)		;DD ED 3Cr00s00
   14BD DD ED 04r00s00     8586 	ldw	ix,sxofx(sp)		;DD ED 04r00s00
   14C2 DD ED 04r00s00     8587 	ldw	ix,(sp+sxofx)		;DD ED 04r00s00
   14C7 DD ED 2Cr00s00     8588 	ldw	ix,lxofx(ix)		;DD ED 2Cr00s00
   14CC DD ED 2Cr00s00     8589 	ldw	ix,(ix+lxofx)		;DD ED 2Cr00s00
   14D1 DD ED 34r00s00     8590 	ldw	ix,lxofx(iy)		;DD ED 34r00s00
   14D6 DD ED 34r00s00     8591 	ldw	ix,(iy+lxofx)		;DD ED 34r00s00
   14DB DD ED 3Cr00s00     8592 	ldw	ix,lxofx(hl)		;DD ED 3Cr00s00
   14E0 DD ED 3Cr00s00     8593 	ldw	ix,(hl+lxofx)		;DD ED 3Cr00s00
   14E5 DD ED 04r00s00     8594 	ldw	ix,lxofx(sp)		;DD ED 04r00s00
   14EA DD ED 04r00s00     8595 	ldw	ix,lxofx(sp)		;DD ED 04r00s00
   14EF DD ED 04r00s00     8596 	ldw	ix,(sp+lxofx)		;DD ED 04r00s00
   14F4 FD ED 2Cr00s00     8597 	ldw	iy,sxofx(ix)		;FD ED 2Cr00s00
   14F9 FD ED 2Cr00s00     8598 	ldw	iy,(ix+sxofx)		;FD ED 2Cr00s00
   14FE FD ED 34r00s00     8599 	ldw	iy,sxofx(iy)		;FD ED 34r00s00
   1503 FD ED 34r00s00     8600 	ldw	iy,(iy+sxofx)		;FD ED 34r00s00
   1508 FD ED 3Cr00s00     8601 	ldw	iy,sxofx(hl)		;FD ED 3Cr00s00
   150D FD ED 3Cr00s00     8602 	ldw	iy,(hl+sxofx)		;FD ED 3Cr00s00
   1512 FD ED 04r00s00     8603 	ldw	iy,sxofx(sp)		;FD ED 04r00s00
   1517 FD ED 04r00s00     8604 	ldw	iy,(sp+sxofx)		;FD ED 04r00s00
   151C FD ED 2Cr00s00     8605 	ldw	iy,(ix+lxofx)		;FD ED 2Cr00s00
   1521 FD ED 2Cr00s00     8606 	ldw	iy,lxofx(ix)		;FD ED 2Cr00s00
   1526 FD ED 34r00s00     8607 	ldw	iy,lxofx(iy)		;FD ED 34r00s00
   152B FD ED 34r00s00     8608 	ldw	iy,(iy+lxofx)		;FD ED 34r00s00
   1530 FD ED 3Cr00s00     8609 	ldw	iy,lxofx(hl)		;FD ED 3Cr00s00
   1535 FD ED 3Cr00s00     8610 	ldw	iy,(hl+lxofx)		;FD ED 3Cr00s00
   153A FD ED 04r00s00     8611 	ldw	iy,lxofx(sp)		;FD ED 04r00s00
   153F FD ED 04r00s00     8612 	ldw	iy,(sp+lxofx)		;FD ED 04r00s00
   1544 ED 04 00 00        8744 	ldw	hl,(sp)			;ED 04 00 00
   1548 DD ED 04 00 00     8745 	ldw	ix,(sp)			;DD ED 04 00 00
   154D FD ED 04 00 00     8746 	ldw	iy,(sp)			;FD ED 04 00 00
   1552 ED 0C              8747 	ldw	hl,(hl+ix)		;ED 0C
   1554 ED 14              8748 	ldw	hl,(hl+iy)		;ED 14
   1556 ED 1C              8749 	ldw	hl,(ix+iy)		;ED 1C
   1558 DD ED 0C           8750 	ldw	ix,(hl+ix)		;DD ED 0C
   155B DD ED 14           8751 	ldw	ix,(hl+iy)		;DD ED 14
   155E DD ED 1C           8752 	ldw	ix,(ix+iy)		;DD ED 1C
   1561 FD ED 0C           8753 	ldw	iy,(hl+ix)		;FD ED 0C
   1564 FD ED 14           8754 	ldw	iy,(hl+iy)		;FD ED 14
   1567 FD ED 1C           8755 	ldw	iy,(ix+iy)		;FD ED 1C
                           8756 
   156A ED 24p00q00        8762 	ldw	hl,ldw04(pc)		;ED 24p00q00
   156E ED 24p00q00        8766 	ldw	hl,(pc+ldw05)		;ED 24p00q00
   1572 ED 24p00q00        8770 	ldw	hl,[ldw06]		;ED 24p00q00
   1576 ED 24 1C 00        8840 	ldw	hl,[.+32]		;ED 24 1C 00
   157A DD ED 24p00q00     8846 	ldw	ix,ldw07(pc)		;DD ED 24p00q00
   157F DD ED 24p00q00     8850 	ldw	ix,(pc+ldw08)		;DD ED 24p00q00
   1584 DD ED 24p00q00     8854 	ldw	ix,[ldw09]		;DD ED 24p00q00
   1589 DD ED 24 1B 00     8924 	ldw	ix,[.+32]		;DD ED 24 1B 00
   158E FD ED 24p00q00     8930 	ldw	iy,ldw11(pc)		;FD ED 24p00q00
   1593 FD ED 24p00q00     8934 	ldw	iy,(pc+ldw12)		;FD ED 24p00q00
   1598 FD ED 24p00q00     8938 	ldw	iy,[ldw13]		;FD ED 24p00q00
   159D FD ED 24 1B 00     9008 	ldw	iy,[.+32]		;FD ED 24 1B 00
                           9009 	;***********************************************************
                           9010 	;  p. 5-90
                           9011 	.z280
   15A2 22r00s00           9016 	ldw	(daddx),hl		;22r00s00
   15A5 DD 22r00s00        9017 	ldw	(daddx),ix		;DD 22r00s00
   15A9 FD 22r00s00        9018 	ldw	(daddx),iy		;FD 22r00s00
   15AD ED 2Dr00s00        9019 	ldw	sxofx(ix),hl		;ED 2Dr00s00
   15B1 ED 2Dr00s00        9020 	ldw	(ix+sxofx),hl		;ED 2Dr00s00
   15B5 ED 35r00s00        9021 	ldw	sxofx(iy),hl		;ED 35r00s00
   15B9 ED 35r00s00        9022 	ldw	(iy+sxofx),hl		;ED 35r00s00
   15BD ED 3Dr00s00        9023 	ldw	sxofx(hl),hl		;ED 3Dr00s00
   15C1 ED 3Dr00s00        9024 	ldw	(hl+sxofx),hl		;ED 3Dr00s00
   15C5 ED 05r00s00        9025 	ldw	sxofx(sp),hl		;ED 05r00s00
   15C9 ED 05r00s00        9026 	ldw	(sp+sxofx),hl		;ED 05r00s00
   15CD ED 2Dr00s00        9027 	ldw	lxofx(ix),hl		;ED 2Dr00s00
   15D1 ED 2Dr00s00        9028 	ldw	(ix+lxofx),hl		;ED 2Dr00s00
   15D5 ED 35r00s00        9029 	ldw	lxofx(iy),hl		;ED 35r00s00
   15D9 ED 35r00s00        9030 	ldw	(iy+lxofx),hl		;ED 35r00s00
   15DD ED 3Dr00s00        9031 	ldw	lxofx(hl),hl		;ED 3Dr00s00
   15E1 ED 3Dr00s00        9032 	ldw	(hl+lxofx),hl		;ED 3Dr00s00
   15E5 ED 05r00s00        9033 	ldw	lxofx(sp),hl		;ED 05r00s00
   15E9 ED 05r00s00        9034 	ldw	(sp+lxofx),hl		;ED 05r00s00
   15ED DD ED 2Dr00s00     9035 	ldw	sxofx(ix),ix		;DD ED 2Dr00s00
   15F2 DD ED 2Dr00s00     9036 	ldw	(ix+sxofx),ix		;DD ED 2Dr00s00
   15F7 DD ED 35r00s00     9037 	ldw	sxofx(iy),ix		;DD ED 35r00s00
   15FC DD ED 35r00s00     9038 	ldw	(iy+sxofx),ix		;DD ED 35r00s00
   1601 DD ED 3Dr00s00     9039 	ldw	sxofx(hl),ix		;DD ED 3Dr00s00
   1606 DD ED 3Dr00s00     9040 	ldw	(hl+sxofx),ix		;DD ED 3Dr00s00
   160B DD ED 05r00s00     9041 	ldw	sxofx(sp),ix		;DD ED 05r00s00
   1610 DD ED 05r00s00     9042 	ldw	(sp+sxofx),ix		;DD ED 05r00s00
   1615 DD ED 2Dr00s00     9043  	ldw	lxofx(ix),ix		;DD ED 2Dr00s00
   161A DD ED 2Dr00s00     9044 	ldw	(ix+lxofx),ix		;DD ED 2Dr00s00
   161F DD ED 35r00s00     9045 	ldw	lxofx(iy),ix		;DD ED 35r00s00
   1624 DD ED 35r00s00     9046 	ldw	(iy+lxofx),ix		;DD ED 35r00s00
   1629 DD ED 3Dr00s00     9047 	ldw	lxofx(hl),ix		;DD ED 3Dr00s00
   162E DD ED 3Dr00s00     9048 	ldw	(hl+lxofx),ix		;DD ED 3Dr00s00
   1633 DD ED 05r00s00     9049 	ldw	lxofx(sp),ix		;DD ED 05r00s00
   1638 DD ED 05r00s00     9050 	ldw	(sp+lxofx),ix		;DD ED 05r00s00
   163D FD ED 2Dr00s00     9051 	ldw	sxofx(ix),iy		;FD ED 2Dr00s00
   1642 FD ED 2Dr00s00     9052 	ldw	(ix+sxofx),iy		;FD ED 2Dr00s00
   1647 FD ED 35r00s00     9053 	ldw	sxofx(iy),iy		;FD ED 35r00s00
   164C FD ED 35r00s00     9054 	ldw	(iy+sxofx),iy		;FD ED 35r00s00
   1651 FD ED 3Dr00s00     9055 	ldw	sxofx(hl),iy		;FD ED 3Dr00s00
   1656 FD ED 3Dr00s00     9056 	ldw	(hl+sxofx),iy		;FD ED 3Dr00s00
   165B FD ED 05r00s00     9057 	ldw	sxofx(sp),iy		;FD ED 05r00s00
   1660 FD ED 05r00s00     9058 	ldw	(sp+sxofx),iy		;FD ED 05r00s00
   1665 FD ED 2Dr00s00     9059 	ldw	lxofx(ix),iy		;FD ED 2Dr00s00
   166A FD ED 2Dr00s00     9060 	ldw	(ix+lxofx),iy		;FD ED 2Dr00s00
   166F FD ED 35r00s00     9061 	ldw	lxofx(iy),iy		;FD ED 35r00s00
   1674 FD ED 35r00s00     9062 	ldw	(iy+lxofx),iy		;FD ED 35r00s00
   1679 FD ED 3Dr00s00     9063 	ldw	lxofx(hl),iy		;FD ED 3Dr00s00
   167E FD ED 3Dr00s00     9064 	ldw	(hl+lxofx),iy		;FD ED 3Dr00s00
   1683 FD ED 05r00s00     9065 	ldw	lxofx(sp),iy		;FD ED 05r00s00
   1688 FD ED 05r00s00     9066 	ldw	(sp+lxofx),iy		;FD ED 05r00s00
                           9196 
   168D ED 05 00 00        9197 	ldw	(sp),hl			;ED 05 00 00
   1691 DD ED 05 00 00     9198 	ldw	(sp),ix			;DD ED 05 00 00
   1696 FD ED 05 00 00     9199 	ldw	(sp),iy			;FD ED 05 00 00
   169B FD ED 0D           9200 	ldw	(hl+ix),iy		;FD ED 0D
   169E FD ED 15           9201 	ldw	(hl+iy),iy		;FD ED 15
   16A1 FD ED 1D           9202 	ldw	(ix+iy),iy		;FD ED 1D
   16A4 DD ED 0D           9203 	ldw	(hl+ix),ix		;DD ED 0D
   16A7 DD ED 15           9204 	ldw	(hl+iy),ix		;DD ED 15
   16AA DD ED 1D           9205 	ldw	(ix+iy),ix		;DD ED 1D
   16AD ED 0D              9206 	ldw	(hl+ix),hl		;ED 0D
   16AF ED 15              9207 	ldw	(hl+iy),hl		;ED 15
   16B1 ED 1D              9208 	ldw	(ix+iy),hl		;ED 1D
                           9209 
   16B3 ED 25p00q00        9215 	ldw	ldw14(pc),hl		;ED 25p00q00
   16B7 ED 25p00q00        9219 	ldw	(pc+ldw15),hl		;ED 25p00q00
   16BB ED 25p00q00        9223 	ldw	[ldw16],hl		;ED 25p00q00
   16BF ED 25 1C 00        9293 	ldw	[.+32],hl		;ED 25 1C 00
   16C3 DD ED 25p00q00     9299 	ldw	ldw17(pc),ix		;DD ED 25p00q00
   16C8 DD ED 25p00q00     9303 	ldw	(pc+ldw18),ix		;DD ED 25p00q00
   16CD DD ED 25p00q00     9307 	ldw	[ldw19],ix		;DD ED 25p00q00
   16D2 DD ED 25 1B 00     9377 	ldw	[.+32],ix		;DD ED 25 1B 00
   16D7 FD ED 25p00q00     9383 	ldw	ldw21(pc),iy		;FD ED 25p00q00
   16DC FD ED 25p00q00     9387 	ldw	(pc+ldw22),iy		;FD ED 25p00q00
   16E1 FD ED 25p00q00     9391 	ldw	[ldw23],iy		;FD ED 25p00q00
   16E6 FD ED 25 1B 00     9461 	ldw	[.+32],iy		;FD ED 25 1B 00
                           9462 	;***********************************************************
                           9463 	;  p. 5-91
                           9464 	.z280
   16EB 01r00s00           9469 	ldw	bc,#nnx			;01r00s00
   16EE 11r00s00           9470 	ldw	de,#nnx			;11r00s00
   16F1 21r00s00           9471 	ldw	hl,#nnx			;21r00s00
   16F4 31r00s00           9472 	ldw	sp,#nnx			;31r00s00
   16F7 ED 06              9491 	ldw	bc,(hl)			;ED 06
   16F9 ED 16              9492 	ldw	de,(hl)			;ED 16
   16FB ED 26              9493 	ldw	hl,(hl)			;ED 26
   16FD ED 36              9494 	ldw	sp,(hl)			;ED 36
   16FF DD ED 06 00        9495 	ldw	bc,(ix)			;DD ED 06 00
   1703 DD ED 16 00        9496 	ldw	de,(ix)			;DD ED 16 00
   1707 DD ED 26 00        9497 	ldw	hl,(ix)			;DD ED 26 00
   170B DD ED 36 00        9498 	ldw	sp,(ix)			;DD ED 36 00
   170F FD ED 06 00        9499 	ldw	bc,(iy)			;FD ED 06 00
   1713 FD ED 16 00        9500 	ldw	de,(iy)			;FD ED 16 00
   1717 FD ED 26 00        9501 	ldw	hl,(iy)			;FD ED 26 00
   171B FD ED 36 00        9502 	ldw	sp,(iy)			;FD ED 36 00
   171F ED 4Br00s00        9507 	ldw	bc,(daddx)		;ED 4Br00s00
   1723 ED 5Br00s00        9508 	ldw	de,(daddx)		;ED 5Br00s00
   1727 2Ar00s00           9509 	ldw	hl,(daddx)		;2Ar00s00
   172A ED 7Br00s00        9510 	ldw	sp,(daddx)		;ED 7Br00s00
   172E DD ED 06r00        9511 	ldw	bc,sxofx(ix)		;DD ED 06r00
   1732 DD ED 06r00        9512 	ldw	bc,(ix+sxofx)		;DD ED 06r00
   1736 FD ED 06r00        9513 	ldw	bc,sxofx(iy)		;FD ED 06r00
   173A FD ED 06r00        9514 	ldw	bc,(iy+sxofx)		;FD ED 06r00
   173E DD ED 16r00        9515 	ldw	de,sxofx(ix)		;DD ED 16r00
   1742 DD ED 16r00        9516 	ldw	de,(ix+sxofx)		;DD ED 16r00
   1746 FD ED 16r00        9517 	ldw	de,sxofx(iy)		;FD ED 16r00
   174A FD ED 16r00        9518 	ldw	de,(iy+sxofx)		;FD ED 16r00
   174E ED 2Cr00s00        9519 	ldw	hl,sxofx(ix)		;ED 2Cr00s00
   1752 ED 2Cr00s00        9520 	ldw	hl,(ix+sxofx)		;ED 2Cr00s00
   1756 ED 34r00s00        9521 	ldw	hl,sxofx(iy)		;ED 34r00s00
   175A ED 34r00s00        9522 	ldw	hl,(iy+sxofx)		;ED 34r00s00
   175E DD ED 36r00        9523 	ldw	sp,sxofx(ix)		;DD ED 36r00
   1762 DD ED 36r00        9524 	ldw	sp,(ix+sxofx)		;DD ED 36r00
   1766 FD ED 36r00        9525 	ldw	sp,sxofx(iy)		;FD ED 36r00
   176A FD ED 36r00        9526 	ldw	sp,(iy+sxofx)		;FD ED 36r00
   176E ED 0E              9590 	ldw	(hl),bc			;ED 0E
   1770 ED 1E              9591 	ldw	(hl),de			;ED 1E
   1772 ED 2E              9592 	ldw	(hl),hl			;ED 2E
   1774 ED 3E              9593 	ldw	(hl),sp			;ED 3E
   1776 ED 43r00s00        9598 	ldw	(daddx),bc		;ED 43r00s00
   177A ED 53r00s00        9599 	ldw	(daddx),de		;ED 53r00s00
   177E ED 73r00s00        9600 	ldw	(daddx),sp		;ED 73r00s00
   1782 22r00s00           9601 	ldw	(daddx),hl		;22r00s00
   1785 DD ED 0Er00        9602 	ldw	sxofx(ix),bc		;DD ED 0Er00
   1789 DD ED 0Er00        9603 	ldw	(ix+sxofx),bc		;DD ED 0Er00
   178D FD ED 0Er00        9604 	ldw	sxofx(iy),bc		;FD ED 0Er00
   1791 FD ED 0Er00        9605 	ldw	(iy+sxofx),bc		;FD ED 0Er00
   1795 DD ED 1Er00        9606 	ldw	sxofx(ix),de		;DD ED 1Er00
   1799 DD ED 1Er00        9607 	ldw	(ix+sxofx),de		;DD ED 1Er00
   179D FD ED 1Er00        9608 	ldw	sxofx(iy),de		;FD ED 1Er00
   17A1 FD ED 1Er00        9609 	ldw	(iy+sxofx),de		;FD ED 1Er00
   17A5 ED 2Dr00s00        9610 	ldw	sxofx(ix),hl		;ED 2Dr00s00
   17A9 ED 2Dr00s00        9611 	ldw	(ix+sxofx),hl		;ED 2Dr00s00
   17AD ED 35r00s00        9612 	ldw	sxofx(iy),hl		;ED 35r00s00
   17B1 ED 35r00s00        9613 	ldw	(iy+sxofx),hl		;ED 35r00s00
   17B5 DD ED 3Er00        9614 	ldw	sxofx(ix),sp		;DD ED 3Er00
   17B9 DD ED 3Er00        9615 	ldw	(ix+sxofx),sp		;DD ED 3Er00
   17BD FD ED 3Er00        9616 	ldw	sxofx(iy),sp		;FD ED 3Er00
   17C1 FD ED 3Er00        9617 	ldw	(iy+sxofx),sp		;FD ED 3Er00
   17C5 DD ED 0E 00        9681 	ldw	(ix),bc			;DD ED 0E 00
   17C9 DD ED 1E 00        9682 	ldw	(ix),de			;DD ED 1E 00
   17CD DD ED 2E 00        9683 	ldw	(ix),hl			;DD ED 2E 00
   17D1 DD ED 3E 00        9684 	ldw	(ix),sp			;DD ED 3E 00
   17D5 FD ED 0E 00        9685 	ldw	(iy),bc			;FD ED 0E 00
   17D9 FD ED 1E 00        9686 	ldw	(iy),de			;FD ED 1E 00
   17DD FD ED 2E 00        9687 	ldw	(iy),hl			;FD ED 2E 00
   17E1 FD ED 3E 00        9688 	ldw	(iy),sp			;FD ED 3E 00
                           9689 	;***********************************************************
                           9690 	;  p. 5-92
   17E5 F9                 9691 	ldw	sp,hl			;F9
   17E6 DD F9              9692 	ldw	sp,ix			;DD F9
   17E8 FD F9              9693 	ldw	sp,iy			;FD F9
   17EA F9                 9694 	ld	sp,hl			;F9
   17EB DD F9              9695 	ld	sp,ix			;DD F9
   17ED FD F9              9696 	ld	sp,iy			;FD F9
   17EF 31r00s00           9701 	ldw	sp,#nnx			;31r00s00
   17F2 31r00s00           9702 	ld	sp,#nnx			;31r00s00
   17F5 ED 36              9717 	ldw	sp,(hl)			;ED 36
   17F7 ED 36              9718 	ld	sp,(hl)			;ED 36
   17F9 ED 3E              9719 	ldw	(hl),sp			;ED 3E
   17FB ED 3E              9720 	ld	(hl),sp			;ED 3E
   17FD ED 7Br00s00        9725 	ldw	sp,(daddx)		;ED 7Br00s00
   1801 ED 7Br00s00        9726 	ld	sp,(daddx)		;ED 7Br00s00
   1805 DD ED 36r00        9727 	ldw	sp,(ix+sxofx)		;DD ED 36r00
   1809 DD ED 36r00        9728 	ld	sp,(ix+sxofx)		;DD ED 36r00
   180D DD ED 36r00        9729 	ldw	sp,sxofx(ix)		;DD ED 36r00
   1811 DD ED 36r00        9730 	ld	sp,sxofx(ix)		;DD ED 36r00
   1815 FD ED 36r00        9731 	ldw	sp,(iy+sxofx)		;FD ED 36r00
   1819 FD ED 36r00        9732 	ld	sp,(iy+sxofx)		;FD ED 36r00
   181D FD ED 36r00        9733 	ldw	sp,sxofx(iy)		;FD ED 36r00
   1821 FD ED 36r00        9734 	ld	sp,sxofx(iy)		;FD ED 36r00
   1825 ED 73r00s00        9769 	ldw	(daddx),sp		;ED 73r00s00
   1829 ED 73r00s00        9770 	ld	(daddx),sp		;ED 73r00s00
   182D DD ED 3Er00        9771 	ldw	(ix+sxofx),sp		;DD ED 3Er00
   1831 DD ED 3Er00        9772 	ld	(ix+sxofx),sp		;DD ED 3Er00
   1835 DD ED 3Er00        9773 	ldw	sxofx(ix),sp		;DD ED 3Er00
   1839 DD ED 3Er00        9774 	ld	sxofx(ix),sp		;DD ED 3Er00
   183D FD ED 3Er00        9775 	ldw	(iy+sxofx),sp		;FD ED 3Er00
   1841 FD ED 3Er00        9776 	ld	(iy+sxofx),sp		;FD ED 3Er00
   1845 FD ED 3Er00        9777 	ldw	sxofx(iy),sp		;FD ED 3Er00
   1849 FD ED 3Er00        9778 	ld	sxofx(iy),sp		;FD ED 3Er00
                           9809 
                           9810 ;*******************************************************************
                           9811 ;	LDD	
                           9812 ;*******************************************************************
                           9813 	;***********************************************************
                           9814 	; load location (hl)
                           9815 	; with location (de)
                           9816 	; decrement de, hl
                           9817 	; decrement bc
                           9818 	.z80
   184D ED A8              9819 	ldd				;ED A8
                           9820 
                           9821 ;*******************************************************************
                           9822 ;	LDDR	
                           9823 ;*******************************************************************
                           9824 	;***********************************************************
                           9825 	; load location (hl)
                           9826 	; with location (de)
                           9827 	; decrement de, hl
                           9828 	; decrement bc
                           9829 	; repeat until bc = 0
                           9830 	.z80
   184F ED B8              9831 	lddr				;ED B8
                           9832 
                           9833 ;*******************************************************************
                           9834 ;	LDI	
                           9835 ;*******************************************************************
                           9836 	;***********************************************************
                           9837 	; load location (hl)
                           9838 	; with location (de)
                           9839 	; increment de, hl
                           9840 	; decrement bc
                           9841 	.z80
   1851 ED A0              9842 	ldi				;ED A0
                           9843 
                           9844 ;*******************************************************************
                           9845 ;	LDIR	
                           9846 ;*******************************************************************
                           9847 	;***********************************************************
                           9848 	; load location (hl)
                           9849 	; with location (de)
                           9850 	; increment de, hl
                           9851 	; decrement bc
                           9852 	; repeat until bc = 0
                           9853 	.z80
   1853 ED B0              9854 	ldir				;ED B0
                           9855 
                           9856 ;*******************************************************************
                           9857 ;	MULT
                           9858 ;		Leading 'a' operand is optional.
                           9859 ;		If offset is ommitted 0 is assumed.
                           9860 ;*******************************************************************
                           9861 	;***********************************************************
                           9862 	; multiplication with 'a'
                           9863 	;  p. 5-93
                           9864 	.z280
   1855 ED C0              9865 	mult	a,b			;ED C0
   1857 ED C8              9866 	mult	a,c			;ED C8
   1859 ED D0              9867 	mult	a,d			;ED D0
   185B ED D8              9868 	mult	a,e			;ED D8
   185D ED E0              9869 	mult	a,h			;ED E0
   185F ED E8              9870 	mult	a,l			;ED E8
   1861 ED F8              9871 	mult	a,a			;ED F8
   1863 DD ED E0           9872 	mult	a,ixh			;DD ED E0
   1866 DD ED E8           9873 	mult	a,ixl			;DD ED E8
   1869 FD ED E0           9874 	mult	a,iyh			;FD ED E0
   186C FD ED E8           9875 	mult	a,iyl			;FD ED E8
   186F FD ED F8r00        9880 	mult	a,#nx			;FD ED F8r00
   1873 DD ED F8r00s00     9881 	mult	a,(daddx)		;DD ED F8r00s00
   1878 FD ED C8r00s00     9882 	mult	a,sxofx(ix)		;FD ED C8r00s00
   187D FD ED C8r00s00     9883 	mult	a,(ix+sxofx)		;FD ED C8r00s00
   1882 FD ED D0r00s00     9884 	mult	a,sxofx(iy)		;FD ED D0r00s00
   1887 FD ED D0r00s00     9885 	mult	a,(iy+sxofx)		;FD ED D0r00s00
   188C FD ED D8r00s00     9886 	mult	a,sxofx(hl)		;FD ED D8r00s00
   1891 FD ED D8r00s00     9887 	mult	a,(hl+sxofx)		;FD ED D8r00s00
   1896 DD ED C0r00s00     9888 	mult	a,sxofx(sp)		;DD ED C0r00s00
   189B DD ED C0r00s00     9889 	mult	a,(sp+sxofx)		;DD ED C0r00s00
   18A0 FD ED C8r00s00     9890 	mult	a,lxofx(ix)		;FD ED C8r00s00
   18A5 FD ED C8r00s00     9891 	mult	a,(ix+lxofx)		;FD ED C8r00s00
   18AA FD ED D0r00s00     9892 	mult	a,lxofx(iy)		;FD ED D0r00s00
   18AF FD ED D0r00s00     9893 	mult	a,(iy+lxofx)		;FD ED D0r00s00
   18B4 FD ED D8r00s00     9894 	mult	a,lxofx(hl)		;FD ED D8r00s00
   18B9 FD ED D8r00s00     9895 	mult	a,(hl+lxofx)		;FD ED D8r00s00
   18BE DD ED C0r00s00     9896 	mult	a,lxofx(sp)		;DD ED C0r00s00
   18C3 DD ED C0r00s00     9897 	mult	a,(sp+lxofx)		;DD ED C0r00s00
   18C8 DD ED F0 00        9957 	mult	a,(ix)			;DD ED F0 00
   18CC FD ED F0 00        9958 	mult	a,(iy)			;FD ED F0 00
   18D0 ED F0              9959 	mult	a,(hl)			;ED F0
   18D2 FD ED C0p00q00     9965 	mult	a,mult01(pc)		;FD ED C0p00q00
   18D7 FD ED C0p00q00     9969 	mult	a,(pc+mult02)		;FD ED C0p00q00
   18DC FD ED C0p00q00     9973 	mult	a,[mult03]		;FD ED C0p00q00
   18E1 FD ED C0 F6 FF    10043 	mult	a,[.-5]			;FD ED C0 F6 FF
   18E6 DD ED C8          10044 	mult	a,(hl+ix)		;DD ED C8
   18E9 DD ED D0          10045 	mult	a,(hl+iy)		;DD ED D0
   18EC DD ED D8          10046 	mult	a,(ix+iy)		;DD ED D8
                          10047 
                          10048 	;***********************************************************
                          10049 	; multiplication without 'a'
                          10050 	;  p. 5-93
   18EF ED C0             10051 	mult	b			;ED C0
   18F1 ED C8             10052 	mult	c			;ED C8
   18F3 ED D0             10053 	mult	d			;ED D0
   18F5 ED D8             10054 	mult	e			;ED D8
   18F7 ED E0             10055 	mult	h			;ED E0
   18F9 ED E8             10056 	mult	l			;ED E8
   18FB ED F8             10057 	mult	a			;ED F8
   18FD DD ED E0          10058 	mult	ixh			;DD ED E0
   1900 DD ED E8          10059 	mult	ixl			;DD ED E8
   1903 FD ED E0          10060 	mult	iyh			;FD ED E0
   1906 FD ED E8          10061 	mult	iyl			;FD ED E8
   1909 FD ED F8r00       10066 	mult	#nx			;FD ED F8r00
   190D DD ED F8r00s00    10067 	mult	(daddx)			;DD ED F8r00s00
   1912 FD ED C8r00s00    10068 	mult	sxofx(ix)		;FD ED C8r00s00
   1917 FD ED C8r00s00    10069 	mult	(ix+sxofx)		;FD ED C8r00s00
   191C FD ED D0r00s00    10070 	mult	sxofx(iy)		;FD ED D0r00s00
   1921 FD ED D0r00s00    10071 	mult	(iy+sxofx)		;FD ED D0r00s00
   1926 FD ED D8r00s00    10072 	mult	sxofx(hl)		;FD ED D8r00s00
   192B FD ED D8r00s00    10073 	mult	(hl+sxofx)		;FD ED D8r00s00
   1930 DD ED C0r00s00    10074 	mult	sxofx(sp)		;DD ED C0r00s00
   1935 DD ED C0r00s00    10075 	mult	(sp+sxofx)		;DD ED C0r00s00
   193A FD ED C8r00s00    10076 	mult	lxofx(ix)		;FD ED C8r00s00
   193F FD ED C8r00s00    10077 	mult	(ix+lxofx)		;FD ED C8r00s00
   1944 FD ED D0r00s00    10078 	mult	lxofx(iy)		;FD ED D0r00s00
   1949 FD ED D0r00s00    10079 	mult	(iy+lxofx)		;FD ED D0r00s00
   194E FD ED D8r00s00    10080 	mult	lxofx(hl)		;FD ED D8r00s00
   1953 FD ED D8r00s00    10081 	mult	(hl+lxofx)		;FD ED D8r00s00
   1958 DD ED C0r00s00    10082 	mult	lxofx(sp)		;DD ED C0r00s00
   195D DD ED C0r00s00    10083 	mult	(sp+lxofx)		;DD ED C0r00s00
   1962 DD ED F0 00       10143 	mult	(ix)			;DD ED F0 00
   1966 FD ED F0 00       10144 	mult	(iy)			;FD ED F0 00
   196A ED F0             10145 	mult	(hl)			;ED F0
   196C FD ED C0p00q00    10151 	mult	mult04(pc)		;FD ED C0p00q00
   1971 FD ED C0p00q00    10155 	mult	(pc+mult05)		;FD ED C0p00q00
   1976 FD ED C0p00q00    10159 	mult	[mult06]		;FD ED C0p00q00
   197B FD ED C0 F6 FF    10229 	mult	[.-5]			;FD ED C0 F6 FF
   1980 DD ED C8          10230 	mult	(hl+ix)		;DD ED C8
   1983 DD ED D0          10231 	mult	(hl+iy)		;DD ED D0
   1986 DD ED D8          10232 	mult	(ix+iy)		;DD ED D8
                          10233 
                          10234 ;*******************************************************************
                          10235 ;	MULTU	
                          10236 ;		Leading 'a' operand is optional.
                          10237 ;		If offset is ommitted 0 is assumed.
                          10238 ;*******************************************************************
                          10239 	; unsigned multiplication with 'a'
                          10240 	;  p. 5-93
                          10241 	.z280
   1989 ED C1             10242 	multu	a,b			;ED C1
   198B ED C9             10243 	multu	a,c			;ED C9
   198D ED D1             10244 	multu	a,d			;ED D1
   198F ED D9             10245 	multu	a,e			;ED D9
   1991 ED E1             10246 	multu	a,h			;ED E1
   1993 ED E9             10247 	multu	a,l			;ED E9
   1995 ED F9             10248 	multu	a,a			;ED F9
   1997 DD ED E1          10249 	multu	a,ixh			;DD ED E1
   199A DD ED E9          10250 	multu	a,ixl			;DD ED E9
   199D FD ED E1          10251 	multu	a,iyh			;FD ED E1
   19A0 FD ED E9          10252 	multu	a,iyl			;FD ED E9
   19A3 FD ED F9r00       10257 	multu	a,#nx			;FD ED F9r00
   19A7 DD ED F9r00s00    10258 	multu	a,(daddx)		;DD ED F9r00s00
   19AC FD ED C9r00s00    10259 	multu	a,sxofx(ix)		;FD ED C9r00s00
   19B1 FD ED C9r00s00    10260 	multu	a,(ix+sxofx)		;FD ED C9r00s00
   19B6 FD ED D1r00s00    10261 	multu	a,sxofx(iy)		;FD ED D1r00s00
   19BB FD ED D1r00s00    10262 	multu	a,(iy+sxofx)		;FD ED D1r00s00
   19C0 FD ED D9r00s00    10263 	multu	a,sxofx(hl)		;FD ED D9r00s00
   19C5 FD ED D9r00s00    10264 	multu	a,(hl+sxofx)		;FD ED D9r00s00
   19CA DD ED C1r00s00    10265 	multu	a,sxofx(sp)		;DD ED C1r00s00
   19CF DD ED C1r00s00    10266 	multu	a,(sp+sxofx)		;DD ED C1r00s00
   19D4 FD ED C9r00s00    10267 	multu	a,lxofx(ix)		;FD ED C9r00s00
   19D9 FD ED C9r00s00    10268 	multu	a,(ix+lxofx)		;FD ED C9r00s00
   19DE FD ED D1r00s00    10269 	multu	a,lxofx(iy)		;FD ED D1r00s00
   19E3 FD ED D1r00s00    10270 	multu	a,(iy+lxofx)		;FD ED D1r00s00
   19E8 FD ED D9r00s00    10271 	multu	a,lxofx(hl)		;FD ED D9r00s00
   19ED FD ED D9r00s00    10272 	multu	a,(hl+lxofx)		;FD ED D9r00s00
   19F2 DD ED C1r00s00    10273 	multu	a,lxofx(sp)		;DD ED C1r00s00
   19F7 DD ED C1r00s00    10274 	multu	a,(sp+lxofx)		;DD ED C1r00s00
   19FC DD ED F1 00       10334 	multu	a,(ix)			;DD ED F1 00
   1A00 FD ED F1 00       10335 	multu	a,(iy)			;FD ED F1 00
   1A04 ED F1             10336 	multu	a,(hl)			;ED F1
   1A06 DD ED C1 00 00    10337 	multu	a,(sp)			;DD ED C1 00 00
   1A0B FD ED C1p00q00    10343 	multu	a,multu01(pc)		;FD ED C1p00q00
   1A10 FD ED C1p00q00    10347 	multu	a,(pc+multu02)		;FD ED C1p00q00
   1A15 FD ED C1p00q00    10351 	multu	a,[multu03]		;FD ED C1p00q00
   1A1A FD ED C1 F6 FF    10421 	multu	a,[.-5]			;FD ED C1 F6 FF
   1A1F DD ED C9          10422 	multu	a,(hl+ix)		;DD ED C9
   1A22 DD ED D1          10423 	multu	a,(hl+iy)		;DD ED D1
   1A25 DD ED D9          10424 	multu	a,(ix+iy)		;DD ED D9
                          10425 
                          10426 	; unsigned multiplication without 'a'
                          10427 	;  p. 5-93
                          10428 	.z280
   1A28 ED C1             10429 	multu	b			;ED C1
   1A2A ED C9             10430 	multu	c			;ED C9
   1A2C ED D1             10431 	multu	d			;ED D1
   1A2E ED D9             10432 	multu	e			;ED D9
   1A30 ED E1             10433 	multu	h			;ED E1
   1A32 ED E9             10434 	multu	l			;ED E9
   1A34 ED F9             10435 	multu	a			;ED F9
   1A36 DD ED E1          10436 	multu	ixh			;DD ED E1
   1A39 DD ED E9          10437 	multu	ixl			;DD ED E9
   1A3C FD ED E1          10438 	multu	iyh			;FD ED E1
   1A3F FD ED E9          10439 	multu	iyl			;FD ED E9
   1A42 FD ED F9r00       10444 	multu	#nx			;FD ED F9r00
   1A46 DD ED F9r00s00    10445 	multu	(daddx)			;DD ED F9r00s00
   1A4B FD ED C9r00s00    10446 	multu	sxofx(ix)		;FD ED C9r00s00
   1A50 FD ED C9r00s00    10447 	multu	(ix+sxofx)		;FD ED C9r00s00
   1A55 FD ED D1r00s00    10448 	multu	sxofx(iy)		;FD ED D1r00s00
   1A5A FD ED D1r00s00    10449 	multu	(iy+sxofx)		;FD ED D1r00s00
   1A5F FD ED D9r00s00    10450 	multu	sxofx(hl)		;FD ED D9r00s00
   1A64 FD ED D9r00s00    10451 	multu	(hl+sxofx)		;FD ED D9r00s00
   1A69 DD ED C1r00s00    10452 	multu	sxofx(sp)		;DD ED C1r00s00
   1A6E DD ED C1r00s00    10453 	multu	(sp+sxofx)		;DD ED C1r00s00
   1A73 FD ED C9r00s00    10454 	multu	lxofx(ix)		;FD ED C9r00s00
   1A78 FD ED C9r00s00    10455 	multu	(ix+lxofx)		;FD ED C9r00s00
   1A7D FD ED D1r00s00    10456 	multu	lxofx(iy)		;FD ED D1r00s00
   1A82 FD ED D1r00s00    10457 	multu	(iy+lxofx)		;FD ED D1r00s00
   1A87 FD ED D9r00s00    10458 	multu	lxofx(hl)		;FD ED D9r00s00
   1A8C FD ED D9r00s00    10459 	multu	(hl+lxofx)		;FD ED D9r00s00
   1A91 DD ED C1r00s00    10460 	multu	lxofx(sp)		;DD ED C1r00s00
   1A96 DD ED C1r00s00    10461 	multu	(sp+lxofx)		;DD ED C1r00s00
   1A9B DD ED F1 00       10521 	multu	(ix)			;DD ED F1 00
   1A9F FD ED F1 00       10522 	multu	(iy)			;FD ED F1 00
   1AA3 ED F1             10523 	multu	(hl)			;ED F1
   1AA5 DD ED C1 00 00    10524 	multu	(sp)			;DD ED C1 00 00
   1AAA FD ED C1p00q00    10530 	multu	multu04(pc)		;FD ED C1p00q00
   1AAF FD ED C1p00q00    10534 	multu	(pc+multu05)		;FD ED C1p00q00
   1AB4 FD ED C1p00q00    10538 	multu	[multu06]		;FD ED C1p00q00
   1AB9 FD ED C1 F6 FF    10608 	multu	[.-5]			;FD ED C1 F6 FF
   1ABE DD ED C9          10609 	multu	(hl+ix)			;DD ED C9
   1AC1 DD ED D1          10610 	multu	(hl+iy)			;DD ED D1
   1AC4 DD ED D9          10611 	multu	(ix+iy)			;DD ED D9
                          10612 
                          10613 ;*******************************************************************
                          10614 ;	MULTUW	
                          10615 ;*******************************************************************
                          10616 	; unsigned word multiplication
                          10617 	;  p. 5-93
                          10618 	.z280
   1AC7 ED C3             10619 	multuw	hl,bc			;ED C3
   1AC9 ED D3             10620 	multuw	hl,de			;ED D3
   1ACB ED E3             10621 	multuw	hl,hl			;ED E3
   1ACD ED F3             10622 	multuw	hl,sp			;ED F3
   1ACF DD ED E3          10623 	multuw	hl,ix			;DD ED E3
   1AD2 FD ED E3          10624 	multuw	hl,iy			;FD ED E3
   1AD5 FD ED F3r00s00    10629 	multuw	hl,#nx			;FD ED F3r00s00
   1ADA FD ED F3r00s00    10630 	multuw	hl,#nnx			;FD ED F3r00s00
   1ADF FD ED C3r00s00    10631 	multuw	hl,sxofx(ix)		;FD ED C3r00s00
   1AE4 FD ED C3r00s00    10632 	multuw	hl,(ix+sxofx)		;FD ED C3r00s00
   1AE9 FD ED D3r00s00    10633 	multuw	hl,sxofx(iy)		;FD ED D3r00s00
   1AEE FD ED D3r00s00    10634 	multuw	hl,(iy+sxofx)		;FD ED D3r00s00
   1AF3 FD ED C3r00s00    10635 	multuw	hl,lxofx(ix)		;FD ED C3r00s00
   1AF8 FD ED C3r00s00    10636 	multuw	hl,(ix+lxofx)		;FD ED C3r00s00
   1AFD FD ED D3r00s00    10637 	multuw	hl,lxofx(iy)		;FD ED D3r00s00
   1B02 FD ED D3r00s00    10638 	multuw	hl,(iy+lxofx)		;FD ED D3r00s00
   1B07 DD ED C3          10669 	multuw	hl,(hl)			;DD ED C3
   1B0A FD ED C3 00 00    10670 	multuw	hl,(ix)			;FD ED C3 00 00
   1B0F FD ED D3 00 00    10671 	multuw	hl,(iy)			;FD ED D3 00 00
   1B14 DD ED F3p00q00    10677 	multuw	hl,multuw01(pc)		;DD ED F3p00q00
   1B19 DD ED F3p00q00    10681 	multuw	hl,(pc+multuw02)	;DD ED F3p00q00
   1B1E DD ED F3p00q00    10685 	multuw	hl,[multuw03]		;DD ED F3p00q00
   1B23 DD ED F3 1B 00    10755 	multuw	hl,[.+nc]		;DD ED F3 1B 00
                          10756 
                          10757 ;*******************************************************************
                          10758 ;	MULTW	
                          10759 ;*******************************************************************
                          10760 	; word multiplication
                          10761 	;  p. 5-93
                          10762 	.z280
   1B28 ED C2             10763 	multw	hl,bc			;ED C2
   1B2A ED D2             10764 	multw	hl,de			;ED D2
   1B2C ED E2             10765 	multw	hl,hl			;ED E2
   1B2E ED F2             10766 	multw	hl,sp			;ED F2
   1B30 DD ED E2          10767 	multw	hl,ix			;DD ED E2
   1B33 FD ED E2          10768 	multw	hl,iy			;FD ED E2
   1B36 FD ED F2r00s00    10773 	multw	hl,#nx			;FD ED F2r00s00
   1B3B FD ED F2r00s00    10774 	multw	hl,#nnx			;FD ED F2r00s00
   1B40 DD ED D2r00s00    10775 	multw	hl,(daddx)		;DD ED D2r00s00
   1B45 FD ED C2r00s00    10776 	multw	hl,sxofx(ix)		;FD ED C2r00s00
   1B4A FD ED C2r00s00    10777 	multw	hl,(ix+sxofx)		;FD ED C2r00s00
   1B4F FD ED D2r00s00    10778 	multw	hl,sxofx(iy)		;FD ED D2r00s00
   1B54 FD ED D2r00s00    10779 	multw	hl,(iy+sxofx)		;FD ED D2r00s00
   1B59 FD ED C2r00s00    10780 	multw	hl,lxofx(ix)		;FD ED C2r00s00
   1B5E FD ED C2r00s00    10781 	multw	hl,(ix+lxofx)		;FD ED C2r00s00
   1B63 FD ED D2r00s00    10782 	multw	hl,lxofx(iy)		;FD ED D2r00s00
   1B68 FD ED D2r00s00    10783 	multw	hl,(iy+lxofx)		;FD ED D2r00s00
   1B6D DD ED C2          10816 	multw	hl,(hl)			;DD ED C2
   1B70 FD ED C2 00 00    10817 	multw	hl,(ix)			;FD ED C2 00 00
   1B75 FD ED D2 00 00    10818 	multw	hl,(iy)			;FD ED D2 00 00
   1B7A DD ED F2p00q00    10824 	multw	hl,multw01(pc)		;DD ED F2p00q00
   1B7F DD ED F2p00q00    10828 	multw	hl,(pc+multw02)		;DD ED F2p00q00
   1B84 DD ED F2p00q00    10832 	multw	hl,[multw03]		;DD ED F2p00q00
   1B89 DD ED F2 1B 00    10902 	multw	hl,[.+nc]		;DD ED F2 1B 00
                          10903 
                          10904 ;*******************************************************************
                          10905 ;	NEG	
                          10906 ;*******************************************************************
                          10907 	;***********************************************************
                          10908 	; 2's complement of 'a'
                          10909 	.z80
   1B8E ED 44             10910 	neg				;ED 44
   1B90 ED 44             10911 	neg	a			;ED 44
                          10912 	.z280
   1B92 ED 4C             10913 	neg	hl			;ED 4C
                          10914 
                          10915 ;*******************************************************************
                          10916 ;	NOP	
                          10917 ;*******************************************************************
                          10918 	;***********************************************************
                          10919 	; no operation
                          10920 	.z80
   1B94 00                10921 	nop				;00
                          10922 
                          10923 ;*******************************************************************
                          10924 ;	OR	
                          10925 ;		Leading 'a' operand is optional.
                          10926 ;		If offset is ommitted 0 is assumed.
                          10927 ;*******************************************************************
                          10928 	;***********************************************************
                          10929 	; logical 'or' operand with 'a'
                          10930 	.z80
   1B95 B6                10931 	or	a,(hl)			;B6
   1B96 F6r00             10936 	or	a,#nx			;F6r00
   1B98 F6r00             10937 	or	a, nx			;F6r00
   1B9A DD B6r00          10938 	or	a,offsetx(ix)		;DD B6r00
   1B9D FD B6r00          10939 	or	a,offsetx(iy)		;FD B6r00
   1BA0 DD B6r00          10940 	or	a,(ix+offsetx)		;DD B6r00
   1BA3 FD B6r00          10941 	or	a,(iy+offsetx)		;FD B6r00
   1BA6 B7                10964 	or	a,a			;B7
   1BA7 B0                10965 	or	a,b			;B0
   1BA8 B1                10966 	or	a,c			;B1
   1BA9 B2                10967 	or	a,d			;B2
   1BAA B3                10968 	or	a,e			;B3
   1BAB B4                10969 	or	a,h			;B4
   1BAC B5                10970 	or	a,l			;B5
                          10971 	;***********************************************************
                          10972 	;  p. 5-100
                          10973 	.z280
   1BAD DD B1             10974 	or	a,(hl+ix)		;DD B1
   1BAF DD B2             10975 	or	a,(hl+iy)		;DD B2
   1BB1 DD B3             10976 	or	a,(ix+iy)		;DD B3
   1BB3 DD B7r00s00       10981 	or	a,(daddx)		;DD B7r00s00
   1BB7 FD B1r00s00       10982 	or	a,sxofx(ix)		;FD B1r00s00
   1BBB FD B1r00s00       10983 	or	a,(ix+sxofx)		;FD B1r00s00
   1BBF FD B2r00s00       10984 	or	a,sxofx(iy)		;FD B2r00s00
   1BC3 FD B2r00s00       10985 	or	a,(iy+sxofx)		;FD B2r00s00
   1BC7 FD B3r00s00       10986 	or	a,sxofx(hl)		;FD B3r00s00
   1BCB FD B3r00s00       10987 	or	a,(hl+sxofx)		;FD B3r00s00
   1BCF DD B0r00s00       10988 	or	a,sxofx(sp)		;DD B0r00s00
   1BD3 DD B0r00s00       10989 	or	a,(sp+sxofx)		;DD B0r00s00
   1BD7 FD B1r00s00       10990 	or	a,lxofx(ix)		;FD B1r00s00
   1BDB FD B1r00s00       10991 	or	a,(ix+lxofx)		;FD B1r00s00
   1BDF FD B2r00s00       10992 	or	a,lxofx(iy)		;FD B2r00s00
   1BE3 FD B2r00s00       10993 	or	a,(iy+lxofx)		;FD B2r00s00
   1BE7 FD B3r00s00       10994 	or	a,lxofx(hl)		;FD B3r00s00
   1BEB FD B3r00s00       10995 	or	a,(hl+lxofx)		;FD B3r00s00
   1BEF DD B0r00s00       10996 	or	a,lxofx(sp)		;DD B0r00s00
   1BF3 DD B0r00s00       10997 	or	a,(sp+lxofx)		;DD B0r00s00
   1BF7 FD B0p00q00       11056 	or	a,or01(pc)		;FD B0p00q00
   1BFB FD B0p00q00       11060 	or	a,(pc+or02)		;FD B0p00q00
   1BFF FD B0p00q00       11064 	or	a,[or03]		;FD B0p00q00
   1C03 FD B0 1E 11       11134 	or	a,[.+lxofc]		;FD B0 1E 11
   1C07 DD B4             11135 	or	a,ixh			;DD B4
   1C09 DD B5             11136 	or	a,ixl			;DD B5
   1C0B FD B4             11137 	or	a,iyh			;FD B4
   1C0D FD B5             11138 	or	a,iyl			;FD B5
                          11139 
                          11140 	;***********************************************************
                          11141 	; logical 'or' operand without 'a'
                          11142 	.z80
   1C0F B6                11143 	or	a,(hl)			;B6
   1C10 F6r00             11148 	or	#nx			;F6r00
   1C12 F6r00             11149 	or	 nx			;F6r00
   1C14 DD B6r00          11150 	or	offsetx(ix)		;DD B6r00
   1C17 FD B6r00          11151 	or	offsetx(iy)		;FD B6r00
   1C1A DD B6r00          11152 	or	(ix+offsetx)		;DD B6r00
   1C1D FD B6r00          11153 	or	(iy+offsetx)		;FD B6r00
   1C20 B7                11176 	or	a			;B7
   1C21 B0                11177 	or	b			;B0
   1C22 B1                11178 	or	c			;B1
   1C23 B2                11179 	or	d			;B2
   1C24 B3                11180 	or	e			;B3
   1C25 B4                11181 	or	h			;B4
   1C26 B5                11182 	or	l			;B5
                          11183 	;***********************************************************
                          11184 	;  p. 5-100
                          11185 	.z280
   1C27 DD B1             11186 	or	(hl+ix)		;DD B1
   1C29 DD B2             11187 	or	(hl+iy)		;DD B2
   1C2B DD B3             11188 	or	(ix+iy)		;DD B3
   1C2D DD B7r00s00       11193 	or	(daddx)			;DD B7r00s00
   1C31 FD B1r00s00       11194 	or	sxofx(ix)		;FD B1r00s00
   1C35 FD B1r00s00       11195 	or	(ix+sxofx)		;FD B1r00s00
   1C39 FD B2r00s00       11196 	or	sxofx(iy)		;FD B2r00s00
   1C3D FD B2r00s00       11197 	or	(iy+sxofx)		;FD B2r00s00
   1C41 DD B0r00s00       11198 	or	sxofx(sp)		;DD B0r00s00
   1C45 DD B0r00s00       11199 	or	(sp+sxofx)		;DD B0r00s00
   1C49 FD B3r00s00       11200 	or	sxofx(hl)		;FD B3r00s00
   1C4D FD B3r00s00       11201 	or	(hl+sxofx)		;FD B3r00s00
   1C51 FD B1r00s00       11202 	or	lxofx(ix)		;FD B1r00s00
   1C55 FD B1r00s00       11203 	or	(ix+lxofx)		;FD B1r00s00
   1C59 FD B2r00s00       11204 	or	lxofx(iy)		;FD B2r00s00
   1C5D FD B2r00s00       11205 	or	(iy+lxofx)		;FD B2r00s00
   1C61 FD B3r00s00       11206 	or	lxofx(hl)		;FD B3r00s00
   1C65 FD B3r00s00       11207 	or	(hl+lxofx)		;FD B3r00s00
   1C69 DD B0r00s00       11208 	or	lxofx(sp)		;DD B0r00s00
   1C6D DD B0r00s00       11209 	or	(sp+lxofx)		;DD B0r00s00
   1C71 FD B0p00q00       11272 	or	or04(pc)		;FD B0p00q00
   1C75 FD B0p00q00       11276 	or	(pc+or05)		;FD B0p00q00
   1C79 FD B0p00q00       11280 	or	[or06]			;FD B0p00q00
   1C7D FD B0 1E 11       11350 	or	[.+lxofc]		;FD B0 1E 11
   1C81 DD B4             11351 	or	ixh			;DD B4
   1C83 DD B5             11352 	or	ixl			;DD B5
   1C85 FD B4             11353 	or	iyh			;FD B4
   1C87 FD B5             11354 	or	iyl			;FD B5
                          11355 
                          11356 ;*******************************************************************
                          11357 ;	OTDR	
                          11358 ;*******************************************************************
                          11359 	;***********************************************************
                          11360 	; load output port (c)
                          11361 	; with location (hl)
                          11362 	; decrement hl and decrement b
                          11363 	; repeat until b = 0
                          11364 	.z80
   1C89 ED BB             11365 	otdr				;ED BB
                          11366 
                          11367 ;*******************************************************************
                          11368 ;	OTIR	
                          11369 ;*******************************************************************
                          11370 	;***********************************************************
                          11371 	; load output port (c)
                          11372 	; with location (hl)
                          11373 	; increment hl and decrement b
                          11374 	; repeat until b = 0
                          11375 	.z80
   1C8B ED B3             11376 	otir				;ED B3
                          11377 
                          11378 ;*******************************************************************
                          11379 ;	OUT	
                          11380 ;*******************************************************************
                          11381 	;***********************************************************
                          11382 	; load output port (c) with reg
                          11383 	.z80
   1C8D ED 79             11384 	out	(c),a			;ED 79
   1C8F ED 41             11385 	out	(c),b			;ED 41
   1C91 ED 49             11386 	out	(c),c			;ED 49
   1C93 ED 51             11387 	out	(c),d			;ED 51
   1C95 ED 59             11388 	out	(c),e			;ED 59
   1C97 ED 61             11389 	out	(c),h			;ED 61
   1C99 ED 69             11390 	out	(c),l			;ED 69
                          11391 	;***********************************************************
                          11392 	;  p. 5-105
                          11393 	.z280
   1C9B DD ED 69          11394 	out	(c),ixl			;DD ED 69
   1C9E DD ED 61          11395 	out	(c),ixh			;DD ED 61
   1CA1 FD ED 69          11396 	out	(c),iyl			;FD ED 69
   1CA4 FD ED 61          11397 	out	(c),iyh			;FD ED 61
   1CA7 DD ED 79r00s00    11402 	out	(c),(daddx)		;DD ED 79r00s00
   1CAC FD ED 59r00s00    11403 	out	(c),sxofx(hl)		;FD ED 59r00s00
   1CB1 FD ED 59r00s00    11404 	out	(c),(hl+sxofx)		;FD ED 59r00s00
   1CB6 FD ED 59r00s00    11405 	out	(c),lxofx(hl)		;FD ED 59r00s00
   1CBB FD ED 59r00s00    11406 	out	(c),(hl+lxofx)		;FD ED 59r00s00
   1CC0 FD ED 49r00s00    11407 	out	(c),sxofx(ix)		;FD ED 49r00s00
   1CC5 FD ED 49r00s00    11408 	out	(c),(ix+sxofx)		;FD ED 49r00s00
   1CCA FD ED 49r00s00    11409 	out	(c),lxofx(ix)		;FD ED 49r00s00
   1CCF FD ED 49r00s00    11410 	out	(c),(ix+lxofx)		;FD ED 49r00s00
   1CD4 FD ED 51r00s00    11411 	out	(c),sxofx(iy)		;FD ED 51r00s00
   1CD9 FD ED 51r00s00    11412 	out	(c),(iy+sxofx)		;FD ED 51r00s00
   1CDE FD ED 51r00s00    11413 	out	(c),lxofx(iy)		;FD ED 51r00s00
   1CE3 FD ED 51r00s00    11414 	out	(c),(iy+lxofx)		;FD ED 51r00s00
   1CE8 DD ED 41r00s00    11415 	out	(c),offsetx(sp)		;DD ED 41r00s00
   1CED DD ED 41r00s00    11416 	out	(c),(sp+offsetx)		;DD ED 41r00s00
   1CF2 DD ED 41r00s00    11417 	out	(c),lxofx(sp)		;DD ED 41r00s00
   1CF7 DD ED 41r00s00    11418 	out	(c),(sp+lxofx)		;DD ED 41r00s00
   1CFC FD ED 41p00q00    11468 	out	(c),out01(pc)		;FD ED 41p00q00
   1D01 FD ED 41p00q00    11472 	out	(c),(pc+out02)		;FD ED 41p00q00
   1D06 FD ED 41p00q00    11476 	out	(c),[out03]		;FD ED 41p00q00
   1D0B FD ED 41 50 00    11546 	out	(c),[.+offsetc]		;FD ED 41 50 00
   1D10 DD ED 49          11547 	out	(c),(hl+ix)		;DD ED 49
   1D13 DD ED 51          11548 	out	(c),(hl+iy)		;DD ED 51
   1D16 DD ED 59          11549 	out	(c),(ix+iy)		;DD ED 59
                          11550 	;***********************************************************
                          11551 	; load output port (n) with 'a'
                          11552 	.z80
   1D19 D3r00             11557  	out	(nx),a			;D3r00
   1D1B D3r00             11558 	out	nx,a			;D3r00
                          11573 
                          11574 ;*******************************************************************
                          11575 ;	OUTD	
                          11576 ;*******************************************************************
                          11577 	;***********************************************************
                          11578 	; load output port (c)
                          11579 	; with location (hl)
                          11580 	; decrement hl and decrement b
                          11581 	.z80
   1D1D ED AB             11582 	outd				;ED AB
                          11583 
                          11584 ;*******************************************************************
                          11585 ;	OUTI	
                          11586 ;*******************************************************************
                          11587 	;***********************************************************
                          11588 	; load output port (c)
                          11589 	; with location (hl)
                          11590 	; increment hl and decrement b
                          11591 	.z80
   1D1F ED A3             11592 	outi				;ED A3
                          11593 
                          11594 ;*******************************************************************
                          11595 ;	OUTDW	
                          11596 ;*******************************************************************
                          11597 	;***********************************************************
                          11598 	.z280
   1D21 ED 8B             11599 	outdw				;ED 8B
   1D23 ED 83             11600 	outiw				;ED 83
   1D25 ED 9B             11601 	otdrw				;ED 9B
   1D27 ED 93             11602 	otirw				;ED 93
                          11603 
                          11604 ;*******************************************************************
                          11605 ;	OUTW	
                          11606 ;*******************************************************************
                          11607 	;***********************************************************
                          11608 	;  p. 5-110	output to word port
                          11609 	.z280
   1D29 ED BF             11610 	out	(c),hl			;ED BF
   1D2B ED BF             11611 	outw	(c),hl			;ED BF
                          11612 
                          11613 ;*******************************************************************
                          11614 ;	PCACHE	
                          11615 ;*******************************************************************
                          11616 	;***********************************************************
                          11617 	;  p. 5-111    NOT privileged
                          11618 	.z280
   1D2D ED 65             11619 	pcache				;ED 65
                          11620 
                          11621 ;*******************************************************************
                          11622 ;	POP	
                          11623 ;*******************************************************************
                          11624 	;***********************************************************
                          11625 	; load destination with top of stack
                          11626 	.z80
   1D2F F1                11627 	pop	af			;F1
   1D30 C1                11628 	pop	bc			;C1
   1D31 D1                11629 	pop	de			;D1
   1D32 E1                11630 	pop	hl			;E1
   1D33 DD E1             11631 	pop	ix			;DD E1
   1D35 FD E1             11632 	pop	iy			;FD E1
                          11633 	.z280
   1D37 DD D1r00s00       11638 	pop	(daddx)			;DD D1r00s00
   1D3B DD F1p00q00       11656 	pop	pop01(pc)		;DD F1p00q00
   1D3F DD F1p00q00       11660 	pop	(pc+pop02)		;DD F1p00q00
   1D43 DD F1p00q00       11664 	pop	[pop03]			;DD F1p00q00
   1D47 DD F1 1E 11       11734 	pop	[.+lxofc]		;DD F1 1E 11
   1D4B DD C1             11735 	pop	(hl)			;DD C1
                          11736 
                          11737 ;*******************************************************************
                          11738 ;	PUSH	
                          11739 ;*******************************************************************
                          11740 	;***********************************************************
                          11741 	; put source on stack
                          11742 	.z80
   1D4D F5                11743 	push	af			;F5
   1D4E C5                11744 	push	bc			;C5
   1D4F D5                11745 	push	de			;D5
   1D50 E5                11746 	push	hl			;E5
   1D51 DD E5             11747 	push	ix			;DD E5
   1D53 FD E5             11748 	push	iy			;FD E5
                          11749 	.z280
   1D55 DD D5r00s00       11754 	push	(daddx)			;DD D5r00s00
   1D59 FD F5r00s00       11755 	push	#nnx			;FD F5r00s00
   1D5D DD F5p00q00       11775 	push	push01(pc)		;DD F5p00q00
   1D61 DD F5p00q00       11779 	push	(pc+push02)		;DD F5p00q00
   1D65 DD F5p00q00       11783 	push	[push03]		;DD F5p00q00
   1D69 DD F5 1E 11       11853 	push	[.+lxofc]		;DD F5 1E 11
   1D6D DD C5             11854 	push	(hl)			;DD C5
                          11855 
                          11856 ;*******************************************************************
                          11857 ;	RES	
                          11858 ;*******************************************************************
                          11859 	;***********************************************************
                          11860 	; reset bit of location or register
                          11861 	.z80
   1D6F CB 86             11862 	res	0,(hl)			;CB 86
   1D71 DD CBr00 86       11867 	res	0,offsetx(ix)		;DD CBr00 86
   1D75 FD CBr00 86       11868 	res	0,offsetx(iy)		;FD CBr00 86
   1D79 DD CBr00 86       11869 	res	0,(ix+offsetx)		;DD CBr00 86
   1D7D FD CBr00 86       11870 	res	0,(iy+offsetx)		;FD CBr00 86
   1D81 CB 87             11889 	res	0,a			;CB 87
   1D83 CB 80             11890 	res	0,b			;CB 80
   1D85 CB 81             11891 	res	0,c			;CB 81
   1D87 CB 82             11892 	res	0,d			;CB 82
   1D89 CB 83             11893 	res	0,e			;CB 83
   1D8B CB 84             11894 	res	0,h			;CB 84
   1D8D CB 85             11895 	res	0,l			;CB 85
   1D8F CB 8E             11896 	res	1,(hl)			;CB 8E
   1D91 DD CBr00 8E       11901 	res	1,offsetx(ix)		;DD CBr00 8E
   1D95 FD CBr00 8E       11902 	res	1,offsetx(iy)		;FD CBr00 8E
   1D99 DD CBr00 8E       11903 	res	1,(ix+offsetx)		;DD CBr00 8E
   1D9D FD CBr00 8E       11904 	res	1,(iy+offsetx)		;FD CBr00 8E
   1DA1 CB 8F             11923 	res	1,a			;CB 8F
   1DA3 CB 88             11924 	res	1,b			;CB 88
   1DA5 CB 89             11925 	res	1,c			;CB 89
   1DA7 CB 8A             11926 	res	1,d			;CB 8A
   1DA9 CB 8B             11927 	res	1,e			;CB 8B
   1DAB CB 8C             11928 	res	1,h			;CB 8C
   1DAD CB 8D             11929 	res	1,l			;CB 8D
   1DAF CB 96             11930 	res	2,(hl)			;CB 96
   1DB1 DD CBr00 96       11935 	res	2,offsetx(ix)		;DD CBr00 96
   1DB5 FD CBr00 96       11936 	res	2,offsetx(iy)		;FD CBr00 96
   1DB9 DD CBr00 96       11937 	res	2,(ix+offsetx)		;DD CBr00 96
   1DBD FD CBr00 96       11938 	res	2,(iy+offsetx)		;FD CBr00 96
   1DC1 CB 97             11957 	res	2,a			;CB 97
   1DC3 CB 90             11958 	res	2,b			;CB 90
   1DC5 CB 91             11959 	res	2,c			;CB 91
   1DC7 CB 92             11960 	res	2,d			;CB 92
   1DC9 CB 93             11961 	res	2,e			;CB 93
   1DCB CB 94             11962 	res	2,h			;CB 94
   1DCD CB 95             11963 	res	2,l			;CB 95
   1DCF CB 9E             11964 	res	3,(hl)			;CB 9E
   1DD1 DD CBr00 9E       11969 	res	3,offsetx(ix)		;DD CBr00 9E
   1DD5 FD CBr00 9E       11970 	res	3,offsetx(iy)		;FD CBr00 9E
   1DD9 DD CBr00 9E       11971 	res	3,(ix+offsetx)		;DD CBr00 9E
   1DDD FD CBr00 9E       11972 	res	3,(iy+offsetx)		;FD CBr00 9E
   1DE1 CB 9F             11991 	res	3,a			;CB 9F
   1DE3 CB 98             11992 	res	3,b			;CB 98
   1DE5 CB 99             11993 	res	3,c			;CB 99
   1DE7 CB 9A             11994 	res	3,d			;CB 9A
   1DE9 CB 9B             11995 	res	3,e			;CB 9B
   1DEB CB 9C             11996 	res	3,h			;CB 9C
   1DED CB 9D             11997 	res	3,l			;CB 9D
   1DEF CB A6             11998 	res	4,(hl)			;CB A6
   1DF1 DD CBr00 A6       12003  	res	4,offsetx(ix)		;DD CBr00 A6
   1DF5 FD CBr00 A6       12004 	res	4,offsetx(iy)		;FD CBr00 A6
   1DF9 DD CBr00 A6       12005 	res	4,(ix+offsetx)		;DD CBr00 A6
   1DFD FD CBr00 A6       12006 	res	4,(iy+offsetx)		;FD CBr00 A6
   1E01 CB A7             12025 	res	4,a			;CB A7
   1E03 CB A0             12026 	res	4,b			;CB A0
   1E05 CB A1             12027 	res	4,c			;CB A1
   1E07 CB A2             12028 	res	4,d			;CB A2
   1E09 CB A3             12029 	res	4,e			;CB A3
   1E0B CB A4             12030 	res	4,h			;CB A4
   1E0D CB A5             12031 	res	4,l			;CB A5
   1E0F CB AE             12032 	res	5,(hl)			;CB AE
   1E11 DD CBr00 AE       12037 	res	5,offsetx(ix)		;DD CBr00 AE
   1E15 FD CBr00 AE       12038 	res	5,offsetx(iy)		;FD CBr00 AE
   1E19 DD CBr00 AE       12039 	res	5,(ix+offsetx)		;DD CBr00 AE
   1E1D FD CBr00 AE       12040 	res	5,(iy+offsetx)		;FD CBr00 AE
   1E21 CB AF             12059 	res	5,a			;CB AF
   1E23 CB A8             12060 	res	5,b			;CB A8
   1E25 CB A9             12061 	res	5,c			;CB A9
   1E27 CB AA             12062 	res	5,d			;CB AA
   1E29 CB AB             12063 	res	5,e			;CB AB
   1E2B CB AC             12064 	res	5,h			;CB AC
   1E2D CB AD             12065 	res	5,l			;CB AD
   1E2F CB B6             12066 	res	6,(hl)			;CB B6
   1E31 DD CBr00 B6       12071 	res	6,offsetx(ix)		;DD CBr00 B6
   1E35 FD CBr00 B6       12072 	res	6,offsetx(iy)		;FD CBr00 B6
   1E39 DD CBr00 B6       12073 	res	6,(ix+offsetx)		;DD CBr00 B6
   1E3D FD CBr00 B6       12074 	res	6,(iy+offsetx)		;FD CBr00 B6
   1E41 CB B7             12093 	res	6,a			;CB B7
   1E43 CB B0             12094 	res	6,b			;CB B0
   1E45 CB B1             12095 	res	6,c			;CB B1
   1E47 CB B2             12096 	res	6,d			;CB B2
   1E49 CB B3             12097 	res	6,e			;CB B3
   1E4B CB B4             12098 	res	6,h			;CB B4
   1E4D CB B5             12099 	res	6,l			;CB B5
   1E4F CB BE             12100 	res	7,(hl)			;CB BE
   1E51 DD CBr00 BE       12105 	res	7,offsetx(ix)		;DD CBr00 BE
   1E55 FD CBr00 BE       12106 	res	7,offsetx(iy)		;FD CBr00 BE
   1E59 DD CBr00 BE       12107 	res	7,(ix+offsetx)		;DD CBr00 BE
   1E5D FD CBr00 BE       12108 	res	7,(iy+offsetx)		;FD CBr00 BE
   1E61 CB BF             12127 	res	7,a			;CB BF
   1E63 CB B8             12128 	res	7,b			;CB B8
   1E65 CB B9             12129 	res	7,c			;CB B9
   1E67 CB BA             12130 	res	7,d			;CB BA
   1E69 CB BB             12131 	res	7,e			;CB BB
   1E6B CB BC             12132 	res	7,h			;CB BC
   1E6D CB BD             12133 	res	7,l			;CB BD
                          12134 
                          12135 ;*******************************************************************
                          12136 ;	RET	
                          12137 ;*******************************************************************
                          12138 	;***********************************************************
                          12139 	; return from subroutine
                          12140 	.z80
   1E6F C9                12141 	ret				;C9
                          12142 	;***********************************************************
                          12143 	; return from subroutine if condition is true
   1E70 D8                12144 	ret	C			;D8
   1E71 F8                12145 	ret	M			;F8
   1E72 D0                12146 	ret	NC			;D0
   1E73 C0                12147 	ret	NZ			;C0
   1E74 F0                12148 	ret	P			;F0
   1E75 E8                12149 	ret	PE			;E8
   1E76 E0                12150 	ret	PO			;E0
   1E77 C8                12151 	ret	Z			;C8
                          12152 
                          12153 ;*******************************************************************
                          12154 ;	RETI	
                          12155 ;*******************************************************************
                          12156 	;***********************************************************
                          12157 	; return from interrupt (privileged)
                          12158 	.z80
   1E78 ED 4D             12159 	reti				;ED 4D
                          12160 
                          12161 ;*******************************************************************
                          12162 ;	RETN	
                          12163 ;*******************************************************************
                          12164 	;***********************************************************
                          12165 	; return from non-maskable interrupt (privileged)
                          12166 	.z80
   1E7A ED 45             12167 	retn				;ED 45
                          12168 
                          12169 ;*******************************************************************
                          12170 ;	RETIL	
                          12171 ;*******************************************************************
                          12172 	;***********************************************************
                          12173 	; return from interrupt (long)
                          12174 	.z280p
   1E7C ED 55             12175 	retil				;ED 55
                          12176 
                          12177 ;*******************************************************************
                          12178 ;	RL	
                          12179 ;*******************************************************************
                          12224 	;***********************************************************
                          12225 	; rotate left through carry
                          12226 	.z80
   1E7E CB 16             12227 	rl	(hl)			;CB 16
   1E80 DD CBr00 16       12232 	rl	offsetx(ix)		;DD CBr00 16
   1E84 FD CBr00 16       12233 	rl	offsetx(iy)		;FD CBr00 16
   1E88 DD CBr00 16       12234 	rl	(ix+offsetx)		;DD CBr00 16
   1E8C FD CBr00 16       12235 	rl	(iy+offsetx)		;FD CBr00 16
   1E90 CB 17             12254 	rl	a			;CB 17
   1E92 CB 10             12255 	rl	b			;CB 10
   1E94 CB 11             12256 	rl	c			;CB 11
   1E96 CB 12             12257 	rl	d			;CB 12
   1E98 CB 13             12258 	rl	e			;CB 13
   1E9A CB 14             12259 	rl	h			;CB 14
   1E9C CB 15             12260 	rl	l			;CB 15
                          12261 
                          12262 ;*******************************************************************
                          12263 ;	RLA	
                          12264 ;*******************************************************************
                          12265 	;***********************************************************
                          12266 	; rotate left 'a' with carry
                          12267 	.z80
   1E9E 17                12268 	rla				;17
                          12269 
                          12270 ;*******************************************************************
                          12271 ;	RLC	
                          12272 ;*******************************************************************
                          12317 	;***********************************************************
                          12318 	; rotate left circular
                          12319 	.z80
   1E9F CB 06             12320 	rlc	(hl)			;CB 06
   1EA1 DD CBr00 06       12325 	rlc	offsetx(ix)		;DD CBr00 06
   1EA5 FD CBr00 06       12326 	rlc	offsetx(iy)		;FD CBr00 06
   1EA9 DD CBr00 06       12327 	rlc	(ix+offsetx)		;DD CBr00 06
   1EAD FD CBr00 06       12328 	rlc	(iy+offsetx)		;FD CBr00 06
   1EB1 CB 07             12347 	rlc	a			;CB 07
   1EB3 CB 00             12348 	rlc	b			;CB 00
   1EB5 CB 01             12349 	rlc	c			;CB 01
   1EB7 CB 02             12350 	rlc	d			;CB 02
   1EB9 CB 03             12351 	rlc	e			;CB 03
   1EBB CB 04             12352 	rlc	h			;CB 04
   1EBD CB 05             12353 	rlc	l			;CB 05
                          12354 
                          12355 ;*******************************************************************
                          12356 ;	RLCA	
                          12357 ;*******************************************************************
                          12358 	;***********************************************************
                          12359 	; rotate left 'a' circular
                          12360 	.z80
   1EBF 07                12361 	rlca				;07
                          12362 
                          12363 ;*******************************************************************
                          12364 ;	RLD	
                          12365 ;*******************************************************************
                          12366 	;***********************************************************
                          12367 	; rotate digit left and right
                          12368 	; between 'a' and location (hl)
                          12369 	.z80
   1EC0 ED 6F             12370 	rld				;ED 6F
                          12371 
                          12372 ;*******************************************************************
                          12373 ;	RR	
                          12374 ;*******************************************************************
                          12419 	;***********************************************************
                          12420 	; rotate right through carry
                          12421 	.z80
   1EC2 CB 1E             12422 	rr	(hl)			;CB 1E
   1EC4 DD CBr00 1E       12427 	rr	offsetx(ix)		;DD CBr00 1E
   1EC8 FD CBr00 1E       12428 	rr	offsetx(iy)		;FD CBr00 1E
   1ECC DD CBr00 1E       12429 	rr	(ix+offsetx)		;DD CBr00 1E
   1ED0 FD CBr00 1E       12430 	rr	(iy+offsetx)		;FD CBr00 1E
   1ED4 CB 1F             12449 	rr	a			;CB 1F
   1ED6 CB 18             12450 	rr	b			;CB 18
   1ED8 CB 19             12451 	rr	c			;CB 19
   1EDA CB 1A             12452 	rr	d			;CB 1A
   1EDC CB 1B             12453 	rr	e			;CB 1B
   1EDE CB 1C             12454 	rr	h			;CB 1C
   1EE0 CB 1D             12455 	rr	l			;CB 1D
                          12456 
                          12457 ;*******************************************************************
                          12458 ;	RRA	
                          12459 ;*******************************************************************
                          12460 	;***********************************************************
                          12461 	; rotate 'a' right with carry
                          12462 	.z80
   1EE2 1F                12463 	rra				;1F
                          12464 
                          12465 ;*******************************************************************
                          12466 ;	RRC	
                          12467 ;*******************************************************************
                          12512 	;***********************************************************
                          12513 	; rotate right circular
                          12514 	.z80
   1EE3 CB 0E             12515 	rrc	(hl)			;CB 0E
   1EE5 DD CBr00 0E       12520 	rrc	offsetx(ix)		;DD CBr00 0E
   1EE9 FD CBr00 0E       12521 	rrc	offsetx(iy)		;FD CBr00 0E
   1EED DD CBr00 0E       12522 	rrc	(ix+offsetx)		;DD CBr00 0E
   1EF1 FD CBr00 0E       12523 	rrc	(iy+offsetx)		;FD CBr00 0E
   1EF5 CB 0F             12542 	rrc	a			;CB 0F
   1EF7 CB 08             12543 	rrc	b			;CB 08
   1EF9 CB 09             12544 	rrc	c			;CB 09
   1EFB CB 0A             12545 	rrc	d			;CB 0A
   1EFD CB 0B             12546 	rrc	e			;CB 0B
   1EFF CB 0C             12547 	rrc	h			;CB 0C
   1F01 CB 0D             12548 	rrc	l			;CB 0D
                          12549 
                          12550 ;*******************************************************************
                          12551 ;	RRCA	
                          12552 ;*******************************************************************
                          12553 	.z80
                          12554 	;***********************************************************
                          12555 	; rotate 'a' right circular
   1F03 0F                12556 	rrca				;0F
                          12557 
                          12558 ;*******************************************************************
                          12559 ;	RRD	
                          12560 ;*******************************************************************
                          12561 	;***********************************************************
                          12562 	; rotate digit right and left
                          12563 	; between 'a' and location (hl)
                          12564 	.z80
   1F04 ED 67             12565 	rrd				;ED 67
                          12566 
                          12567 ;*******************************************************************
                          12568 ;	RST	
                          12569 ;*******************************************************************
                          12570 	;***********************************************************
                          12571 	; restart location
                          12572 	.z80
   1F06 C7                12573 	rst	0x00			;C7
   1F07 CF                12574 	rst	0x08			;CF
   1F08 D7                12575 	rst	0x10			;D7
   1F09 DF                12576 	rst	0x18			;DF
   1F0A E7                12577 	rst	0x20			;E7
   1F0B EF                12578 	rst	0x28			;EF
   1F0C F7                12579 	rst	0x30			;F7
   1F0D FF                12580 	rst	0x38			;FF
                          12581 
                          12582 ;*******************************************************************
                          12583 ;	SBC	
                          12584 ;		Leading 'a' operand is optional.
                          12585 ;		If offset is ommitted 0 is assumed.
                          12586 ;*******************************************************************
                          12587 	;***********************************************************
                          12588 	; subtract with carry to 'a'
                          12589 	.z80
   1F0E 9E                12590 	sbc	a,(hl)			;9E
   1F0F DD 9Er00          12595  	sbc	a,offsetx(ix)		;DD 9Er00
   1F12 FD 9Er00          12596 	sbc	a,offsetx(iy)		;FD 9Er00
   1F15 DD 9Er00          12597 	sbc	a,(ix+offsetx)		;DD 9Er00
   1F18 FD 9Er00          12598 	sbc	a,(iy+offsetx)		;FD 9Er00
   1F1B 9F                12617 	sbc	a,a			;9F
   1F1C 98                12618 	sbc	a,b			;98
   1F1D 99                12619 	sbc	a,c			;99
   1F1E 9A                12620 	sbc	a,d			;9A
   1F1F 9B                12621 	sbc	a,e			;9B
   1F20 9C                12622 	sbc	a,h			;9C
   1F21 9D                12623 	sbc	a,l			;9D
   1F22 DEr00             12628 	sbc	a,#nx			;DEr00
   1F24 DEr00             12629 	sbc	a, nx			;DEr00
                          12644 	;***********************************************************
                          12645 	; subtract with carry to 'a'
                          12646 	.z80
   1F26 9E                12647 	sbc	(hl)			;9E
   1F27 DD 9Er00          12652 	sbc	offsetx(ix)		;DD 9Er00
   1F2A FD 9Er00          12653 	sbc	offsetx(iy)		;FD 9Er00
   1F2D DD 9Er00          12654 	sbc	(ix+offsetx)		;DD 9Er00
   1F30 FD 9Er00          12655 	sbc	(iy+offsetx)		;FD 9Er00
   1F33 9F                12674 	sbc	a			;9F
   1F34 98                12675 	sbc	b			;98
   1F35 99                12676 	sbc	c			;99
   1F36 9A                12677 	sbc	d			;9A
   1F37 9B                12678 	sbc	e			;9B
   1F38 9C                12679 	sbc	h			;9C
   1F39 9D                12680 	sbc	l			;9D
   1F3A DEr00             12685  	sbc	#nx			;DEr00
   1F3C DEr00             12686 	sbc	 nx			;DEr00
                          12701 	;***********************************************************
                          12702 	; add with carry register pair to 'hl'
   1F3E ED 42             12703 	sbc	hl,bc			;ED 42
   1F40 ED 52             12704 	sbc	hl,de			;ED 52
   1F42 ED 62             12705 	sbc	hl,hl			;ED 62
   1F44 ED 72             12706 	sbc	hl,sp			;ED 72
                          12707 	;***********************************************************
                          12708 	;  p. 5-130
                          12709 	.z280
   1F46 DD 9C             12710 	sbc	a,ixh			;DD 9C
   1F48 DD 9D             12711 	sbc	a,ixl			;DD 9D
   1F4A FD 9C             12712 	sbc	a,iyh			;FD 9C
   1F4C FD 9D             12713 	sbc	a,iyl			;FD 9D
   1F4E DEr00             12718 	sbc	a,#nx			;DEr00
   1F50 DD 9Fr00s00       12719 	sbc	a,(daddx)		;DD 9Fr00s00
   1F54 FD 99r00s00       12720 	sbc	a,sxofx(ix)		;FD 99r00s00
   1F58 FD 99r00s00       12721 	sbc	a,(ix+sxofx)		;FD 99r00s00
   1F5C FD 9Ar00s00       12722 	sbc	a,sxofx(iy)		;FD 9Ar00s00
   1F60 FD 9Ar00s00       12723 	sbc	a,(iy+sxofx)		;FD 9Ar00s00
   1F64 FD 9Br00s00       12724 	sbc	a,sxofx(hl)		;FD 9Br00s00
   1F68 FD 9Br00s00       12725 	sbc	a,(hl+sxofx)		;FD 9Br00s00
   1F6C DD 98r00s00       12726 	sbc	a,sxofx(sp)		;DD 98r00s00
   1F70 DD 98r00s00       12727 	sbc	a,(sp+sxofx)		;DD 98r00s00
   1F74 FD 99r00s00       12728 	sbc	a,lxofx(ix)		;FD 99r00s00
   1F78 FD 99r00s00       12729 	sbc	a,(ix+lxofx)		;FD 99r00s00
   1F7C FD 9Ar00s00       12730 	sbc	a,lxofx(iy)		;FD 9Ar00s00
   1F80 FD 9Ar00s00       12731 	sbc	a,(iy+lxofx)		;FD 9Ar00s00
   1F84 FD 9Br00s00       12732 	sbc	a,lxofx(hl)		;FD 9Br00s00
   1F88 FD 9Br00s00       12733 	sbc	a,(hl+lxofx)		;FD 9Br00s00
   1F8C DD 98r00s00       12734 	sbc	a,lxofx(sp)		;DD 98r00s00
   1F90 DD 98r00s00       12735 	sbc	a,(sp+lxofx)		;DD 98r00s00
   1F94 DD 9E 00          12795 	sbc	a,(ix)			;DD 9E 00
   1F97 FD 9E 00          12796 	sbc	a,(iy)			;FD 9E 00
   1F9A 9E                12797 	sbc	a,(hl)			;9E
   1F9B DD 98 00 00       12798 	sbc	a,(sp)			;DD 98 00 00
   1F9F FD 98p00q00       12804 	sbc	a,sbc01(pc)		;FD 98p00q00
   1FA3 FD 98p00q00       12808 	sbc	a,(pc+sbc02)		;FD 98p00q00
   1FA7 FD 98p00q00       12812 	sbc	a,[sbc03]		;FD 98p00q00
   1FAB FD 98 1C 00       12882 	sbc	a,[.+nc]		;FD 98 1C 00
   1FAF DD 99             12883 	sbc	a,(hl+ix)		;DD 99
   1FB1 DD 9A             12884 	sbc	a,(hl+iy)		;DD 9A
   1FB3 DD 9B             12885 	sbc	a,(ix+iy)		;DD 9B
                          12886 	;***********************************************************
                          12887 	;  p. 5-130
                          12888 	.z280
   1FB5 DD 9C             12889 	sbc	ixh			;DD 9C
   1FB7 DD 9D             12890 	sbc	ixl			;DD 9D
   1FB9 FD 9C             12891 	sbc	iyh			;FD 9C
   1FBB FD 9D             12892 	sbc	iyl			;FD 9D
   1FBD DEr00             12897 	sbc	#nx			;DEr00
   1FBF DD 9Fr00s00       12898 	sbc	(daddx)			;DD 9Fr00s00
   1FC3 FD 99r00s00       12899 	sbc	sxofx(ix)		;FD 99r00s00
   1FC7 FD 99r00s00       12900 	sbc	(ix+sxofx)		;FD 99r00s00
   1FCB FD 9Ar00s00       12901 	sbc	sxofx(iy)		;FD 9Ar00s00
   1FCF FD 9Ar00s00       12902 	sbc	(iy+sxofx)		;FD 9Ar00s00
   1FD3 FD 9Br00s00       12903 	sbc	sxofx(hl)		;FD 9Br00s00
   1FD7 FD 9Br00s00       12904 	sbc	(hl+sxofx)		;FD 9Br00s00
   1FDB DD 98r00s00       12905 	sbc	sxofx(sp)		;DD 98r00s00
   1FDF DD 98r00s00       12906 	sbc	(sp+sxofx)		;DD 98r00s00
   1FE3 FD 99r00s00       12907 	sbc	lxofx(ix)		;FD 99r00s00
   1FE7 FD 99r00s00       12908 	sbc	(ix+lxofx)		;FD 99r00s00
   1FEB FD 9Ar00s00       12909 	sbc	lxofx(iy)		;FD 9Ar00s00
   1FEF FD 9Ar00s00       12910 	sbc	(iy+lxofx)		;FD 9Ar00s00
   1FF3 FD 9Br00s00       12911 	sbc	lxofx(hl)		;FD 9Br00s00
   1FF7 FD 9Br00s00       12912 	sbc	(hl+lxofx)		;FD 9Br00s00
   1FFB DD 98r00s00       12913 	sbc	lxofx(sp)		;DD 98r00s00
   1FFF DD 98r00s00       12914 	sbc	(sp+lxofx)		;DD 98r00s00
   2003 9E                12974 	sbc	(hl)			;9E
   2004 DD 9E 00          12975 	sbc	(ix)			;DD 9E 00
   2007 FD 9E 00          12976 	sbc	(iy)			;FD 9E 00
   200A DD 98 00 00       12977 	sbc	(sp)			;DD 98 00 00
   200E FD 98p00q00       12983 	sbc	sbc04(pc)		;FD 98p00q00
   2012 FD 98p00q00       12987 	sbc	(pc+sbc05)		;FD 98p00q00
   2016 FD 98p00q00       12991 	sbc	[sbc06]			;FD 98p00q00
   201A FD 98 1C 00       13061 	sbc	[.+nc]			;FD 98 1C 00
   201E DD 99             13062 	sbc	(hl+ix)			;DD 99
   2020 DD 9A             13063 	sbc	(hl+iy)			;DD 9A
   2022 DD 9B             13064 	sbc	(ix+iy)			;DD 9B
                          13065 	;***********************************************************
                          13066 	;  p. 5-131
   2024 DD ED 42          13067 	sbc	ix,bc			;DD ED 42
   2027 DD ED 52          13068 	sbc	ix,de			;DD ED 52
   202A DD ED 62          13069 	sbc	ix,ix			;DD ED 62
   202D DD ED 72          13070 	sbc	ix,sp			;DD ED 72
   2030 FD ED 42          13071 	sbc	iy,bc			;FD ED 42
   2033 FD ED 52          13072 	sbc	iy,de			;FD ED 52
   2036 FD ED 62          13073 	sbc	iy,iy			;FD ED 62
   2039 FD ED 72          13074 	sbc	iy,sp			;FD ED 72
                          13075 
                          13076 ;*******************************************************************
                          13077 ;	SC	
                          13078 ;*******************************************************************
                          13079 	;***********************************************************
                          13080 	; Z280 system call
                          13081 	.z280
   203C ED 71r00s00       13086  	sc	nx			;ED 71r00s00
   2040 ED 71r00s00       13087 	sc	#nx			;ED 71r00s00
   2044 ED 71r00s00       13088 	sc	(nx)			;ED 71r00s00
                          13105 
                          13106 ;*******************************************************************
                          13107 ;	SCF	
                          13108 ;*******************************************************************
                          13109 	;***********************************************************
                          13110 	; set carry flag (C=1)
                          13111 	.z80
   2048 37                13112 	scf				;37
                          13113 
                          13114 ;*******************************************************************
                          13115 ;	SET	
                          13116 ;*******************************************************************
                          13117 	;***********************************************************
                          13118 	; set bit of location or register
                          13119 	.z80
   2049 CB C6             13120 	set	0,(hl)			;CB C6
   204B DD CBr00 C6       13125 	set	0,offsetx(ix)		;DD CBr00 C6
   204F FD CBr00 C6       13126 	set	0,offsetx(iy)		;FD CBr00 C6
   2053 DD CBr00 C6       13127 	set	0,(ix+offsetx)		;DD CBr00 C6
   2057 FD CBr00 C6       13128 	set	0,(iy+offsetx)		;FD CBr00 C6
   205B CB C7             13147 	set	0,a			;CB C7
   205D CB C0             13148 	set	0,b			;CB C0
   205F CB C1             13149 	set	0,c			;CB C1
   2061 CB C2             13150 	set	0,d			;CB C2
   2063 CB C3             13151 	set	0,e			;CB C3
   2065 CB C4             13152 	set	0,h			;CB C4
   2067 CB C5             13153 	set	0,l			;CB C5
   2069 CB CE             13154 	set	1,(hl)			;CB CE
   206B DD CBr00 CE       13159 	set	1,offsetx(ix)		;DD CBr00 CE
   206F FD CBr00 CE       13160 	set	1,offsetx(iy)		;FD CBr00 CE
   2073 DD CBr00 CE       13161 	set	1,(ix+offsetx)		;DD CBr00 CE
   2077 FD CBr00 CE       13162 	set	1,(iy+offsetx)		;FD CBr00 CE
   207B CB CF             13181 	set	1,a			;CB CF
   207D CB C8             13182 	set	1,b			;CB C8
   207F CB C9             13183 	set	1,c			;CB C9
   2081 CB CA             13184 	set	1,d			;CB CA
   2083 CB CB             13185 	set	1,e			;CB CB
   2085 CB CC             13186 	set	1,h			;CB CC
   2087 CB CD             13187 	set	1,l			;CB CD
   2089 CB D6             13188 	set	2,(hl)			;CB D6
   208B DD CBr00 D6       13193 	set	2,offsetx(ix)		;DD CBr00 D6
   208F FD CBr00 D6       13194 	set	2,offsetx(iy)		;FD CBr00 D6
   2093 DD CBr00 D6       13195 	set	2,(ix+offsetx)		;DD CBr00 D6
   2097 FD CBr00 D6       13196 	set	2,(iy+offsetx)		;FD CBr00 D6
   209B CB D7             13215 	set	2,a			;CB D7
   209D CB D0             13216 	set	2,b			;CB D0
   209F CB D1             13217 	set	2,c			;CB D1
   20A1 CB D2             13218 	set	2,d			;CB D2
   20A3 CB D3             13219 	set	2,e			;CB D3
   20A5 CB D4             13220 	set	2,h			;CB D4
   20A7 CB D5             13221 	set	2,l			;CB D5
   20A9 CB DE             13222 	set	3,(hl)			;CB DE
   20AB DD CBr00 DE       13227 	set	3,offsetx(ix)		;DD CBr00 DE
   20AF FD CBr00 DE       13228 	set	3,offsetx(iy)		;FD CBr00 DE
   20B3 DD CBr00 DE       13229 	set	3,(ix+offsetx)		;DD CBr00 DE
   20B7 FD CBr00 DE       13230 	set	3,(iy+offsetx)		;FD CBr00 DE
   20BB CB DF             13249 	set	3,a			;CB DF
   20BD CB D8             13250 	set	3,b			;CB D8
   20BF CB D9             13251 	set	3,c			;CB D9
   20C1 CB DA             13252 	set	3,d			;CB DA
   20C3 CB DB             13253 	set	3,e			;CB DB
   20C5 CB DC             13254 	set	3,h			;CB DC
   20C7 CB DD             13255 	set	3,l			;CB DD
   20C9 CB E6             13256 	set	4,(hl)			;CB E6
   20CB DD CBr00 E6       13261 	set	4,offsetx(ix)		;DD CBr00 E6
   20CF FD CBr00 E6       13262 	set	4,offsetx(iy)		;FD CBr00 E6
   20D3 DD CBr00 E6       13263 	set	4,(ix+offsetx)		;DD CBr00 E6
   20D7 FD CBr00 E6       13264 	set	4,(iy+offsetx)		;FD CBr00 E6
   20DB CB E7             13283 	set	4,a			;CB E7
   20DD CB E0             13284 	set	4,b			;CB E0
   20DF CB E1             13285 	set	4,c			;CB E1
   20E1 CB E2             13286 	set	4,d			;CB E2
   20E3 CB E3             13287 	set	4,e			;CB E3
   20E5 CB E4             13288 	set	4,h			;CB E4
   20E7 CB E5             13289 	set	4,l			;CB E5
   20E9 CB EE             13290 	set	5,(hl)			;CB EE
   20EB DD CBr00 EE       13295 	set	5,offsetx(ix)		;DD CBr00 EE
   20EF FD CBr00 EE       13296 	set	5,offsetx(iy)		;FD CBr00 EE
   20F3 DD CBr00 EE       13297 	set	5,(ix+offsetx)		;DD CBr00 EE
   20F7 FD CBr00 EE       13298 	set	5,(iy+offsetx)		;FD CBr00 EE
   20FB CB EF             13317 	set	5,a			;CB EF
   20FD CB E8             13318 	set	5,b			;CB E8
   20FF CB E9             13319 	set	5,c			;CB E9
   2101 CB EA             13320 	set	5,d			;CB EA
   2103 CB EB             13321 	set	5,e			;CB EB
   2105 CB EC             13322 	set	5,h			;CB EC
   2107 CB ED             13323 	set	5,l			;CB ED
   2109 CB F6             13324 	set	6,(hl)			;CB F6
   210B DD CBr00 F6       13329 	set	6,offsetx(ix)		;DD CBr00 F6
   210F FD CBr00 F6       13330 	set	6,offsetx(iy)		;FD CBr00 F6
   2113 DD CBr00 F6       13331 	set	6,(ix+offsetx)		;DD CBr00 F6
   2117 FD CBr00 F6       13332 	set	6,(iy+offsetx)		;FD CBr00 F6
   211B CB F7             13351 	set	6,a			;CB F7
   211D CB F0             13352 	set	6,b			;CB F0
   211F CB F1             13353 	set	6,c			;CB F1
   2121 CB F2             13354 	set	6,d			;CB F2
   2123 CB F3             13355 	set	6,e			;CB F3
   2125 CB F4             13356 	set	6,h			;CB F4
   2127 CB F5             13357 	set	6,l			;CB F5
   2129 CB FE             13358 	set	7,(hl)			;CB FE
   212B DD CBr00 FE       13363 	set	7,offsetx(ix)		;DD CBr00 FE
   212F FD CBr00 FE       13364 	set	7,offsetx(iy)		;FD CBr00 FE
   2133 DD CBr00 FE       13365 	set	7,(ix+offsetx)		;DD CBr00 FE
   2137 FD CBr00 FE       13366 	set	7,(iy+offsetx)		;FD CBr00 FE
   213B CB FF             13385 	set	7,a			;CB FF
   213D CB F8             13386 	set	7,b			;CB F8
   213F CB F9             13387 	set	7,c			;CB F9
   2141 CB FA             13388 	set	7,d			;CB FA
   2143 CB FB             13389 	set	7,e			;CB FB
   2145 CB FC             13390 	set	7,h			;CB FC
   2147 CB FD             13391 	set	7,l			;CB FD
                          13392 
                          13393 ;*******************************************************************
                          13394 ;	SLA	
                          13395 ;*******************************************************************
                          13440 	;***********************************************************
                          13441 	; shift operand left arithmetic
                          13442 	.z80
   2149 CB 26             13443 	sla	(hl)			;CB 26
   214B DD CBr00 26       13448 	sla	offsetx(ix)		;DD CBr00 26
   214F FD CBr00 26       13449 	sla	offsetx(iy)		;FD CBr00 26
   2153 DD CBr00 26       13450 	sla	(ix+offsetx)		;DD CBr00 26
   2157 FD CBr00 26       13451 	sla	(iy+offsetx)		;FD CBr00 26
   215B CB 27             13470 	sla	a			;CB 27
   215D CB 20             13471 	sla	b			;CB 20
   215F CB 21             13472 	sla	c			;CB 21
   2161 CB 22             13473 	sla	d			;CB 22
   2163 CB 23             13474 	sla	e			;CB 23
   2165 CB 24             13475 	sla	h			;CB 24
   2167 CB 25             13476 	sla	l			;CB 25
                          13477 
                          13478 ;*******************************************************************
                          13479 ;	SRA	
                          13480 ;*******************************************************************
                          13525 	;***********************************************************
                          13526 	; shift operand right arithmetic
                          13527 	.z80
   2169 CB 2E             13528 	sra	(hl)			;CB 2E
   216B DD CBr00 2E       13533 	sra	offsetx(ix)		;DD CBr00 2E
   216F FD CBr00 2E       13534 	sra	offsetx(iy)		;FD CBr00 2E
   2173 DD CBr00 2E       13535 	sra	(ix+offsetx)		;DD CBr00 2E
   2177 FD CBr00 2E       13536 	sra	(iy+offsetx)		;FD CBr00 2E
   217B CB 2F             13555 	sra	a			;CB 2F
   217D CB 28             13556 	sra	b			;CB 28
   217F CB 29             13557 	sra	c			;CB 29
   2181 CB 2A             13558 	sra	d			;CB 2A
   2183 CB 2B             13559 	sra	e			;CB 2B
   2185 CB 2C             13560 	sra	h			;CB 2C
   2187 CB 2D             13561 	sra	l			;CB 2D
                          13562 
                          13563 ;*******************************************************************
                          13564 ;	SRL	
                          13565 ;*******************************************************************
                          13610 	;***********************************************************
                          13611 	; shift operand right logical
                          13612 	.z80
   2189 CB 3E             13613 	srl	(hl)			;CB 3E
   218B DD CBr00 3E       13618 	srl	offsetx(ix)		;DD CBr00 3E
   218F FD CBr00 3E       13619 	srl	offsetx(iy)		;FD CBr00 3E
   2193 DD CBr00 3E       13620 	srl	(ix+offsetx)		;DD CBr00 3E
   2197 FD CBr00 3E       13621 	srl	(iy+offsetx)		;FD CBr00 3E
   219B CB 3F             13640 	srl	a			;CB 3F
   219D CB 38             13641 	srl	b			;CB 38
   219F CB 39             13642 	srl	c			;CB 39
   21A1 CB 3A             13643 	srl	d			;CB 3A
   21A3 CB 3B             13644 	srl	e			;CB 3B
   21A5 CB 3C             13645 	srl	h			;CB 3C
   21A7 CB 3D             13646 	srl	l			;CB 3D
                          13647 
                          13648 ;*******************************************************************
                          13649 ;	SUB	
                          13650 ;		Leading 'a' operand is optional.
                          13651 ;		If offset is ommitted 0 is assumed.
                          13652 ;*******************************************************************
                          13653 	;***********************************************************
                          13654 	; subtract operand from 'a'
                          13655 	.z80
   21A9 96                13656 	sub	a,(hl)			;96
   21AA DD 96r00          13661 	sub	a,offsetx(ix)		;DD 96r00
   21AD FD 96r00          13662 	sub	a,offsetx(iy)		;FD 96r00
   21B0 DD 96r00          13663 	sub	a,(ix+offsetx)		;DD 96r00
   21B3 FD 96r00          13664 	sub	a,(iy+offsetx)		;FD 96r00
   21B6 97                13683 	sub	a,a			;97
   21B7 90                13684 	sub	a,b			;90
   21B8 91                13685 	sub	a,c			;91
   21B9 92                13686 	sub	a,d			;92
   21BA 93                13687 	sub	a,e			;93
   21BB 94                13688 	sub	a,h			;94
   21BC 95                13689 	sub	a,l			;95
   21BD D6r00             13694 	sub	a,#nx			;D6r00
   21BF D6r00             13695 	sub	a, nx			;D6r00
                          13710 	;***********************************************************
                          13711 	; subtract operand from 'a'
                          13712 	.z80
   21C1 96                13713 	sub	(hl)			;96
   21C2 DD 96r00          13718 	sub	offsetx(ix)		;DD 96r00
   21C5 FD 96r00          13719 	sub	offsetx(iy)		;FD 96r00
   21C8 DD 96r00          13720 	sub	(ix+offsetx)		;DD 96r00
   21CB FD 96r00          13721 	sub	(iy+offsetx)		;FD 96r00
   21CE 97                13740 	sub	a			;97
   21CF 90                13741 	sub	b			;90
   21D0 91                13742 	sub	c			;91
   21D1 92                13743 	sub	d			;92
   21D2 93                13744 	sub	e			;93
   21D3 94                13745 	sub	h			;94
   21D4 95                13746 	sub	l			;95
   21D5 D6r00             13751 	sub	#nx			;D6r00
   21D7 D6r00             13752 	sub	 nx			;D6r00
                          13767 	;***********************************************************
                          13768 	;  p. 5-139
                          13769 	.z280
   21D9 DD 94             13770 	sub	a,ixh			;DD 94
   21DB DD 95             13771 	sub	a,ixl			;DD 95
   21DD FD 94             13772 	sub	a,iyh			;FD 94
   21DF FD 95             13773 	sub	a,iyl			;FD 95
   21E1 D6r00             13778  	sub	a,#nx			;D6r00
   21E3 DD 97r00s00       13779 	sub	a,(daddx)		;DD 97r00s00
   21E7 FD 91r00s00       13780 	sub	a,sxofx(ix)		;FD 91r00s00
   21EB FD 91r00s00       13781 	sub	a,(ix+sxofx)		;FD 91r00s00
   21EF FD 92r00s00       13782 	sub	a,sxofx(iy)		;FD 92r00s00
   21F3 FD 92r00s00       13783 	sub	a,(iy+sxofx)		;FD 92r00s00
   21F7 FD 93r00s00       13784 	sub	a,sxofx(hl)		;FD 93r00s00
   21FB FD 93r00s00       13785 	sub	a,(hl+sxofx)		;FD 93r00s00
   21FF DD 90r00s00       13786 	sub	a,sxofx(sp)		;DD 90r00s00
   2203 DD 90r00s00       13787 	sub	a,(sp+sxofx)		;DD 90r00s00
   2207 FD 91r00s00       13788 	sub	a,lxofx(ix)		;FD 91r00s00
   220B FD 91r00s00       13789 	sub	a,(ix+lxofx)		;FD 91r00s00
   220F FD 92r00s00       13790 	sub	a,lxofx(iy)		;FD 92r00s00
   2213 FD 92r00s00       13791 	sub	a,(iy+lxofx)		;FD 92r00s00
   2217 FD 93r00s00       13792 	sub	a,lxofx(hl)		;FD 93r00s00
   221B FD 93r00s00       13793 	sub	a,(hl+lxofx)		;FD 93r00s00
   221F DD 90r00s00       13794 	sub	a,lxofx(sp)		;DD 90r00s00
   2223 DD 90r00s00       13795 	sub	a,(sp+lxofx)		;DD 90r00s00
   2227 96                13855 	sub	a,(hl)			;96
   2228 DD 96 00          13856 	sub	a,(ix)			;DD 96 00
   222B FD 96 00          13857 	sub	a,(iy)			;FD 96 00
   222E DD 90 00 00       13858 	sub	a,(sp)			;DD 90 00 00
   2232 FD 90p00q00       13864 	sub	a,sub01(pc)		;FD 90p00q00
   2236 FD 90p00q00       13868 	sub	a,(pc+sub02)		;FD 90p00q00
   223A FD 90p00q00       13872 	sub	a,[sub03]		;FD 90p00q00
   223E FD 90 80 05       13942 	sub	a,[.+nnc]		;FD 90 80 05
   2242 DD 91             13943 	sub	a,(hl+ix)		;DD 91
   2244 DD 92             13944 	sub	a,(hl+iy)		;DD 92
   2246 DD 93             13945 	sub	a,(ix+iy)		;DD 93
                          13946 	;***********************************************************
                          13947 	;  p. 5-139
                          13948 	.z280
   2248 DD 94             13949 	sub	ixh			;DD 94
   224A DD 95             13950 	sub	ixl			;DD 95
   224C FD 94             13951 	sub	iyh			;FD 94
   224E FD 95             13952 	sub	iyl			;FD 95
   2250 D6r00             13957 	sub	#nx			;D6r00
   2252 DD 97r00s00       13958 	sub	(daddx)			;DD 97r00s00
   2256 FD 91r00s00       13959 	sub	sxofx(ix)		;FD 91r00s00
   225A FD 91r00s00       13960 	sub	(ix+sxofx)		;FD 91r00s00
   225E FD 92r00s00       13961 	sub	sxofx(iy)		;FD 92r00s00
   2262 FD 92r00s00       13962 	sub	(iy+sxofx)		;FD 92r00s00
   2266 FD 93r00s00       13963 	sub	sxofx(hl)		;FD 93r00s00
   226A FD 93r00s00       13964 	sub	(hl+sxofx)		;FD 93r00s00
   226E DD 90r00s00       13965 	sub	sxofx(sp)		;DD 90r00s00
   2272 DD 90r00s00       13966 	sub	(sp+sxofx)		;DD 90r00s00
   2276 FD 91r00s00       13967 	sub	lxofx(ix)		;FD 91r00s00
   227A FD 91r00s00       13968 	sub	(ix+lxofx)		;FD 91r00s00
   227E FD 92r00s00       13969 	sub	lxofx(iy)		;FD 92r00s00
   2282 FD 92r00s00       13970 	sub	(iy+lxofx)		;FD 92r00s00
   2286 FD 93r00s00       13971 	sub	lxofx(hl)		;FD 93r00s00
   228A FD 93r00s00       13972 	sub	(hl+lxofx)		;FD 93r00s00
   228E DD 90r00s00       13973 	sub	lxofx(sp)		;DD 90r00s00
   2292 DD 90r00s00       13974 	sub	(sp+lxofx)		;DD 90r00s00
   2296 DD 96 00          14034 	sub	(ix)			;DD 96 00
   2299 FD 96 00          14035 	sub	(iy)			;FD 96 00
   229C 96                14036 	sub	(hl)			;96
   229D DD 90 00 00       14037 	sub	(sp)			;DD 90 00 00
   22A1 FD 90p00q00       14043 	sub	sub04(pc)		;FD 90p00q00
   22A5 FD 90p00q00       14047 	sub	(pc+sub05)		;FD 90p00q00
   22A9 FD 90p00q00       14051 	sub	[sub06]			;FD 90p00q00
   22AD FD 90 80 05       14121 	sub	[.+nnc]			;FD 90 80 05
   22B1 DD 91             14122 	sub	a,(hl+ix)		;DD 91
   22B3 DD 92             14123 	sub	a,(hl+iy)		;DD 92
   22B5 DD 93             14124 	sub	a,(ix+iy)		;DD 93
                          14125 	;***********************************************************
                          14126 	;  p. 5-140
                          14127 	.z280
   22B7 DD ED CE          14128 	sub	hl,(hl)			;DD ED CE
   22BA FD ED CE 00 00    14129 	sub	hl,(ix)			;FD ED CE 00 00
   22BF FD ED DE 00 00    14130 	sub	hl,(iy)			;FD ED DE 00 00
   22C4 FD ED FEr00s00    14135 	sub	hl,#nnx			;FD ED FEr00s00
   22C9 DD ED DEr00s00    14136 	sub	hl,(daddx)		;DD ED DEr00s00
   22CE FD ED CEr00s00    14137 	sub	hl,sxofx(ix)		;FD ED CEr00s00
   22D3 FD ED CEr00s00    14138 	sub	hl,(ix+sxofx)		;FD ED CEr00s00
   22D8 FD ED CEr00s00    14139 	sub	hl,lxofx(ix)		;FD ED CEr00s00
   22DD FD ED CEr00s00    14140 	sub	hl,(ix+lxofx)		;FD ED CEr00s00
   22E2 FD ED DEr00s00    14141 	sub	hl,sxofx(iy)		;FD ED DEr00s00
   22E7 FD ED DEr00s00    14142 	sub	hl,(iy+sxofx)		;FD ED DEr00s00
   22EC FD ED DEr00s00    14143 	sub	hl,lxofx(iy)		;FD ED DEr00s00
   22F1 FD ED DEr00s00    14144 	sub	hl,(iy+lxofx)		;FD ED DEr00s00
   22F6 DD ED FEp00q00    14180 	sub	hl,sub07(pc)		;DD ED FEp00q00
   22FB DD ED FEp00q00    14184 	sub	hl,(pc+sub08)		;DD ED FEp00q00
   2300 DD ED FEp00q00    14188 	sub	hl,[sub09]		;DD ED FEp00q00
   2305 DD ED FE 1B 00    14258 	sub	hl,[.+nc]		;DD ED FE 1B 00
   230A ED CE             14259 	sub	hl,bc			;ED CE
   230C ED DE             14260 	sub	hl,de			;ED DE
   230E ED EE             14261 	sub	hl,hl			;ED EE
   2310 DD ED EE          14262 	sub	hl,ix			;DD ED EE
   2313 FD ED EE          14263 	sub	hl,iy			;FD ED EE
   2316 ED FE             14264 	sub	hl,sp			;ED FE
                          14265 ;*******************************************************************
                          14266 ;	SUBW	
                          14267 ;*******************************************************************
                          14268 	;***********************************************************
                          14269 	; subtract operand from 'hl'
                          14270 	.z280
   2318 ED CE             14271 	subw	hl,bc			;ED CE
   231A ED DE             14272 	subw	hl,de			;ED DE
   231C ED EE             14273 	subw	hl,hl			;ED EE
   231E DD ED EE          14274 	subw	hl,ix			;DD ED EE
   2321 FD ED EE          14275 	subw	hl,iy			;FD ED EE
   2324 ED FE             14276 	subw	hl,sp			;ED FE
   2326 FD ED FEr00s00    14281  	subw	hl,#nnx			;FD ED FEr00s00
   232B DD ED DEr00s00    14282 	subw	hl,(daddx)		;DD ED DEr00s00
   2330 FD ED CEr00s00    14283 	subw	hl,sxofx(ix)		;FD ED CEr00s00
   2335 FD ED CEr00s00    14284 	subw	hl,(ix+sxofx)		;FD ED CEr00s00
   233A FD ED DEr00s00    14285 	subw	hl,sxofx(iy)		;FD ED DEr00s00
   233F FD ED DEr00s00    14286 	subw	hl,(iy+sxofx)		;FD ED DEr00s00
   2344 FD ED CEr00s00    14287 	subw	hl,lxofx(ix)		;FD ED CEr00s00
   2349 FD ED CEr00s00    14288 	subw	hl,(ix+lxofx)		;FD ED CEr00s00
   234E FD ED DEr00s00    14289 	subw	hl,lxofx(iy)		;FD ED DEr00s00
   2353 FD ED DEr00s00    14290 	subw	hl,(iy+lxofx)		;FD ED DEr00s00
   2358 DD ED CE          14321 	subw	hl,(hl)			;DD ED CE
   235B FD ED CE 00 00    14322 	subw	hl,(ix)			;FD ED CE 00 00
   2360 FD ED DE 00 00    14323 	subw	hl,(iy)			;FD ED DE 00 00
   2365 DD ED FEp00q00    14329 	subw	hl,subw01(pc)		;DD ED FEp00q00
   236A DD ED FEp00q00    14333 	subw	hl,(pc+subw02)		;DD ED FEp00q00
   236F DD ED FEp00q00    14337 	subw	hl,[subw03]		;DD ED FEp00q00
   2374 DD ED FE 1B 00    14407 	subw	hl,[.+nc]		;DD ED FE 1B 00
                          14408 
                          14409 ;*******************************************************************
                          14410 ;	TSET	
                          14411 ;*******************************************************************
                          14412 	;***********************************************************
                          14413 	; Z280 test and set
                          14414 	;  p. 5-141
                          14415 	.z280
   2379 CB 30             14416 	tset	b			;CB 30
   237B CB 31             14417 	tset	c			;CB 31
   237D CB 32             14418 	tset	d			;CB 32
   237F CB 33             14419 	tset	e			;CB 33
   2381 CB 34             14420 	tset	h			;CB 34
   2383 CB 35             14421 	tset	l			;CB 35
   2385 CB 36             14422 	tset	(hl)			;CB 36
   2387 CB 37             14423 	tset	a			;CB 37
   2389 DD CBr00 36       14428 	tset	sxofx(ix)		;DD CBr00 36
   238D DD CBr00 36       14429 	tset	(ix+sxofx)		;DD CBr00 36
   2391 FD CBr00 36       14430 	tset	sxofx(iy)		;FD CBr00 36
   2395 FD CBr00 36       14431 	tset	(iy+sxofx)		;FD CBr00 36
                          14450 
                          14451 ;*******************************************************************
                          14452 ;	TSTI	
                          14453 ;*******************************************************************
                          14454 	;***********************************************************
                          14455 	; Z280 test input
                          14456 	.z280
   2399 ED 70             14457 	tsti	(c)			;ED 70
                          14458 
                          14459 ;*******************************************************************
                          14460 ;	XOR	
                          14461 ;		Leading 'a' operand is optional.
                          14462 ;		If offset is ommitted 0 is assumed.
                          14463 ;*******************************************************************
                          14464 	;***********************************************************
                          14465 	; logical 'xor' operand with 'a'
                          14466 	.z80
   239B AE                14467 	xor	a,(hl)			;AE
   239C DD AEr00          14472 	xor	a,offsetx(ix)		;DD AEr00
   239F FD AEr00          14473 	xor	a,offsetx(iy)		;FD AEr00
   23A2 DD AEr00          14474 	xor	a,(ix+offsetx)		;DD AEr00
   23A5 FD AEr00          14475 	xor	a,(iy+offsetx)		;FD AEr00
   23A8 AF                14494 	xor	a,a			;AF
   23A9 A8                14495 	xor	a,b			;A8
   23AA A9                14496 	xor	a,c			;A9
   23AB AA                14497 	xor	a,d			;AA
   23AC AB                14498 	xor	a,e			;AB
   23AD AC                14499 	xor	a,h			;AC
   23AE AD                14500 	xor	a,l			;AD
   23AF EEr00             14505 	xor	a,#nx			;EEr00
   23B1 EEr00             14506 	xor	a, nx			;EEr00
                          14521 	;***********************************************************
                          14522 	; logical 'xor' operand without 'a'
                          14523 	.z80
   23B3 AE                14524 	xor	(hl)			;AE
   23B4 DD AEr00          14529 	xor	offsetx(ix)		;DD AEr00
   23B7 FD AEr00          14530 	xor	offsetx(iy)		;FD AEr00
   23BA DD AEr00          14531 	xor	(ix+offsetx)		;DD AEr00
   23BD FD AEr00          14532 	xor	(iy+offsetx)		;FD AEr00
   23C0 AF                14551 	xor	a			;AF
   23C1 A8                14552 	xor	b			;A8
   23C2 A9                14553 	xor	c			;A9
   23C3 AA                14554 	xor	d			;AA
   23C4 AB                14555 	xor	e			;AB
   23C5 AC                14556 	xor	h			;AC
   23C6 AD                14557 	xor	l			;AD
   23C7 EEr00             14562 	xor	#nx			;EEr00
   23C9 EEr00             14563 	xor	 nx			;EEr00
                          14578 	;***********************************************************
                          14579 	;  p. 5-143
                          14580 	.z280
   23CB DD AC             14581 	xor	a,ixh			;DD AC
   23CD DD AD             14582 	xor	a,ixl			;DD AD
   23CF FD AC             14583 	xor	a,iyh			;FD AC
   23D1 FD AD             14584 	xor	a,iyl			;FD AD
   23D3 EEr00             14589 	xor	a,#nx			;EEr00
   23D5 DD AFr00s00       14590 	xor	a,(daddx)		;DD AFr00s00
   23D9 FD A9r00s00       14591 	xor	a,sxofx(ix)		;FD A9r00s00
   23DD FD A9r00s00       14592 	xor	a,(ix+sxofx)		;FD A9r00s00
   23E1 FD AAr00s00       14593 	xor	a,sxofx(iy)		;FD AAr00s00
   23E5 FD AAr00s00       14594 	xor	a,(iy+sxofx)		;FD AAr00s00
   23E9 FD ABr00s00       14595 	xor	a,sxofx(hl)		;FD ABr00s00
   23ED FD ABr00s00       14596 	xor	a,(hl+sxofx)		;FD ABr00s00
   23F1 DD A8r00s00       14597 	xor	a,sxofx(sp)		;DD A8r00s00
   23F5 DD A8r00s00       14598 	xor	a,(sp+sxofx)		;DD A8r00s00
   23F9 FD A9r00s00       14599 	xor	a,lxofx(ix)		;FD A9r00s00
   23FD FD A9r00s00       14600 	xor	a,(ix+lxofx)		;FD A9r00s00
   2401 FD AAr00s00       14601 	xor	a,lxofx(iy)		;FD AAr00s00
   2405 FD AAr00s00       14602 	xor	a,(iy+lxofx)		;FD AAr00s00
   2409 FD ABr00s00       14603 	xor	a,lxofx(hl)		;FD ABr00s00
   240D FD ABr00s00       14604 	xor	a,(hl+lxofx)		;FD ABr00s00
   2411 DD A8r00s00       14605 	xor	a,lxofx(sp)		;DD A8r00s00
   2415 DD A8r00s00       14606 	xor	a,(sp+lxofx)		;DD A8r00s00
   2419 AE                14666 	xor	a,(hl)			;AE
   241A DD AE 00          14667 	xor	a,(ix)			;DD AE 00
   241D FD AE 00          14668 	xor	a,(iy)			;FD AE 00
   2420 DD A8 00 00       14669 	xor	a,(sp)			;DD A8 00 00
   2424 FD A8p00q00       14675 	xor	a,zor01(pc)		;FD A8p00q00
   2428 FD A8p00q00       14679 	xor	a,(pc+zor02)		;FD A8p00q00
   242C FD A8p00q00       14683 	xor	a,[zor03]		;FD A8p00q00
   2430 FD A8 1C 00       14753 	xor	a,[.+nc]		;FD A8 1C 00
   2434 DD A9             14754 	xor	a,(hl+ix)		;DD A9
   2436 DD AA             14755 	xor	a,(hl+iy)		;DD AA
   2438 DD AB             14756 	xor	a,(ix+iy)		;DD AB
                          14757 	;***********************************************************
                          14758 	;  p. 5-143
                          14759 	.z280
   243A DD AC             14760 	xor	ixh			;DD AC
   243C DD AD             14761 	xor	ixl			;DD AD
   243E FD AC             14762 	xor	iyh			;FD AC
   2440 FD AD             14763 	xor	iyl			;FD AD
   2442 EEr00             14768  	xor	#nx			;EEr00
   2444 DD AFr00s00       14769 	xor	(daddx)			;DD AFr00s00
   2448 FD A9r00s00       14770 	xor	sxofx(ix)		;FD A9r00s00
   244C FD A9r00s00       14771 	xor	(ix+sxofx)		;FD A9r00s00
   2450 FD AAr00s00       14772 	xor	sxofx(iy)		;FD AAr00s00
   2454 FD AAr00s00       14773 	xor	(iy+sxofx)		;FD AAr00s00
   2458 FD ABr00s00       14774 	xor	sxofx(hl)		;FD ABr00s00
   245C FD ABr00s00       14775 	xor	(hl+sxofx)		;FD ABr00s00
   2460 DD A8r00s00       14776 	xor	sxofx(sp)		;DD A8r00s00
   2464 DD A8r00s00       14777 	xor	(sp+sxofx)		;DD A8r00s00
   2468 FD A9r00s00       14778 	xor	lxofx(ix)		;FD A9r00s00
   246C FD A9r00s00       14779 	xor	(ix+lxofx)		;FD A9r00s00
   2470 FD AAr00s00       14780 	xor	lxofx(iy)		;FD AAr00s00
   2474 FD AAr00s00       14781 	xor	(iy+lxofx)		;FD AAr00s00
   2478 FD ABr00s00       14782 	xor	lxofx(hl)		;FD ABr00s00
   247C FD ABr00s00       14783 	xor	(hl+lxofx)		;FD ABr00s00
   2480 DD A8r00s00       14784 	xor	lxofx(sp)		;DD A8r00s00
   2484 DD A8r00s00       14785 	xor	(sp+lxofx)		;DD A8r00s00
   2488 AE                14845 	xor	(hl)			;AE
   2489 DD AE 00          14846 	xor	(ix)			;DD AE 00
   248C FD AE 00          14847 	xor	(iy)			;FD AE 00
   248F DD A8 00 00       14848 	xor	(sp)			;DD A8 00 00
   2493 FD A8p00q00       14854 	xor	zor04(pc)		;FD A8p00q00
   2497 FD A8p00q00       14858 	xor	(pc+zor05)		;FD A8p00q00
   249B FD A8p00q00       14862 	xor	[zor06]			;FD A8p00q00
   249F FD A8 1C 00       14932 	xor	[.+nc]			;FD A8 1C 00
   24A3 DD A9             14933 	xor	(hl+ix)			;DD A9
   24A5 DD AA             14934 	xor	(hl+iy)			;DD AA
   24A7 DD AB             14935 	xor	(ix+iy)			;DD AB
                          14936 
                          14937 	;***********************************************************
                          14938 	; Hitachi HD64180 Codes
                          14939 	;***********************************************************
                          14940 
                          14941 	.hd64
                          14942 
                          14943 	;***********************************************************
                          14944 	; start of the Z180 section
                          14945 	;***********************************************************
                          14946 	
                          14947 
                          14948 ;*******************************************************************
                          14949 ;	IN0	
                          14950 ;*******************************************************************
                          14951 	;***********************************************************
                          14952 	; load register with input from port (n)
   24A9 ED 38r00          14957 	in0	a,(nx)			;ED 38r00
   24AC ED 00r00          14958 	in0	b,(nx)			;ED 00r00
   24AF ED 08r00          14959 	in0	c,(nx)			;ED 08r00
   24B2 ED 10r00          14960 	in0	d,(nx)			;ED 10r00
   24B5 ED 18r00          14961 	in0	e,(nx)			;ED 18r00
   24B8 ED 20r00          14962 	in0	h,(nx)			;ED 20r00
   24BB ED 28r00          14963 	in0	l,(nx)			;ED 28r00
                          14988 
                          14989 ;*******************************************************************
                          14990 ;	mlt	
                          14991 ;*******************************************************************
                          14992 	;***********************************************************
                          14993 	; multiplication of each half
                          14994 	; of the specified register pair
                          14995 	; with the 16-bit result going to
                          14996 	; the specified register pair
   24BE ED 4C             14997 	mlt	bc			;ED 4C
   24C0 ED 5C             14998 	mlt	de			;ED 5C
   24C2 ED 6C             14999 	mlt	hl			;ED 6C
   24C4 ED 7C             15000 	mlt	sp			;ED 7C
                          15001 
                          15002 ;*******************************************************************
                          15003 ;	OTDM	
                          15004 ;*******************************************************************
                          15005 	;***********************************************************
                          15006 	; load output port (c) with
                          15007 	; location (hl),
                          15008 	; decrement hl and b
                          15009 	; decrement c
   24C6 ED 8B             15010 	otdm				;ED 8B
                          15011 
                          15012 ;*******************************************************************
                          15013 ;	OTDMR	
                          15014 ;*******************************************************************
                          15015 	;***********************************************************
                          15016 	; load output port (c) with
                          15017 	; location (hl),
                          15018 	; decrement hl and c
                          15019 	; decrement b
                          15020 	; repeat until b = 0
   24C8 ED 9B             15021 	otdmr				;ED 9B
                          15022 
                          15023 ;*******************************************************************
                          15024 ;	OTIM	
                          15025 ;*******************************************************************
                          15026 	;***********************************************************
                          15027 	; load output port (c) with
                          15028 	; location (hl),
                          15029 	; increment hl and b
                          15030 	; decrement c
   24CA ED 83             15031 	otim				;ED 83
                          15032 
                          15033 ;*******************************************************************
                          15034 ;	OTIMR	
                          15035 ;*******************************************************************
                          15036 	;***********************************************************
                          15037 	; load output port (c) with
                          15038 	; location (hl),
                          15039 	; increment hl and c
                          15040 	; decrement b
                          15041 	; repeat until b = 0
   24CC ED 93             15042 	otimr				;ED 93
                          15043 
                          15044 ;*******************************************************************
                          15045 ;	OUT0	
                          15046 ;*******************************************************************
                          15047 	;***********************************************************
                          15048 	; load output port (n) from register
   24CE ED 39r00          15053 	out0	(nx),a			;ED 39r00
   24D1 ED 01r00          15054 	out0	(nx),b			;ED 01r00
   24D4 ED 09r00          15055 	out0	(nx),c			;ED 09r00
   24D7 ED 11r00          15056 	out0	(nx),d			;ED 11r00
   24DA ED 19r00          15057 	out0	(nx),e			;ED 19r00
   24DD ED 21r00          15058 	out0	(nx),h			;ED 21r00
   24E0 ED 29r00          15059 	out0	(nx),l			;ED 29r00
                          15084 
                          15085 ;*******************************************************************
                          15086 ;	SLP	
                          15087 ;*******************************************************************
                          15088 	;***********************************************************
                          15089 	; enter sleep mode
   24E3 ED 76             15090 	slp				;ED 76
                          15091 
                          15092 ;*******************************************************************
                          15093 ;	TST	
                          15094 ;*******************************************************************
                          15095 	;***********************************************************
                          15096 	; non-destructive'and' with accumulator and specified operand
   24E5 ED 3C             15097 	tst	a,a			;ED 3C
   24E7 ED 04             15098 	tst	a,b			;ED 04
   24E9 ED 0C             15099 	tst	a,c			;ED 0C
   24EB ED 14             15100 	tst	a,d			;ED 14
   24ED ED 1C             15101 	tst	a,e			;ED 1C
   24EF ED 24             15102 	tst	a,h			;ED 24
   24F1 ED 2C             15103 	tst	a,l			;ED 2C
   24F3 ED 64r00          15108 	tst	a,#nx			;ED 64r00
   24F6 ED 64r00          15109 	tst	a, nx			;ED 64r00
   24F9 ED 34             15124 	tst	a,(hl)			;ED 34
                          15125 	;***********************************************************
   24FB ED 3C             15126 	tst	a			;ED 3C
   24FD ED 04             15127 	tst	b			;ED 04
   24FF ED 0C             15128 	tst	c			;ED 0C
   2501 ED 14             15129 	tst	d			;ED 14
   2503 ED 1C             15130 	tst	e			;ED 1C
   2505 ED 24             15131 	tst	h			;ED 24
   2507 ED 2C             15132 	tst	l			;ED 2C
   2509 ED 64r00          15137 	tst	#nx			;ED 64r00
   250C ED 64r00          15138 	tst	 nx			;ED 64r00
   250F ED 34             15153 	tst	(hl)			;ED 34
                          15154 
                          15155 ;*******************************************************************
                          15156 ;	TSTIO	
                          15157 ;*******************************************************************
                          15158 	;***********************************************************
                          15159 	; non-destructive 'and' of n and the contents of port (c)
   2511 ED 74r00          15164 	tstio	#nx,(c)			;ED 74r00
   2514 ED 74r00          15165 	tstio	(c),#nx			;ED 74r00
   2517 ED 74r00          15166 	tstio	#nx			;ED 74r00
   251A ED 74r00          15167 	tstio	 nx			;ED 74r00
                          15186 	;***********************************************************
                          15187 	; end of the Z180 section
                          15188 	;***********************************************************
                          15189 	
                          15190 ;*******************************************************************
                          15191 ;	UNDOCUMENTED	
                          15192 ;*******************************************************************
                          15193 	;***********************************************************
                          15194 	; start of the Z80 undocumented section
                          15195 	;***********************************************************
                          15196 	.z80u
   251D DD 8C             15197 	adc	a,ixh			;DD 8C
   251F DD 8D             15198 	adc	a,ixl			;DD 8D
   2521 FD 8C             15199 	adc	a,iyh			;FD 8C
   2523 FD 8D             15200 	adc	a,iyl			;FD 8D
   2525 DD 84             15201 	add	a,ixh			;DD 84
   2527 DD 85             15202 	add	a,ixl			;DD 85
   2529 FD 84             15203 	add	a,iyh			;FD 84
   252B FD 85             15204 	add	a,iyl			;FD 85
   252D DD A4             15205 	and	a,ixh			;DD A4
   252F DD A5             15206 	and	a,ixl			;DD A5
   2531 FD A4             15207 	and	a,iyh			;FD A4
   2533 FD A5             15208 	and	a,iyl			;FD A5
   2535 DD BC             15209 	cp	a,ixh			;DD BC
   2537 DD BD             15210 	cp	a,ixl			;DD BD
   2539 FD BC             15211 	cp	a,iyh			;FD BC
   253B FD BD             15212 	cp	a,iyl			;FD BD
   253D DD B4             15213 	or	a,ixh			;DD B4
   253F DD B5             15214 	or	a,ixl			;DD B5
   2541 FD B4             15215 	or	a,iyh			;FD B4
   2543 FD B5             15216 	or	a,iyl			;FD B5
   2545 DD 9C             15217 	sbc	a,ixh			;DD 9C
   2547 DD 9D             15218 	sbc	a,ixl			;DD 9D
   2549 FD 9C             15219 	sbc	a,iyh			;FD 9C
   254B FD 9D             15220 	sbc	a,iyl			;FD 9D
   254D DD 94             15221 	sub	a,ixh			;DD 94
   254F DD 95             15222 	sub	a,ixl			;DD 95
   2551 FD 94             15223 	sub	a,iyh			;FD 94
   2553 FD 95             15224 	sub	a,iyl			;FD 95
   2555 DD AC             15225 	xor	a,ixh			;DD AC
   2557 DD AD             15226 	xor	a,ixl			;DD AD
   2559 FD AC             15227 	xor	a,iyh			;FD AC
   255B FD AD             15228 	xor	a,iyl			;FD AD
                          15229 					;
   255D DD 25             15230 	dec	ixh			;DD 25
   255F DD 2D             15231 	dec	ixl			;DD 2D
   2561 FD 25             15232 	dec	iyh			;FD 25
   2563 FD 2D             15233 	dec	iyl			;FD 2D
   2565 DD 24             15234 	inc	ixh			;DD 24
   2567 DD 2C             15235 	inc	ixl			;DD 2C
   2569 FD 24             15236 	inc	iyh			;FD 24
   256B FD 2C             15237 	inc 	iyl			;FD 2C
                          15238 					;
   256D DD ED 60          15239 	in	ixh,(c)			;DD ED 60
   2570 DD ED 68          15240 	in	ixl,(c)			;DD ED 68
   2573 FD ED 60          15241 	in	iyh,(c)			;FD ED 60
   2576 FD ED 68          15242 	in	iyl,(c)			;FD ED 68
                          15243 					;
   2579 DD 67             15244 	ld	ixh,a			;DD 67
   257B DD 6F             15245 	ld	ixl,a			;DD 6F
   257D FD 67             15246 	ld	iyh,a			;FD 67
   257F FD 6F             15247 	ld	iyl,a			;FD 6F
   2581 DD 60             15248 	ld	ixh,b			;DD 60
   2583 DD 68             15249 	ld	ixl,b			;DD 68
   2585 FD 60             15250 	ld	iyh,b			;FD 60
   2587 FD 68             15251 	ld	iyl,b			;FD 68
   2589 DD 61             15252 	ld	ixh,c			;DD 61
   258B DD 69             15253 	ld	ixl,c			;DD 69
   258D FD 61             15254 	ld	iyh,c			;FD 61
   258F FD 69             15255 	ld	iyl,c			;FD 69
   2591 DD 62             15256 	ld	ixh,d			;DD 62
   2593 DD 6A             15257 	ld	ixl,d			;DD 6A
   2595 FD 62             15258 	ld	iyh,d			;FD 62
   2597 FD 6A             15259 	ld	iyl,d			;FD 6A
   2599 DD 63             15260 	ld	ixh,e			;DD 63
   259B DD 6B             15261 	ld	ixl,e			;DD 6B
   259D FD 63             15262 	ld	iyh,e			;FD 63
   259F FD 6B             15263 	ld	iyl,e			;FD 6B
                          15264 					;
   25A1 DD 7C             15265 	ld	a,ixh			;DD 7C
   25A3 DD 7D             15266 	ld	a,ixl			;DD 7D
   25A5 FD 7C             15267 	ld	a,iyh			;FD 7C
   25A7 FD 7D             15268 	ld	a,iyl			;FD 7D
   25A9 DD 44             15269 	ld	b,ixh			;DD 44
   25AB DD 45             15270 	ld	b,ixl			;DD 45
   25AD FD 44             15271 	ld	b,iyh			;FD 44
   25AF FD 45             15272 	ld	b,iyl			;FD 45
   25B1 DD 4C             15273 	ld	c,ixh			;DD 4C
   25B3 DD 4D             15274 	ld	c,ixl			;DD 4D
   25B5 FD 4C             15275 	ld	c,iyh			;FD 4C
   25B7 FD 4D             15276 	ld	c,iyl			;FD 4D
   25B9 DD 54             15277 	ld	d,ixh			;DD 54
   25BB DD 55             15278 	ld	d,ixl			;DD 55
   25BD FD 54             15279 	ld	d,iyh			;FD 54
   25BF FD 55             15280 	ld	d,iyl			;FD 55
   25C1 DD 5C             15281 	ld	e,ixh			;DD 5C
   25C3 DD 5D             15282 	ld	e,ixl			;DD 5D
   25C5 FD 5C             15283 	ld	e,iyh			;FD 5C
   25C7 FD 5D             15284 	ld	e,iyl			;FD 5D
                     0001 15285 .if 1
                          15286 					;
   25C9 DD 64             15287 	ld	ixh,ixh			;DD 64
   25CB DD 65             15288 	ld	ixh,ixl			;DD 65
   25CD DD 6C             15289 	ld	ixl,ixh			;DD 6C
   25CF DD 6D             15290 	ld	ixl,ixl			;DD 6D
   25D1 FD 64             15291 	ld	iyh,iyh			;FD 64
   25D3 FD 65             15292 	ld	iyh,iyl			;FD 65
   25D5 FD 6C             15293 	ld	iyl,iyh			;FD 6C
   25D7 FD 6D             15294 	ld	iyl,iyl			;FD 6D
                          15295 .endif
                          15296 					;
   25D9 DD 26r00          15301 	ld	ixh,#nx			;DD 26r00
   25DC DD 2Er00          15302 	ld	ixl,#nx			;DD 2Er00
   25DF FD 26r00          15303 	ld	iyh,#nx			;FD 26r00
   25E2 FD 2Er00          15304 	ld	iyl,#nx			;FD 2Er00
   25E5 DD 26r00          15327 	ld	ixh,#nx			;DD 26r00
   25E8 DD 2Er03          15328 	ld	ixl,#nx+3		;DD 2Er03
   25EB FD 26rFF          15329 	ld	iyh,#nx-1		;FD 26rFF
   25EE FD 2Er00          15330 	ld	iyl,#nx			;FD 2Er00
                          15349 	;***********************************************************
                          15350 	; without 'a'
   25F1 DD 8C             15351 	adc	ixh			;DD 8C
   25F3 DD 8D             15352 	adc	ixl			;DD 8D
   25F5 FD 8C             15353 	adc	iyh			;FD 8C
   25F7 FD 8D             15354 	adc	iyl			;FD 8D
   25F9 DD 84             15355 	add	ixh			;DD 84
   25FB DD 85             15356 	add	ixl			;DD 85
   25FD FD 84             15357 	add	iyh			;FD 84
   25FF FD 85             15358 	add	iyl			;FD 85
   2601 DD A4             15359 	and	ixh			;DD A4
   2603 DD A5             15360 	and	ixl			;DD A5
   2605 FD A4             15361 	and	iyh			;FD A4
   2607 FD A5             15362 	and	iyl			;FD A5
   2609 DD BC             15363 	cp	ixh			;DD BC
   260B DD BD             15364 	cp	ixl			;DD BD
   260D FD BC             15365 	cp	iyh			;FD BC
   260F FD BD             15366 	cp	iyl			;FD BD
   2611 DD B4             15367 	or	ixh			;DD B4
   2613 DD B5             15368 	or	ixl			;DD B5
   2615 FD B4             15369 	or	iyh			;FD B4
   2617 FD B5             15370 	or	iyl			;FD B5
   2619 DD 9C             15371 	sbc	ixh			;DD 9C
   261B DD 9D             15372 	sbc	ixl			;DD 9D
   261D FD 9C             15373 	sbc	iyh			;FD 9C
   261F FD 9D             15374 	sbc	iyl			;FD 9D
   2621 DD 94             15375 	sub	ixh			;DD 94
   2623 DD 95             15376 	sub	ixl			;DD 95
   2625 FD 94             15377 	sub	iyh			;FD 94
   2627 FD 95             15378 	sub	iyl			;FD 95
   2629 DD AC             15379 	xor	ixh			;DD AC
   262B DD AD             15380 	xor	ixl			;DD AD
   262D FD AC             15381 	xor	iyh			;FD AC
   262F FD AD             15382 	xor	iyl			;FD AD
                          15383 	;***********************************************************
                          15384 	; c.f. 'tset' on Z280 (see above)
                          15385 	; shift left (like SLA), but shift a '1' into bit 0 !!!
   2631 CB 36             15386 	sll	(hl)			;CB 36
   2633 DD CBr00 36       15391 	sll	offsetx(ix)		;DD CBr00 36
   2637 FD CBr00 36       15392 	sll	offsetx(iy)		;FD CBr00 36
   263B DD CBr00 36       15393 	sll	(ix+offsetx)		;DD CBr00 36
   263F FD CBr00 36       15394 	sll	(iy+offsetx)		;FD CBr00 36
   2643 CB 37             15413 	sll	a			;CB 37
   2645 CB 30             15414 	sll	b			;CB 30
   2647 CB 31             15415 	sll	c			;CB 31
   2649 CB 32             15416 	sll	d			;CB 32
   264B CB 33             15417 	sll	e			;CB 33
   264D CB 34             15418 	sll	h			;CB 34
   264F CB 35             15419 	sll	l			;CB 35
                          15420 	;  sll a  ==  tset a	may be used to distinguish Z80 from Z280 with Areg = 0x41
                          15421 	;***********************************************************
                          15422 	; end of the Z80 undocumented section
                          15423 	;***********************************************************
                          15424 
                          15425 	.globl	z
   2651 3E 12             15426 	ld	a,# >0x1234
   2653 3E 34             15427 	ld	a,# <0x1234
   2655 3Es12             15428 	ld	a,# >(z+0x1234)
   2657 3Er34             15429 	ld	a,# <(z+0x1234)
                          15430 	
                          15431 
                          15432 	.end
                          15433 
ASxxxx Assembler V05.50  (2/14/17 Zilog Z80 / Z180 / HD64180 / Z280)    Page 1
Hexadecimal [16-Bits]                                 Sun Aug 27 19:25:34 2023
Test of Z280 assembler
Symbol Table

    .__.$$$.       =   2710 L   |     .__.ABS.       =   0000 G
    .__.CPU.       =   0087 L   |     .__.H$L.       =   0000 L
    CXLR           =   0006     |     CXL_           =   0000 
    CX_R           =   0001     |     C_LR           =   0008 
    C_L_           =   0004     |     C__R           =   0003 
    ODDBALL_SHIFT_ =   0000     |     _XLR           =   0000 
    _XL_           =   0000     |     _X_R           =   FFFF 
    adc01              **** GX  |     adc02              **** GX
    adc03              **** GX  |     adc04              **** GX
    adc05              **** GX  |     adc06              **** GX
    adc07              **** GX  |     adc08              **** GX
    adc09              **** GX  |     adc11              **** GX
    adc12              **** GX  |     adc13              **** GX
    adc14              **** GX  |     adc15              **** GX
    adc16              **** GX  |     add01              **** GX
    add02              **** GX  |     add03              **** GX
    add04              **** GX  |     add05              **** GX
    add06              **** GX  |     addw01             **** GX
    addw02             **** GX  |     addw03             **** GX
    and01              **** GX  |     and02              **** GX
    and03              **** GX  |     and04              **** GX
    and05              **** GX  |     and06              **** GX
    call01             **** GX  |     call02             **** GX
    call03             **** GX  |     call04             **** GX
    call05             **** GX  |     call06             **** GX
    cp01               **** GX  |     cp02               **** GX
    cp03               **** GX  |     cp04               **** GX
    cp05               **** GX  |     cp06               **** GX
    cp07               **** GX  |     cp08               **** GX
    cp09               **** GX  |     cpw01              **** GX
    cpw02              **** GX  |     cpw03              **** GX
    cpw04              **** GX  |     cpw05              **** GX
    cpw06              **** GX  |     daddc          =   3344 G
    daddr          =   3344     |     daddx              **** GX
    dec01              **** GX  |     dec02              **** GX
    dec03              **** GX  |     decb01             **** GX
    decb02             **** GX  |     decb03             **** GX
    decw01             **** GX  |     decw02             **** GX
    decw03             **** GX  |     div01              **** GX
    div02              **** GX  |     div03              **** GX
    divu01             **** GX  |     divu02             **** GX
    divu03             **** GX  |     divuw01            **** GX
    divuw02            **** GX  |     divuw03            **** GX
    divw01             **** GX  |     divw02             **** GX
    divw03             **** GX  |     ex01               **** GX
    ex02               **** GX  |     ex03               **** GX
    in01               **** GX  |     in02               **** GX
    in03               **** GX  |     inc01              **** GX
    inc02              **** GX  |     inc03              **** GX
    incw01             **** GX  |     incw02             **** GX
    incw03             **** GX  |   0 jmp1               0DBD R
    jp01               **** GX  |     jp02               **** GX
    jp03               **** GX  |     jr_1               **** GX
    jr_2               **** GX  |     jr_3               **** GX
    jr_4               **** GX  |     ld01               **** GX
    ld02               **** GX  |     ld03               **** GX
    ld04               **** GX  |     ld05               **** GX
    ld06               **** GX  |     ld07               **** GX
    ld08               **** GX  |     ld09               **** GX
    lda01              **** GX  |     lda02              **** GX
    lda03              **** GX  |     lda04              **** GX
    lda05              **** GX  |     lda06              **** GX
    lda07              **** GX  |     lda08              **** GX
    lda09              **** GX  |     ldb01              **** GX
    ldb02              **** GX  |     ldb03              **** GX
    ldw01              **** GX  |     ldw02              **** GX
    ldw03              **** GX  |     ldw04              **** GX
    ldw05              **** GX  |     ldw06              **** GX
    ldw07              **** GX  |     ldw08              **** GX
    ldw09              **** GX  |     ldw11              **** GX
    ldw12              **** GX  |     ldw13              **** GX
    ldw14              **** GX  |     ldw15              **** GX
    ldw16              **** GX  |     ldw17              **** GX
    ldw18              **** GX  |     ldw19              **** GX
    ldw21              **** GX  |     ldw22              **** GX
    ldw23              **** GX  |   0 ljr1               0E29 R
  0 ljr2               0E31 R   |     lxofc          =   1122 G
    lxoff          =   1122     |     lxofx              **** GX
    mult01             **** GX  |     mult02             **** GX
    mult03             **** GX  |     mult04             **** GX
    mult05             **** GX  |     mult06             **** GX
    multu01            **** GX  |     multu02            **** GX
    multu03            **** GX  |     multu04            **** GX
    multu05            **** GX  |     multu06            **** GX
    multuw01           **** GX  |     multuw02           **** GX
    multuw03           **** GX  |     multw01            **** GX
    multw02            **** GX  |     multw03            **** GX
    n              =   0020     |     nc             =   0020 G
    nn             =   0584     |     nnc            =   0584 G
    nnx                **** GX  |     nx                 **** GX
    offset         =   0055     |     offsetc        =   0055 G
    offsetx            **** GX  |     or01               **** GX
    or02               **** GX  |     or03               **** GX
    or04               **** GX  |     or05               **** GX
    or06               **** GX  |     out01              **** GX
    out02              **** GX  |     out03              **** GX
    pop01              **** GX  |     pop02              **** GX
    pop03              **** GX  |     push01             **** GX
    push02             **** GX  |     push03             **** GX
    raofc          =   1234 G   |     raoff          =   1234 
    raofx              **** GX  |     sbc01              **** GX
    sbc02              **** GX  |     sbc03              **** GX
    sbc04              **** GX  |     sbc05              **** GX
    sbc06              **** GX  |     sub01              **** GX
    sub02              **** GX  |     sub03              **** GX
    sub04              **** GX  |     sub05              **** GX
    sub06              **** GX  |     sub07              **** GX
    sub08              **** GX  |     sub09              **** GX
    subw01             **** GX  |     subw02             **** GX
    subw03             **** GX  |     sxofc          =   0055 G
    sxoff          =   0055     |     sxofx              **** GX
    x                  **** GX  |   0 xadc01         =   1183 GR
  0 xadc02         =   1187 GR  |   0 xadc03         =   118B GR
  0 xadc04         =   00C2 GR  |   0 xadc05         =   00C6 GR
  0 xadc06         =   00CA GR  |   0 xadc07         =   12AD GR
  0 xadc08         =   12B1 GR  |   0 xadc09         =   12B5 GR
  0 xadc11         =   13A2 GR  |   0 xadc12         =   13A6 GR
  0 xadc13         =   13AA GR  |   0 xadc14         =   1417 GR
  0 xadc15         =   141B GR  |   0 xadc16         =   141F GR
  0 xadd01         =   14F0 GR  |   0 xadd02         =   14F4 GR
  0 xadd03         =   14F8 GR  |   0 xadd04         =   156D GR
  0 xadd05         =   1571 GR  |   0 xadd06         =   1575 GR
  0 xaddw01        =   15CA GR  |   0 xaddw02        =   15CF GR
  0 xaddw03        =   15D4 GR  |   0 xand01         =   16AB GR
  0 xand02         =   16AF GR  |   0 xand03         =   16B3 GR
  0 xand04         =   16E1 GR  |   0 xand05         =   16E5 GR
  0 xand06         =   16E9 GR  |   0 xcall01        =   1832 GR
  0 xcall02        =   1836 GR  |   0 xcall03        =   183A GR
  0 xcall04        =   060E GR  |   0 xcall05        =   0612 GR
  0 xcall06        =   0616 GR  |   0 xcp01          =   18DC GR
  0 xcp02          =   18E0 GR  |   0 xcp03          =   18E4 GR
  0 xcp04          =   1943 GR  |   0 xcp05          =   1947 GR
  0 xcp06          =   194B GR  |   0 xcp07          =   1A69 GR
  0 xcp08          =   1A6E GR  |   0 xcp09          =   1A73 GR
  0 xcpw01         =   19A7 GR  |   0 xcpw02         =   19AC GR
  0 xcpw03         =   19B1 GR  |   0 xcpw04         =   1A08 GR
  0 xcpw05         =   1A0D GR  |   0 xcpw06         =   1A12 GR
  0 xdec01         =   1AF9 GR  |   0 xdec02         =   1AFD GR
  0 xdec03         =   1B01 GR  |   0 xdecb01        =   1B6B GR
  0 xdecb02        =   1B6F GR  |   0 xdecb03        =   1B73 GR
  0 xdecw01        =   1BB7 GR  |   0 xdecw02        =   1BBB GR
  0 xdecw03        =   1BBF GR  |   0 xdiv01         =   0A6F GR
  0 xdiv02         =   0A74 GR  |   0 xdiv03         =   0A79 GR
  0 xdivu01        =   0B09 GR  |   0 xdivu02        =   0B0E GR
  0 xdivu03        =   0B13 GR  |   0 xdivuw01       =   0B85 GR
  0 xdivuw02       =   0B8A GR  |   0 xdivuw03       =   0B8F GR
  0 xdivw01        =   0BF8 GR  |   0 xdivw02        =   0BFD GR
  0 xdivw03        =   0C02 GR  |   0 xex01          =   0C9E GR
  0 xex02          =   0CA3 GR  |   0 xex03          =   0CA8 GR
  0 xin01          =   0D3E GR  |   0 xin02          =   0D43 GR
  0 xin03          =   0D48 GR  |   0 xinc01         =   0DCA GR
  0 xinc02         =   0DCE GR  |   0 xinc03         =   0DD2 GR
  0 xincw01        =   1FDD GR  |   0 xincw02        =   1FE1 GR
  0 xincw03        =   1FE5 GR  |   0 xjp01          =   0E70 GR
  0 xjp02          =   0E74 GR  |   0 xjp03          =   0E78 GR
  0 xjr_1              0E33 GR  |   0 xjr_2              0E35 GR
  0 xjr_3              0E37 GR  |   0 xjr_4              0E39 GR
  0 xld01          =   2175 GR  |   0 xld02          =   2179 GR
  0 xld03          =   217D GR  |   0 xld04          =   21E1 GR
  0 xld05          =   21E5 GR  |   0 xld06          =   21E9 GR
  0 xld07          =   2262 GR  |   0 xld08          =   2267 GR
  0 xld09          =   226C GR  |   0 xlda01         =   2459 GR
  0 xlda02         =   245E GR  |   0 xlda03         =   2463 GR
  0 xlda04         =   2472 GR  |   0 xlda05         =   2477 GR
  0 xlda06         =   247C GR  |   0 xlda07         =   248A GR
  0 xlda08         =   248E GR  |   0 xlda09         =   2492 GR
  0 xldb01         =   230A GR  |   0 xldb02         =   230F GR
  0 xldb03         =   2314 GR  |   0 xldw01         =   2564 GR
  0 xldw02         =   256A GR  |   0 xldw03         =   2570 GR
  0 xldw04         =   2690 GR  |   0 xldw05         =   2694 GR
  0 xldw06         =   2698 GR  |   0 xldw07         =   26A1 GR
  0 xldw08         =   26A6 GR  |   0 xldw09         =   26AB GR
  0 xldw11         =   26B5 GR  |   0 xldw12         =   26BA GR
  0 xldw13         =   26BF GR  |   0 xldw14         =   27D9 GR
  0 xldw15         =   27DD GR  |   0 xldw16         =   27E1 GR
  0 xldw17         =   27EA GR  |   0 xldw18         =   27EF GR
  0 xldw19         =   27F4 GR  |   0 xldw21         =   27FE GR
  0 xldw22         =   2803 GR  |   0 xldw23         =   2808 GR
  0 xmult01        =   29F9 GR  |   0 xmult02        =   29FE GR
  0 xmult03        =   2A03 GR  |   0 xmult04        =   2A93 GR
  0 xmult05        =   2A98 GR  |   0 xmult06        =   2A9D GR
  0 xmultu01       =   2B32 GR  |   0 xmultu02       =   2B37 GR
  0 xmultu03       =   2B3C GR  |   0 xmultu04       =   2BD1 GR
  0 xmultu05       =   2BD6 GR  |   0 xmultu06       =   2BDB GR
  0 xmultuw01      =   2C3B GR  |   0 xmultuw02      =   2C40 GR
  0 xmultuw03      =   2C45 GR  |   0 xmultw01       =   2CA1 GR
  0 xmultw02       =   2CA6 GR  |   0 xmultw03       =   2CAB GR
  0 xor01          =   2D1D GR  |   0 xor02          =   2D21 GR
  0 xor03          =   2D25 GR  |   0 xor04          =   2D97 GR
  0 xor05          =   2D9B GR  |   0 xor06          =   2D9F GR
  0 xout01         =   2E23 GR  |   0 xout02         =   2E28 GR
  0 xout03         =   2E2D GR  |   0 xpop01         =   2E61 GR
  0 xpop02         =   2E65 GR  |   0 xpop03         =   2E69 GR
  0 xpush01        =   2E83 GR  |   0 xpush02        =   2E87 GR
  0 xpush03        =   2E8B GR  |   0 xsbc01         =   31D7 GR
  0 xsbc02         =   31DB GR  |   0 xsbc03         =   31DF GR
  0 xsbc04         =   3246 GR  |   0 xsbc05         =   324A GR
  0 xsbc06         =   324E GR  |   0 xsub01         =   346A GR
  0 xsub02         =   346E GR  |   0 xsub03         =   3472 GR
  0 xsub04         =   34D9 GR  |   0 xsub05         =   34DD GR
  0 xsub06         =   34E1 GR  |   0 xsub07         =   352F GR
  0 xsub08         =   3534 GR  |   0 xsub09         =   3539 GR
  0 xsubw01        =   359E GR  |   0 xsubw02        =   35A3 GR
  0 xsubw03        =   35A8 GR  |   0 xzor01         =   365C GR
  0 xzor02         =   3660 GR  |   0 xzor03         =   3664 GR
  0 xzor04         =   36CB GR  |   0 xzor05         =   36CF GR
  0 xzor06         =   36D3 GR  |     z                  **** GX
    zor01              **** GX  |     zor02              **** GX
    zor03              **** GX  |     zor04              **** GX
    zor05              **** GX  |     zor06              **** GX

ASxxxx Assembler V05.50  (2/14/17 Zilog Z80 / Z180 / HD64180 / Z280)    Page 2
Hexadecimal [16-Bits]                                 Sun Aug 27 19:25:34 2023
Test of Z280 assembler
Area Table

[_CSEG]
   0 _CODE            size 2659   flags C180
[_DSEG]
   1 _DATA            size    0   flags C0C0

