                              1 	.title	Test of Z280 assembler
                              2 	.module	tz280x.asm
                              3 
                              4 	; To test asz280 with .con and .lst defined:
                              5     	; Constants / Internal symbols mode.
                              6 	; Verifies assembler output.
                              7 	;
                              8 	;	asz280 -lbcoxff -p tz280x_CL asz280_CL tz280x 
                              9 	;	asxscn tz280x_CL.lst
                             10 	;
                             11 	;
                             12 	; To test asz280 with .con and .rst defined:
                             13     	; Constants / Internal symbols mode.
                             14 	; Verifies linked code.
                             15 	;
                             16 	;	asz280 -lbcoxff -p tz280x_CR asz280_CR tz280x 
                             17 	;	aslink -nf tz280x_CR
                             18 	;	asxscn tz280x_CR.rst
                             19 	;
                             20 	;
                             21 	; To test asz280 with .ext and .lst defined:
                             22     	; Constants with External symbols mode.
                             23 	; Verifies assembler output.
                             24 	;
                             25 	;	asz280 -lbcoxff -p tz280x_XL asz280_XL tz280x 
                             26 	;	asxscn tz280x_XL.lst
                             27 	;
                             28 	;
                             29 	; To test asz280 with .ext and .rst defined:
                             30     	; Constants with External symbols mode.
                             31 	; Verifies linked code.
                             32 	;
                             33 	;	asz280 -lbcoxff -p tz280x_XR asz280_XR tz280x 
                             34 	;	aslink -nf tz280x_XR
                             35 	;	asxscn tz280x_XR.rst
                             36 	;
                             37 	; To test asz280 with .ext and .lst defined:
                             38 	; Full external symbol mode. (.EXLR defined)
                             39 	; Verifies assembler output.
                             40 	;
                             41 	;	asz280 -lbcoxff -p tz280x_EXL asz280_EXL tz280x 
                             42 	;	asxscn tz280x_EXL.lst
                             43 	;
                             44 	;
                             45 	; To test asz280 with .ext and .rst defined:
                             46 	; Full external symbol mode. (.EXLR defined)
                             47 	; Verifies linked code.
                             48 	;
                             49 	;	asz280 -lbcoxff -p tz280x_EXR asz280_EXR tz280x 
                             50 	;	aslink -nf tz280x_EXR
                             51 	;	asxscn tz280x_EXR.rst
                             52 	;
                             53 
                     0006    85 	CXLR = CXLR	; .con / .ext / .lst / .rst
                             86 
                             95 	; Assembled with .ext option.
                            100 	; Assembled with .lst option.
                            114     	; Constants + External Symbols Mode. (.EXLR not defined)
                            118 
                     0008   119 	C_LR = 0x08 - (CXLR & 0x08)	; = 0  if .con with either .lst/.rst
                     0000   120 	_XLR = 0x04 - (CXLR & 0x04)	; = 0  if .ext with either .lst/.rst
                     0000   121 	CXL_ = 0x02 - (CXLR & 0x02)	; = 0  if .lst with either .con/.ext
                     0001   122 	CX_R = 0x01 - (CXLR & 0x01)	; = 0  if .rst with either .con/.ext
                     0004   123 	C_L_ = 0x0A - CXLR		; = 0  if .con and .lst
                     0003   124 	C__R = 0x09 - CXLR		; = 0  if .con and .rst
                     0000   125 	_XL_ = 0x06 - CXLR		; = 0  if .ext and .lst
                     FFFF   126 	_X_R = 0x05 - CXLR		; = 0  if .ext and .rst
                            127 
                            131 
                            132 ;*******************************************************************	
                            133 ;*******************************************************************
                            134 
                     0055   135 	offset	=	0x55		;arbitrary constants
                     0020   136 	n	=	0x20
                     0584   137 	nn	=	0x0584
                            138 
                     0055   139 	sxoff	=	0x55		; SX offset (-128..127)
                     1122   140 	lxoff	=	0x1122		;  X offset
                     1234   141 	raoff	=	0x1234		; RA address/offset
                     3344   142 	daddr	=	0x3344		; DA address
                            143 
                     0055   144 	offsetc	==	offset		;arbitrary constants
                     0020   145 	nc	==	n
                     0584   146 	nnc	==	nn
                            147 
                     0055   148 	sxofc	==	sxoff		; SX offset (-128..127)
                     1122   149 	lxofc	==	lxoff		;  X offset
                     1234   150 	raofc	==	raoff		; RA address/offset
                     3344   151 	daddc	==	daddr		; DA address
                            152 
                            156 ;*******************************************************************	
                            157 ;*******************************************************************
                            158 ;	Test of External References By Substitution
                            159 ;*******************************************************************	
                            160 ;*******************************************************************
                            161 
                            190 		.globl	x		; External symbol given a
                            191 					; default value of 0 by
                            192 					; assembler. Value defined
                            193 					; at link time from another
                            194 					; object file or by the
                            195 					; linker -g x=value option.
                            196 
                            197 	.define		offset		"offsetc+x"
                            198 	.define		n		"nc+x"
                            199 	.define		nn		"nnc+x"
                            200 	.define		sxoff		"sxofc+x"
                            201 	.define		lxoff		"lxofc+x"
                            202 	.define		raoff		"raofc+x"
                            203 	.define		daddr		"daddc+x"
                            215 
                            216 	.macro	.pcr_lclx A,B
                            217 	  .globl A
                            218 	  .ifb B
                            219 	    x'A == . + 4
                            220 	  .else
                            221 	    x'A == . + B
                            222 	  .endif
                            223 	.endm
                            224 
                            225 	.macro	.pcr_xtrn A,B,C
                            226 	  .globl A
                            227 	  .ifb C
                            228 	    x'A == B + . + 4
                            229 	  .else
                            230 	    x'A == B + . + C
                            231 	  .endif
                            232 	.endm
                            233 
                            234 ;*******************************************************************	
                            235 ;*******************************************************************	
                            236 ;*******************************************************************
                            248 
                            249 	.macro	.pcr_ofst A,B
                            250           .nval	_dot_, .
                            251 	  .ifb B
                            252  	    pcr_ofst = A + _dot_ + 4
                            253 	  .else
                            254  	    pcr_ofst = A + _dot_ + B
                            255 	  .endif
                            256 	.endm
                            257 
                            258 
                     0000   259 ODDBALL_SHIFT_ROTATE	=	0	; prefer this set to 0
                            260 
                            261 	.area	_code
                            262 	
                            263 	.z80
   0000 83                  264 	.byte	.__.CPU.	; 83
                            265 	.z80u
   0001 87                  266 	.byte	.__.CPU.	; 87
                            267 	.z180
   0002 8B                  268 	.byte	.__.CPU.	; 8B
                            269 	.hd64
   0003 8B                  270 	.byte	.__.CPU.	; 8B
                            271 	.z280
   0004 33                  272 	.byte	.__.CPU.	; 33
                            273 	.z280n
   0005 11                  274 	.byte	.__.CPU.	; 11
                            275 	.z280p
   0006 F3                  276 	.byte	.__.CPU.	; F3
                            277 
                     0000   278 	. = . - 7
                            279 
                            280 ;*******************************************************************	
                            281 ;*******************************************************************
                            282 ;	Start test of addressing syntax	
                            283 ;*******************************************************************	
                            284 ;*******************************************************************	
                            285 	;***********************************************************
                            286 	; add with carry
                            287 	.z280
   0000 8E                  288 	adc	a,(hl)			;8E
   0001 DD 89               289 	adc	a,(hl+ix)		;DD 89
   0003 DD 8A               290 	adc	a,(hl+iy)		;DD 8A
   0005 FD 8Br22s11         302 	adc	a,(hl+lxofc+x)		;FD 8Br22s11
   0009 FD 8Br55s00         303 	adc	a,(hl+sxofc+x)		;FD 8Br55s00
   000D FD 8Br22s11         304 	adc	a,lxofc+x(hl)		;FD 8Br22s11
   0011 FD 8Br55s00         305 	adc	a,sxofc+x(hl)		;FD 8Br55s00
   0015 DD 8B               317 	adc	a,(ix+iy)		;DD 8B
   0017 DD 8E 00            318 	adc	a,(ix)			;DD 8E 00
   001A FD 89r22s11         330 	adc	a,(ix+lxofc+x)		;FD 89r22s11
   001E FD 89r22s11         331 	adc	a,lxofc+x(ix)		;FD 89r22s11
   0022 FD 89rDEsEE         332 	adc	a,(ix-lxofc+x)		;FD 89rDEsEE
   0026 FD 89rDEsEE         333 	adc	a,-lxofc+x(ix)		;FD 89rDEsEE
   002A FD 89r55s00         376 	adc	a,(ix+sxofc+x)		;FD 89r55s00
   002E FD 89r55s00         377 	adc	a,sxofc+x(ix)		;FD 89r55s00
   0032 FD 89rABsFF         378 	adc	a,(ix-sxofc+x)		;FD 89rABsFF
   0036 FD 89rABsFF         379 	adc	a,-sxofc+x(ix)		;FD 89rABsFF
   003A FD 8E 00            409 	adc	a,(iy)			;FD 8E 00
   003D FD 8Ar22s11         421 	adc	a,(iy+lxofc+x)		;FD 8Ar22s11
   0041 FD 8Ar22s11         422 	adc	a,lxofc+x(iy)		;FD 8Ar22s11
   0045 FD 8ArDEsEE         423 	adc	a,(iy-lxofc+x)		;FD 8ArDEsEE
   0049 FD 8ArDEsEE         424 	adc	a,-lxofc+x(iy)		;FD 8ArDEsEE
   004D FD 8Ar55s00         465 	adc	a,(iy+sxofc+x)		;FD 8Ar55s00
   0051 FD 8Ar55s00         466 	adc	a,sxofc+x(iy)		;FD 8Ar55s00
   0055 FD 8ArABsFF         467 	adc	a,(iy-sxofc+x)		;FD 8ArABsFF
   0059 FD 8ArABsFF         468 	adc	a,-sxofc+x(iy)		;FD 8ArABsFF
   005D FD 88p22q11         540 	adc	a,lxofc+adc01(pc)	;FD 88p22q11
   0061 FD 88p22q11         544 	adc	a,(pc+lxofc+adc02)	;FD 88p22q11
   0065 FD 88p22q11         548 	adc	a,[lxofc+adc03]		;FD 88p22q11
   0069 FD 88p55q00         552 	adc	a,sxofc+adc04(pc)	;FD 88p55q00
   006D FD 88p55q00         556 	adc	a,(pc+sxofc+adc05)	;FD 88p55q00
   0071 FD 88p55q00         560 	adc	a,[sxofc+adc06]		;FD 88p55q00
   0075 FD 88p34q12         564 	adc	a,raofc+adc07(pc)	;FD 88p34q12
   0079 FD 88p34q12         568 	adc	a,(pc+raofc+adc08)	;FD 88p34q12
   007D FD 88p34q12         572 	adc	a,[raofc+adc09]		;FD 88p34q12
   0081 FD 88 FC FF         707 	adc	a,[.]			;FD 88 FC FF
   0085 DD 88r22s11         718 	adc	a,(sp+lxofc+x)		;DD 88r22s11
   0089 DD 88r22s11         719 	adc	a,lxofc+x(sp)		;DD 88r22s11
   008D DD 8Fr44s33         720 	adc	a,(daddc+x)		;DD 8Fr44s33
   0091 88                  731 	adc	a,b			;88
   0092 89                  732 	adc	a,c			;89
   0093 8A                  733 	adc	a,d			;8A
   0094 8B                  734 	adc	a,e			;8B
   0095 8C                  735 	adc	a,h			;8C
   0096 8D                  736 	adc	a,l			;8D
   0097 8E                  737 	adc	a,(hl)			;8E
   0098 8F                  738 	adc	a,a			;8F
   0099 DD 8C               739 	adc	a,ixh			;DD 8C
   009B DD 8D               740 	adc	a,ixl			;DD 8D
   009D FD 8C               741 	adc	a,iyh			;FD 8C
   009F FD 8D               742 	adc	a,iyl			;FD 8D
   00A1 CEr20               753 	adc	a,#nc+x			;CEr20
   00A3 CEr20               754 	adc	a, nc+x			;CEr20
   00A5 CEr22               755 	adc	a,lxofc+x			;CEr22
   00A7 ED 4A               766 	adc	hl,bc			;ED 4A
   00A9 ED 5A               767 	adc	hl,de			;ED 5A
   00AB ED 6A               768 	adc	hl,hl			;ED 6A
   00AD ED 7A               769 	adc	hl,sp			;ED 7A
   00AF DD ED 4A            770 	adc	ix,bc			;DD ED 4A
   00B2 DD ED 5A            771 	adc	ix,de			;DD ED 5A
   00B5 DD ED 6A            772 	adc	ix,ix			;DD ED 6A
   00B8 DD ED 7A            773 	adc	ix,sp			;DD ED 7A
   00BB FD ED 4A            774 	adc	iy,bc			;FD ED 4A
   00BE FD ED 5A            775 	adc	iy,de			;FD ED 5A
   00C1 FD ED 6A            776 	adc	iy,iy			;FD ED 6A
   00C4 FD ED 7A            777 	adc	iy,sp			;FD ED 7A
                            778 	
                            779 	
                            780 ;*******************************************************************
                            781 ;*******************************************************************
                            782 ;	End test of addressing syntax	
                            783 ;*******************************************************************
                            784 ;*******************************************************************
                            785 ;*******************************************************************
                            786 
                            787 
                            788 ;*******************************************************************
                            789 ;	ADC	
                            790 ;		Leading 'a' operand is optional.
                            791 ;		If offset is ommitted 0 is assumed.
                            792 ;*******************************************************************
                            793 	;***********************************************************
                            794 	; add with carry to 'a'
                            795 	.z80
   00C7 8E                  796 	adc	a,(hl)			;8E
   00C8 DD 8Er55            808 	adc	a,offsetc+x(ix)		;DD 8Er55
   00CB FD 8Er55            809 	adc	a,offsetc+x(iy)		;FD 8Er55
   00CE DD 8Er55            810 	adc	a,(ix+offsetc+x)		;DD 8Er55
   00D1 FD 8Er55            811 	adc	a,(iy+offsetc+x)		;FD 8Er55
   00D4 DD 8E 00            823 	adc	a,(ix)			;DD 8E 00
   00D7 FD 8E 00            824 	adc	a,(iy)			;FD 8E 00
   00DA 8F                  825 	adc	a,a			;8F
   00DB 88                  826 	adc	a,b			;88
   00DC 89                  827 	adc	a,c			;89
   00DD 8A                  828 	adc	a,d			;8A
   00DE 8B                  829 	adc	a,e			;8B
   00DF 8C                  830 	adc	a,h			;8C
   00E0 8D                  831 	adc	a,l			;8D
   00E1 CEr20               841 	adc	a,#nc+x			;CEr20
   00E3 CEr20               842 	adc	a, nc+x			;CEr20
                            852 	;***********************************************************
   00E5 8E                  853 	adc	(hl)			;8E
   00E6 DD 8Er55            865 	adc	offsetc+x(ix)		;DD 8Er55
   00E9 FD 8Er55            866 	adc	offsetc+x(iy)		;FD 8Er55
   00EC DD 8Er55            867 	adc	(ix+offsetc+x)		;DD 8Er55
   00EF FD 8Er55            868 	adc	(iy+offsetc+x)		;FD 8Er55
   00F2 DD 8E 00            880 	adc	(ix)			;DD 8E 00
   00F5 FD 8E 00            881 	adc	(iy)			;FD 8E 00
   00F8 8F                  882 	adc	a			;8F
   00F9 88                  883 	adc	b			;88
   00FA 89                  884 	adc	c			;89
   00FB 8A                  885 	adc	d			;8A
   00FC 8B                  886 	adc	e			;8B
   00FD 8C                  887 	adc	h			;8C
   00FE 8D                  888 	adc	l			;8D
   00FF CEr20               898 	adc	#nc+x			;CEr20
   0101 CEr20               899 	adc	 nc+x			;CEr20
                            909 	;***********************************************************
                            910 	; add with carry register pair to 'hl'
   0103 ED 4A               911 	adc	hl,bc			;ED 4A
   0105 ED 5A               912 	adc	hl,de			;ED 5A
   0107 ED 6A               913 	adc	hl,hl			;ED 6A
   0109 ED 7A               914 	adc	hl,sp			;ED 7A
                            915 	;***********************************************************
                            916 	; add with carry to accumulator with 'a'
                            917 	.z280
   010B DD 8Fr8As05         946 	adc	a,(nnc+x+6)		;DD 8Fr8As05
   010F FD 89r84s05         947 	adc	a,(ix+nnc+x)		;FD 89r84s05
   0113 FD 8Ar84s05         948 	adc	a,(iy+nnc+x)		;FD 8Ar84s05
   0117 FD 8Br84s05         949 	adc	a,(hl+nnc+x)		;FD 8Br84s05
   011B DD 88r84s05         950 	adc	a,(sp+nnc+x)		;DD 88r84s05
   011F FD 89r55s00         951 	adc	a,sxofc+x(ix)		;FD 89r55s00
   0123 FD 89r55s00         952 	adc	a,(ix+sxofc+x)		;FD 89r55s00
   0127 FD 8Ar55s00         953 	adc	a,sxofc+x(iy)		;FD 8Ar55s00
   012B FD 8Ar55s00         954 	adc	a,(iy+sxofc+x)		;FD 8Ar55s00
   012F FD 8Br55s00         955 	adc	a,sxofc+x(hl)		;FD 8Br55s00
   0133 FD 8Br55s00         956 	adc	a,(hl+sxofc+x)		;FD 8Br55s00
   0137 DD 88r55s00         957 	adc	a,sxofc+x(sp)		;DD 88r55s00
   013B DD 88r55s00         958 	adc	a,(sp+sxofc+x)		;DD 88r55s00
   013F FD 89r22s11         959 	adc	a,lxofc+x(ix)		;FD 89r22s11
   0143 FD 89r22s11         960 	adc	a,(ix+lxofc+x)		;FD 89r22s11
   0147 FD 8Ar22s11         961 	adc	a,lxofc+x(iy)		;FD 8Ar22s11
   014B FD 8Ar22s11         962 	adc	a,(iy+lxofc+x)		;FD 8Ar22s11
   014F FD 8Br22s11         963 	adc	a,lxofc+x(hl)		;FD 8Br22s11
   0153 FD 8Br22s11         964 	adc	a,(hl+lxofc+x)		;FD 8Br22s11
   0157 DD 88r22s11         965 	adc	a,lxofc+x(sp)		;DD 88r22s11
   015B DD 88r22s11         966 	adc	a,(sp+lxofc+x)		;DD 88r22s11
   015F DD 8E 00           1007 	adc	a,(ix)			;DD 8E 00
   0162 FD 8E 00           1008 	adc	a,(iy)			;FD 8E 00
   0165 8E                 1009 	adc	a,(hl)			;8E
   0166 DD 88 00 00        1010 	adc	a,(sp)			;DD 88 00 00
   016A FD 88p34q12        1029 	adc	a,raofc+adc11(pc)	;FD 88p34q12
   016E FD 88p34q12        1033 	adc	a,(pc+raofc+adc12)	;FD 88p34q12
   0172 FD 88p34q12        1037 	adc	a,[raofc+adc13]		;FD 88p34q12
   0176 FD 88 1C 00        1094 	adc	a,[.+32]		;FD 88 1C 00
   017A DD 89              1095 	adc	a,(hl+ix)		;DD 89
   017C DD 8A              1096 	adc	a,(hl+iy)		;DD 8A
   017E DD 8B              1097 	adc	a,(ix+iy)		;DD 8B
                           1098 	;***********************************************************
                           1099 	; add with carry to accumulator without 'a'
                           1100 	.z280
   0180 DD 8Fr8As05        1129 	adc	(nnc+x+6)			;DD 8Fr8As05
   0184 FD 89r84s05        1130 	adc	(ix+nnc+x)			;FD 89r84s05
   0188 FD 8Ar84s05        1131 	adc	(iy+nnc+x)			;FD 8Ar84s05
   018C FD 8Br84s05        1132 	adc	(hl+nnc+x)			;FD 8Br84s05
   0190 DD 88r84s05        1133 	adc	(sp+nnc+x)			;DD 88r84s05
   0194 FD 89r55s00        1134 	adc	sxofc+x(ix)		;FD 89r55s00
   0198 FD 89r55s00        1135 	adc	(ix+sxofc+x)		;FD 89r55s00
   019C FD 8Ar55s00        1136 	adc	sxofc+x(iy)		;FD 8Ar55s00
   01A0 FD 8Ar55s00        1137 	adc	(iy+sxofc+x)		;FD 8Ar55s00
   01A4 FD 8Br55s00        1138 	adc	sxofc+x(hl)		;FD 8Br55s00
   01A8 FD 8Br55s00        1139 	adc	(hl+sxofc+x)		;FD 8Br55s00
   01AC DD 88r55s00        1140 	adc	sxofc+x(sp)		;DD 88r55s00
   01B0 DD 88r55s00        1141 	adc	(sp+sxofc+x)		;DD 88r55s00
   01B4 FD 89r22s11        1142 	adc	lxofc+x(ix)		;FD 89r22s11
   01B8 FD 89r22s11        1143 	adc	(ix+lxofc+x)		;FD 89r22s11
   01BC FD 8Ar22s11        1144 	adc	lxofc+x(iy)		;FD 8Ar22s11
   01C0 FD 8Ar22s11        1145 	adc	(iy+lxofc+x)		;FD 8Ar22s11
   01C4 FD 8Br22s11        1146 	adc	lxofc+x(hl)		;FD 8Br22s11
   01C8 FD 8Br22s11        1147 	adc	(hl+lxofc+x)		;FD 8Br22s11
   01CC DD 88r22s11        1148 	adc	lxofc+x(sp)		;DD 88r22s11
   01D0 DD 88r22s11        1149 	adc	(sp+lxofc+x)		;DD 88r22s11
   01D4 DD 8E 00           1192 	adc	(ix)			;DD 8E 00
   01D7 FD 8E 00           1193 	adc	(iy)			;FD 8E 00
   01DA 8E                 1194 	adc	(hl)			;8E
   01DB DD 88 00 00        1195 	adc	(sp)			;DD 88 00 00
   01DF FD 88p34q12        1214 	adc	raofc+adc14(pc)		;FD 88p34q12
   01E3 FD 88p34q12        1218 	adc	(pc+raofc+adc15)	;FD 88p34q12
   01E7 FD 88p34q12        1222 	adc	[raofc+adc16]		;FD 88p34q12
   01EB FD 88 1C 00        1279 	adc	[.+32]			;FD 88 1C 00
   01EF DD 89              1280 	adc	(hl+ix)			;DD 89
   01F1 DD 8A              1281 	adc	(hl+iy)			;DD 8A
   01F3 DD 8B              1282 	adc	(ix+iy)			;DD 8B
                           1283 	;***********************************************************
                           1284 	; add with carry to register IX, IY
   01F5 DD ED 4A           1285 	adc	ix,bc			;DD ED 4A
   01F8 DD ED 5A           1286 	adc	ix,de			;DD ED 5A
   01FB DD ED 6A           1287 	adc	ix,ix			;DD ED 6A
   01FE DD ED 7A           1288 	adc	ix,sp			;DD ED 7A
   0201 FD ED 4A           1289 	adc	iy,bc			;FD ED 4A
   0204 FD ED 5A           1290 	adc	iy,de			;FD ED 5A
   0207 FD ED 6A           1291 	adc	iy,iy			;FD ED 6A
   020A FD ED 7A           1292 	adc	iy,sp			;FD ED 7A
                           1293 		
                           1294 ;*******************************************************************
                           1295 ;	ADD	
                           1296 ;		Leading 'a' operand is optional.
                           1297 ;		If offset is ommitted 0 is assumed.
                           1298 ;*******************************************************************
                           1299 	;***********************************************************
                           1300 	; add operand to 'a' with 'a'
                           1301 	.z80
   020D 86                 1302 	add	a,(hl)			;86
   020E DD 86r55           1314 	add	a,offsetc+x(ix)		;DD 86r55
   0211 FD 86r55           1315 	add	a,offsetc+x(iy)		;FD 86r55
   0214 DD 86r55           1316 	add	a,(ix+offsetc+x)		;DD 86r55
   0217 FD 86r55           1317 	add	a,(iy+offsetc+x)		;FD 86r55
   021A 87                 1329 	add	a,a			;87
   021B 80                 1330 	add	a,b			;80
   021C 81                 1331 	add	a,c			;81
   021D 82                 1332 	add	a,d			;82
   021E 83                 1333 	add	a,e			;83
   021F 84                 1334 	add	a,h			;84
   0220 85                 1335 	add	a,l			;85
   0221 C6r20              1345 	add	a,#nc+x			;C6r20
   0223 C6r20              1346 	add	a, nc+x			;C6r20
                           1356 	;***********************************************************
                           1357 	; add operand to 'a' without 'a'
   0225 86                 1358 	add	(hl)			;86	
   0226 DD 86r55           1370 	add	offsetc+x(ix)		;DD 86r55
   0229 FD 86r55           1371 	add	offsetc+x(iy)		;FD 86r55
   022C DD 86r55           1372 	add	(ix+offsetc+x)		;DD 86r55
   022F FD 86r55           1373 	add	(iy+offsetc+x)		;FD 86r55
   0232 87                 1385 	add	a			;87
   0233 80                 1386 	add	b			;80
   0234 81                 1387 	add	c			;81
   0235 82                 1388 	add	d			;82
   0236 83                 1389 	add	e			;83
   0237 84                 1390 	add	h			;84
   0238 85                 1391 	add	l			;85
   0239 C6r20              1401 	add	#nc+x			;C6r20
   023B C6r20              1402 	add	 nc+x			;C6r20
                           1412 	;***********************************************************
                           1413 	; add register pair to 'hl'
   023D 09                 1414 	add	hl,bc			;09
   023E 19                 1415 	add	hl,de			;19
   023F 29                 1416 	add	hl,hl			;29
   0240 39                 1417 	add	hl,sp			;39
                           1418 	;***********************************************************
                           1419 	; add register pair to 'ix'
   0241 DD 09              1420 	add	ix,bc			;DD 09
   0243 DD 19              1421 	add	ix,de			;DD 19
   0245 DD 29              1422 	add	ix,ix			;DD 29
   0247 DD 39              1423 	add	ix,sp			;DD 39
                           1424 	;***********************************************************
                           1425 	; add register pair to 'iy'
   0249 FD 09              1426 	add	iy,bc			;FD 09
   024B FD 19              1427 	add	iy,de			;FD 19
   024D FD 29              1428 	add	iy,iy			;FD 29
   024F FD 39              1429 	add	iy,sp			;FD 39
                           1430 	;***********************************************************
                           1431 	; add operand to 'a' with 'a'
                           1432 	;  p. 5-16
                           1433 	.z280
   0251 DD 84              1434 	add	a,ixh			;DD 84
   0253 DD 85              1435 	add	a,ixl			;DD 85
   0255 FD 84              1436 	add	a,iyh			;FD 84
   0257 FD 85              1437 	add	a,iyl			;FD 85
   0259 DD 87r8As05        1466 	add	a,(nnc+x+6)		;DD 87r8As05
   025D FD 81r84s05        1467 	add	a,(ix+nnc+x)		;FD 81r84s05
   0261 FD 82r84s05        1468 	add	a,(iy+nnc+x)		;FD 82r84s05
   0265 FD 83r84s05        1469 	add	a,(hl+nnc+x)		;FD 83r84s05
   0269 DD 80r84s05        1470 	add	a,(sp+nnc+x)		;DD 80r84s05
   026D FD 81r55s00        1471 	add	a,sxofc+x(ix)		;FD 81r55s00
   0271 FD 81r55s00        1472 	add	a,(ix+sxofc+x)		;FD 81r55s00
   0275 FD 82r55s00        1473 	add	a,sxofc+x(iy)		;FD 82r55s00
   0279 FD 82r55s00        1474 	add	a,(iy+sxofc+x)		;FD 82r55s00
   027D FD 83r55s00        1475 	add	a,sxofc+x(hl)		;FD 83r55s00
   0281 FD 83r55s00        1476 	add	a,(hl+sxofc+x)		;FD 83r55s00
   0285 DD 80r55s00        1477 	add	a,sxofc+x(sp)		;DD 80r55s00
   0289 DD 80r55s00        1478 	add	a,(sp+sxofc+x)		;DD 80r55s00
   028D FD 81r22s11        1479 	add	a,lxofc+x(ix)		;FD 81r22s11
   0291 FD 81r22s11        1480 	add	a,(ix+lxofc+x)		;FD 81r22s11
   0295 FD 82r22s11        1481 	add	a,lxofc+x(iy)		;FD 82r22s11
   0299 FD 82r22s11        1482 	add	a,(iy+lxofc+x)		;FD 82r22s11
   029D FD 83r22s11        1483 	add	a,lxofc+x(hl)		;FD 83r22s11
   02A1 FD 83r22s11        1484 	add	a,(hl+lxofc+x)		;FD 83r22s11
   02A5 DD 80r22s11        1485 	add	a,lxofc+x(sp)		;DD 80r22s11
   02A9 DD 80r22s11        1486 	add	a,(sp+lxofc+x)		;DD 80r22s11
   02AD DD 86 00           1528 	add	a,(ix)			;DD 86 00
   02B0 FD 86 00           1529 	add	a,(iy)			;FD 86 00
   02B3 86                 1530 	add	a,(hl)			;86
   02B4 DD 80 00 00        1531 	add	a,(sp)			;DD 80 00 00
   02B8 FD 80p34q12        1550 	add	a,raofc+add01(pc)	;FD 80p34q12
   02BC FD 80p34q12        1554 	add	a,(pc+raofc+add02)	;FD 80p34q12
   02C0 FD 80p34q12        1558 	add	a,[raofc+add03]		;FD 80p34q12
   02C4 FD 80 30 12        1615 	add	a,[.+raofc]		;FD 80 30 12
   02C8 DD 81              1616 	add	a,(hl+ix)		;DD 81
   02CA DD 82              1617 	add	a,(hl+iy)		;DD 82
   02CC DD 83              1618 	add	a,(ix+iy)		;DD 83
                           1619 	;***********************************************************
                           1620 	; add operand to 'a' without 'a'
                           1621 	.z280
   02CE DD 84              1622 	add	ixh			;DD 84
   02D0 DD 85              1623 	add	ixl			;DD 85
   02D2 FD 84              1624 	add	iyh			;FD 84
   02D4 FD 85              1625 	add	iyl			;FD 85
   02D6 DD 87r8As05        1654 	add	(nnc+x+6)			;DD 87r8As05
   02DA FD 81r84s05        1655 	add	(ix+nnc+x)			;FD 81r84s05
   02DE FD 82r84s05        1656 	add	(iy+nnc+x)			;FD 82r84s05
   02E2 FD 83r84s05        1657 	add	(hl+nnc+x)			;FD 83r84s05
   02E6 DD 80r84s05        1658 	add	(sp+nnc+x)			;DD 80r84s05
   02EA FD 81r55s00        1659 	add	sxofc+x(ix)		;FD 81r55s00
   02EE FD 81r55s00        1660 	add	(ix+sxofc+x)		;FD 81r55s00
   02F2 FD 82r55s00        1661 	add	sxofc+x(iy)		;FD 82r55s00
   02F6 FD 82r55s00        1662 	add	(iy+sxofc+x)		;FD 82r55s00
   02FA FD 83r55s00        1663 	add	sxofc+x(hl)		;FD 83r55s00
   02FE FD 83r55s00        1664 	add	(hl+sxofc+x)		;FD 83r55s00
   0302 DD 80r55s00        1665 	add	sxofc+x(sp)		;DD 80r55s00
   0306 DD 80r55s00        1666 	add	(sp+sxofc+x)		;DD 80r55s00
   030A FD 81r22s11        1667 	add	lxofc+x(ix)		;FD 81r22s11
   030E FD 81r22s11        1668 	add	(ix+lxofc+x)		;FD 81r22s11
   0312 FD 82r22s11        1669 	add	lxofc+x(iy)		;FD 82r22s11
   0316 FD 82r22s11        1670 	add	(iy+lxofc+x)		;FD 82r22s11
   031A FD 83r22s11        1671 	add	lxofc+x(hl)		;FD 83r22s11
   031E FD 83r22s11        1672 	add	(hl+lxofc+x)		;FD 83r22s11
   0322 DD 80r22s11        1673 	add	lxofc+x(sp)		;DD 80r22s11
   0326 DD 80r22s11        1674 	add	(sp+lxofc+x)		;DD 80r22s11
   032A DD 86 00           1716 	add	(ix)			;DD 86 00
   032D FD 86 00           1717 	add	(iy)			;FD 86 00
   0330 86                 1718 	add	(hl)			;86
   0331 DD 80 00 00        1719 	add	(sp)			;DD 80 00 00
   0335 FD 80p34q12        1738 	add	raofc+add04(pc)		;FD 80p34q12
   0339 FD 80p34q12        1742 	add	(pc+raofc+add05)	;FD 80p34q12
   033D FD 80p34q12        1746 	add	[raofc+add06]		;FD 80p34q12
   0341 FD 80 30 12        1803 	add	[.+raofc]		;FD 80 30 12
   0345 DD 81              1804 	add	(hl+ix)			;DD 81
   0347 DD 82              1805 	add	(hl+iy)			;DD 82
   0349 DD 83              1806 	add	(ix+iy)			;DD 83
                           1807 	;***********************************************************
   034B ED 6D              1808 	add	hl,a			;ED 6D
   034D DD ED 6D           1809 	add	ix,a			;DD ED 6D
   0350 FD ED 6D           1810 	add	iy,a			;FD ED 6D
                           1811 
                           1812 ;*******************************************************************
                           1813 ;	ADDW	
                           1814 ;*******************************************************************
                           1815 	;***********************************************************
                           1816 	.z280
   0353 FD ED F6r20s00     1835 	addw	hl,#nc+x			;FD ED F6r20s00
   0358 FD ED F6r44s33     1836 	addw	hl,#daddc+x		;FD ED F6r44s33
   035D DD ED D6r44s33     1837 	addw	hl,(daddc+x)		;DD ED D6r44s33
   0362 FD ED C6r55s00     1838 	addw	hl,sxofc+x(ix)		;FD ED C6r55s00
   0367 FD ED C6r55s00     1839 	addw	hl,(ix+sxofc+x)		;FD ED C6r55s00
   036C FD ED C6r22s11     1840 	addw	hl,lxofc+x(ix)		;FD ED C6r22s11
   0371 FD ED C6r22s11     1841 	addw	hl,(ix+lxofc+x)		;FD ED C6r22s11
   0376 FD ED D6r55s00     1842 	addw	hl,sxofc+x(iy)		;FD ED D6r55s00
   037B FD ED D6r55s00     1843 	addw	hl,(iy+sxofc+x)		;FD ED D6r55s00
   0380 FD ED D6r22s11     1844 	addw	hl,lxofc+x(iy)		;FD ED D6r22s11
   0385 FD ED D6r22s11     1845 	addw	hl,(iy+lxofc+x)		;FD ED D6r22s11
   038A DD ED C6           1864 	addw	hl,(hl)			;DD ED C6
                           1865 	;***********************************************************
                           1866 	; add register pair to 'hl'
   038D 09                 1867 	addw	hl,bc			;09
   038E 19                 1868 	addw	hl,de			;19
   038F 29                 1869 	addw	hl,hl			;29
   0390 39                 1870 	addw	hl,sp			;39
                           1871 	;***********************************************************
   0391 DD ED F6p34q12     1890 	addw	hl,raofc+addw01(pc)	;DD ED F6p34q12
   0396 DD ED F6p34q12     1894 	addw	hl,(pc+raofc+addw02)	;DD ED F6p34q12
   039B DD ED F6p34q12     1898 	addw	hl,[raofc+addw03]	;DD ED F6p34q12
   03A0 DD ED F6 1B 00     1955 	addw	hl,[.+nc]		;DD ED F6 1B 00
                           1956 
                           1957 	;***********************************************************
                           1958 	; Equivalent to addw
                           1959 	;  p. 5-18
   03A5 FD ED F6r20s00     1978 	add	hl,#nc+x			;FD ED F6r20s00
   03AA FD ED F6r44s33     1979 	add	hl,#daddc+x		;FD ED F6r44s33
   03AF DD ED D6r44s33     1980 	add	hl,(daddc+x)		;DD ED D6r44s33
   03B4 FD ED C6r55s00     1981 	add	hl,sxofc+x(ix)		;FD ED C6r55s00
   03B9 FD ED C6r55s00     1982 	add	hl,(ix+sxofc+x)		;FD ED C6r55s00
   03BE FD ED C6r22s11     1983 	add	hl,lxofc+x(ix)		;FD ED C6r22s11
   03C3 FD ED C6r22s11     1984 	add	hl,(ix+lxofc+x)		;FD ED C6r22s11
   03C8 FD ED D6r55s00     1985 	add	hl,sxofc+x(iy)		;FD ED D6r55s00
   03CD FD ED D6r55s00     1986 	add	hl,(iy+sxofc+x)		;FD ED D6r55s00
   03D2 FD ED D6r22s11     1987 	add	hl,lxofc+x(iy)		;FD ED D6r22s11
   03D7 FD ED D6r22s11     1988 	add	hl,(iy+lxofc+x)		;FD ED D6r22s11
                           2007 
                           2008 ;*******************************************************************
                           2009 ;	AND	
                           2010 ;		Leading 'a' operand is optional.
                           2011 ;		If offset is ommitted 0 is assumed.
                           2012 ;*******************************************************************
                           2013 	;***********************************************************
                           2014 	; logical 'and' operand with 'a'
                           2015 	.z80
   03DC A6                 2016 	and	a,(hl)			;A6
   03DD DD A6r55           2028 	and	a,offsetc+x(ix)		;DD A6r55
   03E0 FD A6r55           2029 	and	a,offsetc+x(iy)		;FD A6r55
   03E3 DD A6r55           2030 	and	a,(ix+offsetc+x)		;DD A6r55
   03E6 FD A6r55           2031 	and	a,(iy+offsetc+x)		;FD A6r55
   03E9 A7                 2043 	and	a,a			;A7
   03EA A0                 2044 	and	a,b			;A0
   03EB A1                 2045 	and	a,c			;A1
   03EC A2                 2046 	and	a,d			;A2
   03ED A3                 2047 	and	a,e			;A3
   03EE A4                 2048 	and	a,h			;A4
   03EF A5                 2049 	and	a,l			;A5
   03F0 E6r20              2059 	and	a,#nc+x			;E6r20
   03F2 E6r20              2060 	and	a, nc+x			;E6r20
                           2070 	;***********************************************************
                           2071 	; logical 'and' operand without 'a'
                           2072 	.z80
   03F4 A6                 2073 	and	(hl)			;A6
   03F5 DD A6r55           2085 	and	offsetc+x(ix)		;DD A6r55
   03F8 FD A6r55           2086 	and	offsetc+x(iy)		;FD A6r55
   03FB DD A6r55           2087 	and	(ix+offsetc+x)		;DD A6r55
   03FE FD A6r55           2088 	and	(iy+offsetc+x)		;FD A6r55
   0401 A7                 2100 	and	a			;A7
   0402 A0                 2101 	and	b			;A0
   0403 A1                 2102 	and	c			;A1
   0404 A2                 2103 	and	d			;A2
   0405 A3                 2104 	and	e			;A3
   0406 A4                 2105 	and	h			;A4
   0407 A5                 2106 	and	l			;A5
   0408 E6r20              2116 	and	#nc+x			;E6r20
   040A E6r20              2117 	and	 nc+x			;E6r20
                           2127 	;***********************************************************
                           2128 	; logical 'and' operand with 'a'
                           2129 	;  p. 5--19
                           2130 	.z280
   040C DD A4              2131 	and	a,ixh			;DD A4
   040E DD A5              2132 	and	a,ixl			;DD A5
   0410 FD A4              2133 	and	a,iyh			;FD A4
   0412 FD A5              2134 	and	a,iyl			;FD A5
   0414 DD A7r26s00        2163 	and	a,(nc+x+6)			;DD A7r26s00
   0418 FD A1r84s05        2164 	and	a,(ix+nnc+x)		;FD A1r84s05
   041C FD A2r84s05        2165 	and	a,(iy+nnc+x)		;FD A2r84s05
   0420 FD A3r84s05        2166 	and	a,(hl+nnc+x)		;FD A3r84s05
   0424 DD A0r84s05        2167 	and	a,(sp+nnc+x)		;DD A0r84s05
   0428 FD A1r55s00        2168 	and	a,sxofc+x(ix)		;FD A1r55s00
   042C FD A1r55s00        2169 	and	a,(ix+sxofc+x)		;FD A1r55s00
   0430 FD A2r55s00        2170 	and	a,sxofc+x(iy)		;FD A2r55s00
   0434 FD A2r55s00        2171 	and	a,(iy+sxofc+x)		;FD A2r55s00
   0438 FD A3r55s00        2172 	and	a,sxofc+x(hl)		;FD A3r55s00
   043C FD A3r55s00        2173 	and	a,(hl+sxofc+x)		;FD A3r55s00
   0440 DD A0r55s00        2174 	and	a,sxofc+x(sp)		;DD A0r55s00
   0444 DD A0r55s00        2175 	and	a,(sp+sxofc+x)		;DD A0r55s00
   0448 FD A1r22s11        2176 	and	a,lxofc+x(ix)		;FD A1r22s11
   044C FD A1r22s11        2177 	and	a,(ix+lxofc+x)		;FD A1r22s11
   0450 FD A2r22s11        2178 	and	a,lxofc+x(iy)		;FD A2r22s11
   0454 FD A2r22s11        2179 	and	a,(iy+lxofc+x)		;FD A2r22s11
   0458 FD A3r22s11        2180 	and	a,lxofc+x(hl)		;FD A3r22s11
   045C FD A3r22s11        2181 	and	a,(hl+lxofc+x)		;FD A3r22s11
   0460 DD A0r22s11        2182 	and	a,lxofc+x(sp)		;DD A0r22s11
   0464 DD A0r22s11        2183 	and	a,(sp+lxofc+x)		;DD A0r22s11
   0468 DD A6 00           2225 	and	a,(ix)			;DD A6 00
   046B FD A6 00           2226 	and	a,(iy)			;FD A6 00
   046E A6                 2227 	and	a,(hl)			;A6
   046F DD A0 00 00        2228 	and	a,(sp)			;DD A0 00 00
   0473 FD A0p34q12        2247 	and	a,raofc+and01(pc)	;FD A0p34q12
   0477 FD A0p34q12        2251 	and	a,(pc+raofc+and02)	;FD A0p34q12
   047B FD A0p34q12        2255 	and	a,[raofc+and03]		;FD A0p34q12
   047F FD A0 1C 00        2312 	and	a,[.+32]		;FD A0 1C 00
   0483 FD A0 30 12        2313 	and	a,(pc+(.+raofc))	;FD A0 30 12
   0487 DD A0rE0sFF        2322 	and	a,-nc+x(sp)		;DD A0rE0sFF
   048B DD A1              2343 	and	a,(hl+ix)		;DD A1
   048D DD A2              2344 	and	a,(hl+iy)		;DD A2
   048F DD A3              2345 	and	a,(ix+iy)		;DD A3
                           2346 	;***********************************************************
                           2347 	; logical 'and' operand without 'a'
                           2348 	;  p. 5--19
                           2349 	.z280
   0491 DD A4              2350 	and	ixh			;DD A4
   0493 DD A5              2351 	and	ixl			;DD A5
   0495 FD A4              2352 	and	iyh			;FD A4
   0497 FD A5              2353 	and	iyl			;FD A5
   0499 DD A7r44s33        2365 	and	(daddc+x)			;DD A7r44s33
   049D FD A1r22s11        2366 	and	lxofc+x(ix)		;FD A1r22s11
   04A1 FD A2r22s11        2367 	and	(iy+lxofc+x)		;FD A2r22s11
   04A5 FD A3r22s11        2368 	and	lxofc+x(hl)		;FD A3r22s11
   04A9 FD A0p34q12        2398 	and	raofc+and04(pc)		;FD A0p34q12
   04AD FD A0p34q12        2402 	and	(pc+raofc+and05)	;FD A0p34q12
   04B1 FD A0p34q12        2406 	and	[raofc+and06]		;FD A0p34q12
   04B5 FD A0 1C 00        2463 	and	[.+32]			;FD A0 1C 00
   04B9 FD A0 30 12        2464 	and	(pc+(.+raofc))		;FD A0 30 12
   04BD DD A0rE0sFF        2473 	and	-nc+x(sp)			;DD A0rE0sFF
   04C1 DD A1              2494 	and	(hl+ix)			;DD A1
   04C3 DD A2              2495 	and	(hl+iy)			;DD A2
   04C5 DD A3              2496 	and	(ix+iy)			;DD A3
                           2497 
                           2498 ;*******************************************************************
                           2499 ;	BIT	
                           2500 ;*******************************************************************
                           2501 	;***********************************************************
                           2502 	; test bit of location or register
                           2503 	.z80
   04C7 CB 46              2504 	bit	0,(hl)			;CB 46
   04C9 DD CBr55 46        2516 	bit	0,offsetc+x(ix)		;DD CBr55 46
   04CD FD CBr55 46        2517 	bit	0,offsetc+x(iy)		;FD CBr55 46
   04D1 DD CBr55 46        2518 	bit	0,(ix+offsetc+x)		;DD CBr55 46
   04D5 FD CBr55 46        2519 	bit	0,(iy+offsetc+x)		;FD CBr55 46
   04D9 CB 47              2531 	bit	0,a			;CB 47
   04DB CB 40              2532 	bit	0,b			;CB 40
   04DD CB 41              2533 	bit	0,c			;CB 41
   04DF CB 42              2534 	bit	0,d			;CB 42
   04E1 CB 43              2535 	bit	0,e			;CB 43
   04E3 CB 44              2536 	bit	0,h			;CB 44
   04E5 CB 45              2537 	bit	0,l			;CB 45
   04E7 CB 4E              2538 	bit	1,(hl)			;CB 4E
   04E9 DD CBr55 4E        2550 	bit	1,offsetc+x(ix)		;DD CBr55 4E
   04ED FD CBr55 4E        2551 	bit	1,offsetc+x(iy)		;FD CBr55 4E
   04F1 DD CBr55 4E        2552 	bit	1,(ix+offsetc+x)		;DD CBr55 4E
   04F5 FD CBr55 4E        2553 	bit	1,(iy+offsetc+x)		;FD CBr55 4E
   04F9 CB 4F              2565 	bit	1,a			;CB 4F
   04FB CB 48              2566 	bit	1,b			;CB 48
   04FD CB 49              2567 	bit	1,c			;CB 49
   04FF CB 4A              2568 	bit	1,d			;CB 4A
   0501 CB 4B              2569 	bit	1,e			;CB 4B
   0503 CB 4C              2570 	bit	1,h			;CB 4C
   0505 CB 4D              2571 	bit	1,l			;CB 4D
   0507 CB 56              2572 	bit	2,(hl)			;CB 56
   0509 DD CBr55 56        2584 	bit	2,offsetc+x(ix)		;DD CBr55 56
   050D FD CBr55 56        2585 	bit	2,offsetc+x(iy)		;FD CBr55 56
   0511 DD CBr55 56        2586 	bit	2,(ix+offsetc+x)		;DD CBr55 56
   0515 FD CBr55 56        2587 	bit	2,(iy+offsetc+x)		;FD CBr55 56
   0519 CB 57              2599 	bit	2,a			;CB 57
   051B CB 50              2600 	bit	2,b			;CB 50
   051D CB 51              2601 	bit	2,c			;CB 51
   051F CB 52              2602 	bit	2,d			;CB 52
   0521 CB 53              2603 	bit	2,e			;CB 53
   0523 CB 54              2604 	bit	2,h			;CB 54
   0525 CB 55              2605 	bit	2,l			;CB 55
   0527 CB 5E              2606 	bit	3,(hl)			;CB 5E
   0529 DD CBr55 5E        2618 	bit	3,offsetc+x(ix)		;DD CBr55 5E
   052D FD CBr55 5E        2619 	bit	3,offsetc+x(iy)		;FD CBr55 5E
   0531 DD CBr55 5E        2620 	bit	3,(ix+offsetc+x)		;DD CBr55 5E
   0535 FD CBr55 5E        2621 	bit	3,(iy+offsetc+x)		;FD CBr55 5E
   0539 CB 5F              2633 	bit	3,a			;CB 5F
   053B CB 58              2634 	bit	3,b			;CB 58
   053D CB 59              2635 	bit	3,c			;CB 59
   053F CB 5A              2636 	bit	3,d			;CB 5A
   0541 CB 5B              2637 	bit	3,e			;CB 5B
   0543 CB 5C              2638 	bit	3,h			;CB 5C
   0545 CB 5D              2639 	bit	3,l			;CB 5D
   0547 CB 66              2640 	bit	4,(hl)			;CB 66
   0549 DD CBr55 66        2652 	bit	4,offsetc+x(ix)		;DD CBr55 66
   054D FD CBr55 66        2653 	bit	4,offsetc+x(iy)		;FD CBr55 66
   0551 DD CBr55 66        2654 	bit	4,(ix+offsetc+x)		;DD CBr55 66
   0555 FD CBr55 66        2655 	bit	4,(iy+offsetc+x)		;FD CBr55 66
   0559 CB 67              2667 	bit	4,a			;CB 67
   055B CB 60              2668 	bit	4,b			;CB 60
   055D CB 61              2669 	bit	4,c			;CB 61
   055F CB 62              2670 	bit	4,d			;CB 62
   0561 CB 63              2671 	bit	4,e			;CB 63
   0563 CB 64              2672 	bit	4,h			;CB 64
   0565 CB 65              2673 	bit	4,l			;CB 65
   0567 CB 6E              2674 	bit	5,(hl)			;CB 6E
   0569 DD CBr55 6E        2686 	bit	5,offsetc+x(ix)		;DD CBr55 6E
   056D FD CBr55 6E        2687 	bit	5,offsetc+x(iy)		;FD CBr55 6E
   0571 DD CBr55 6E        2688 	bit	5,(ix+offsetc+x)		;DD CBr55 6E
   0575 FD CBr55 6E        2689 	bit	5,(iy+offsetc+x)		;FD CBr55 6E
   0579 CB 6F              2701 	bit	5,a			;CB 6F
   057B CB 68              2702 	bit	5,b			;CB 68
   057D CB 69              2703 	bit	5,c			;CB 69
   057F CB 6A              2704 	bit	5,d			;CB 6A
   0581 CB 6B              2705 	bit	5,e			;CB 6B
   0583 CB 6C              2706 	bit	5,h			;CB 6C
   0585 CB 6D              2707 	bit	5,l			;CB 6D
   0587 CB 76              2708 	bit	6,(hl)			;CB 76
   0589 DD CBr55 76        2720 	bit	6,offsetc+x(ix)		;DD CBr55 76
   058D FD CBr55 76        2721 	bit	6,offsetc+x(iy)		;FD CBr55 76
   0591 DD CBr55 76        2722 	bit	6,(ix+offsetc+x)		;DD CBr55 76
   0595 FD CBr55 76        2723 	bit	6,(iy+offsetc+x)		;FD CBr55 76
   0599 CB 77              2735 	bit	6,a			;CB 77
   059B CB 70              2736 	bit	6,b			;CB 70
   059D CB 71              2737 	bit	6,c			;CB 71
   059F CB 72              2738 	bit	6,d			;CB 72
   05A1 CB 73              2739 	bit	6,e			;CB 73
   05A3 CB 74              2740 	bit	6,h			;CB 74
   05A5 CB 75              2741 	bit	6,l			;CB 75
   05A7 CB 7E              2742 	bit	7,(hl)			;CB 7E
   05A9 DD CBr55 7E        2754 	bit	7,offsetc+x(ix)		;DD CBr55 7E
   05AD FD CBr55 7E        2755 	bit	7,offsetc+x(iy)		;FD CBr55 7E
   05B1 DD CBr55 7E        2756 	bit	7,(ix+offsetc+x)		;DD CBr55 7E
   05B5 FD CBr55 7E        2757 	bit	7,(iy+offsetc+x)		;FD CBr55 7E
   05B9 CB 7F              2769 	bit	7,a			;CB 7F
   05BB CB 78              2770 	bit	7,b			;CB 78
   05BD CB 79              2771 	bit	7,c			;CB 79
   05BF CB 7A              2772 	bit	7,d			;CB 7A
   05C1 CB 7B              2773 	bit	7,e			;CB 7B
   05C3 CB 7C              2774 	bit	7,h			;CB 7C
   05C5 CB 7D              2775 	bit	7,l			;CB 7D
                           2776 
                           2777 ;*******************************************************************
                           2778 ;	CALL	
                           2779 ;*******************************************************************
                           2780 	;***********************************************************
                           2781 	; call subroutine at nn if condition is true
                           2782 	.z80
   05C7 DCr84s05           2802 	call	C,nnc+x			;DCr84s05
   05CA FCr84s05           2803 	call	M,nnc+x			;FCr84s05
   05CD FCr84s05           2804 	call	s,nnc+x			;FCr84s05
   05D0 D4r84s05           2805 	call	NC,nnc+x			;D4r84s05
   05D3 C4r84s05           2806 	call	NZ,nnc+x			;C4r84s05
   05D6 F4r84s05           2807 	call	P,nnc+x			;F4r84s05
   05D9 F4r84s05           2808 	CALL	NS,nnc+x			;F4r84s05
   05DC ECr84s05           2809 	call	PE,nnc+x			;ECr84s05
   05DF ECr84s05           2810 	call	V,nnc+x			;ECr84s05
   05E2 E4r84s05           2811 	call	PO,nnc+x			;E4r84s05
   05E5 E4r84s05           2812 	call	nv,nnc+x			;E4r84s05
   05E8 CCr84s05           2813 	call	Z,nnc+x			;CCr84s05
                           2833 	;***********************************************************
                           2834 	; unconditional call to subroutine at nn
   05EB CDr84s05           2845 	call	nnc+x			;CDr84s05
   05EE CDr84s05           2846 	call	(nnc+x)			;CDr84s05
   05F1 CDr84s05           2847 	call	#nnc+x			;CDr84s05
                           2858 	;***********************************************************
                           2859 	;  p. 5-21
                           2860 	.z280
   05F4 DD CD              2861 	call	(hl)			;DD CD
   05F6 DD CC              2862 	call	z,(hl)			;DD CC
   05F8 DD E4              2863 	call	NV,(hl)			;DD E4
   05FA FD CDp34q12        2882 	call	raofc+call01(pc)	;FD CDp34q12
   05FE FD CDp34q12        2886 	call	(pc+raofc+call02)	;FD CDp34q12
   0602 FD CDp34q12        2890 	call	[raofc+call03]		;FD CDp34q12
   0606 FD CD 04 01        2947 	call	[.+0x108]		;FD CD 04 01
   060A FD DCp34q12        2955 	call	c,raofc+call04(pc)	;FD DCp34q12
   060E FD DCp34q12        2959 	call	c,(pc+raofc+call05)	;FD DCp34q12
   0612 FD DCp34q12        2963 	call	c,[raofc+call06]	;FD DCp34q12
   0616 FD DC 04 01        3007 	call	c,.+0x108(pc)		;FD DC 04 01
                           3008 ;*******************************************************************
                           3009 ;	CCF	
                           3010 ;*******************************************************************
                           3011 	;***********************************************************
                           3012 	; complement carry flag
                           3013 	.z80
   061A 3F                 3014 	ccf				;3F
                           3015 
                           3016 ;*******************************************************************
                           3017 ;	CP	
                           3018 ;		Leading 'a' operand is optional.
                           3019 ;		If offset is ommitted 0 is assumed.
                           3020 ;*******************************************************************
                           3021 	;***********************************************************
                           3022 	; compare operand with 'a'
                           3023 	.z80
   061B BE                 3024 	cp	a,(hl)			;BE
   061C DD BEr55           3036 	cp	a,offsetc+x(ix)		;DD BEr55
   061F FD BEr55           3037 	cp	a,offsetc+x(iy)		;FD BEr55
   0622 DD BEr55           3038 	cp	a,(ix+offsetc+x)		;DD BEr55
   0625 FD BEr55           3039 	cp	a,(iy+offsetc+x)		;FD BEr55
   0628 BF                 3051 	cp	a,a			;BF
   0629 B8                 3052 	cp	a,b			;B8
   062A B9                 3053 	cp	a,c			;B9
   062B BA                 3054 	cp	a,d			;BA
   062C BB                 3055 	cp	a,e			;BB
   062D BC                 3056 	cp	a,h			;BC
   062E BD                 3057 	cp	a,l			;BD
   062F FEr20              3067 	cp	a,#nc+x			;FEr20
   0631 FEr20              3068 	cp	a, nc+x			;FEr20
                           3078 	;***********************************************************
                           3079 	; compare operand without 'a'
                           3080 	.z80
   0633 BE                 3081 	cp	a,(hl)			;BE
   0634 DD BEr55           3093 	cp	offsetc+x(ix)		;DD BEr55
   0637 FD BEr55           3094 	cp	offsetc+x(iy)		;FD BEr55
   063A DD BEr55           3095 	cp	(ix+offsetc+x)		;DD BEr55
   063D FD BEr55           3096 	cp	(iy+offsetc+x)		;FD BEr55
   0640 BF                 3108 	cp	a			;BF
   0641 B8                 3109 	cp	b			;B8
   0642 B9                 3110 	cp	c			;B9
   0643 BA                 3111 	cp	d			;BA
   0644 BB                 3112 	cp	e			;BB
   0645 BC                 3113 	cp	h			;BC
   0646 BD                 3114 	cp	l			;BD
   0647 FEr20              3124 	cp	#nc+x			;FEr20
   0649 FEr20              3125 	cp	 nc+x			;FEr20
                           3135 	;***********************************************************
                           3136 	; compare operand with 'a'
                           3137 	;  p. 5-23
                           3138 	.z280
   064B DD BC              3139 	cp	a,ixh			;DD BC
   064D DD BD              3140 	cp	a,ixl			;DD BD
   064F FD BC              3141 	cp	a,iyh			;FD BC
   0651 FD BD              3142 	cp	a,iyl			;FD BD
   0653 FEr20              3168 	cp	a,#nc+x			;FEr20
   0655 DD BFr44s33        3169 	cp	a,(daddc+x)		;DD BFr44s33
   0659 FD B9r55s00        3170 	cp	a,sxofc+x(ix)		;FD B9r55s00
   065D FD B9r55s00        3171 	cp	a,(ix+sxofc+x)		;FD B9r55s00
   0661 FD BAr55s00        3172 	cp	a,sxofc+x(iy)		;FD BAr55s00
   0665 FD BAr55s00        3173 	cp	a,(iy+sxofc+x)		;FD BAr55s00
   0669 FD BBr55s00        3174 	cp	a,sxofc+x(hl)		;FD BBr55s00
   066D FD BBr55s00        3175 	cp	a,(hl+sxofc+x)		;FD BBr55s00
   0671 DD B8r55s00        3176 	cp	a,sxofc+x(sp)		;DD B8r55s00
   0675 DD B8r55s00        3177 	cp	a,(sp+sxofc+x)		;DD B8r55s00
   0679 FD B9r22s11        3178 	cp	a,lxofc+x(ix)		;FD B9r22s11
   067D FD B9r22s11        3179 	cp	a,(ix+lxofc+x)		;FD B9r22s11
   0681 FD BAr22s11        3180 	cp	a,lxofc+x(iy)		;FD BAr22s11
   0685 FD BAr22s11        3181 	cp	a,(iy+lxofc+x)		;FD BAr22s11
   0689 FD BBr22s11        3182 	cp	a,lxofc+x(hl)		;FD BBr22s11
   068D FD BBr22s11        3183 	cp	a,(hl+lxofc+x)		;FD BBr22s11
   0691 DD B8r22s11        3184 	cp	a,lxofc+x(sp)		;DD B8r22s11
   0695 DD B8r22s11        3185 	cp	a,(sp+lxofc+x)		;DD B8r22s11
   0699 DD BE 00           3224 	cp	a,(ix)			;DD BE 00
   069C FD BE 00           3225 	cp	a,(iy)			;FD BE 00
   069F BE                 3226 	cp	a,(hl)			;BE
   06A0 DD B8 00 00        3227 	cp	a,(sp)			;DD B8 00 00
   06A4 FD B8p34q12        3246 	cp	a,raofc+cp01(pc)	;FD B8p34q12
   06A8 FD B8p34q12        3250 	cp	a,(pc+raofc+cp02)	;FD B8p34q12
   06AC FD B8p34q12        3254 	cp	a,[raofc+cp03]		;FD B8p34q12
   06B0 FD B8 51 00        3311 	cp	a,[.+offsetc]		;FD B8 51 00
   06B4 DD B9              3312 	cp	a,(hl+ix)		;DD B9
   06B6 DD BA              3313 	cp	a,(hl+iy)		;DD BA
   06B8 DD BB              3314 	cp	a,(ix+iy)		;DD BB
                           3315 	;***********************************************************
                           3316 	; compare operand without 'a'
                           3317 	;  p. 5-23
                           3318 	.z280
   06BA FEr20              3344 	cp	#nc+x			;FEr20
   06BC DD BFr44s33        3345 	cp	(daddc+x)			;DD BFr44s33
   06C0 FD B9r55s00        3346 	cp	sxofc+x(ix)		;FD B9r55s00
   06C4 FD B9r55s00        3347 	cp	(ix+sxofc+x)		;FD B9r55s00
   06C8 FD BAr55s00        3348 	cp	sxofc+x(iy)		;FD BAr55s00
   06CC FD BAr55s00        3349 	cp	(iy+sxofc+x)		;FD BAr55s00
   06D0 FD BBr55s00        3350 	cp	sxofc+x(hl)		;FD BBr55s00
   06D4 FD BBr55s00        3351 	cp	(hl+sxofc+x)		;FD BBr55s00
   06D8 DD B8r55s00        3352 	cp	sxofc+x(sp)		;DD B8r55s00
   06DC DD B8r55s00        3353 	cp	(sp+sxofc+x)		;DD B8r55s00
   06E0 FD B9r22s11        3354 	cp	lxofc+x(ix)		;FD B9r22s11
   06E4 FD B9r22s11        3355 	cp	(ix+lxofc+x)		;FD B9r22s11
   06E8 FD BAr22s11        3356 	cp	lxofc+x(iy)		;FD BAr22s11
   06EC FD BAr22s11        3357 	cp	(iy+lxofc+x)		;FD BAr22s11
   06F0 FD BBr22s11        3358 	cp	lxofc+x(hl)		;FD BBr22s11
   06F4 FD BBr22s11        3359 	cp	(hl+lxofc+x)		;FD BBr22s11
   06F8 DD B8r22s11        3360 	cp	lxofc+x(sp)		;DD B8r22s11
   06FC DD B8r22s11        3361 	cp	(sp+lxofc+x)		;DD B8r22s11
   0700 DD BE 00           3400 	cp	(ix)			;DD BE 00
   0703 FD BE 00           3401 	cp	(iy)			;FD BE 00
   0706 BE                 3402 	cp	(hl)			;BE
   0707 DD B8 00 00        3403 	cp	(sp)			;DD B8 00 00
   070B FD B8p34q12        3422 	cp	raofc+cp04(pc)		;FD B8p34q12
   070F FD B8p34q12        3426 	cp	(pc+raofc+cp05)		;FD B8p34q12
   0713 FD B8p34q12        3430 	cp	[raofc+cp06]		;FD B8p34q12
   0717 FD B8 51 00        3487 	cp	[.+offsetc]		;FD B8 51 00
   071B DD B9              3488 	cp	(hl+ix)			;DD B9
   071D DD BA              3489 	cp	(hl+iy)			;DD BA
   071F DD BB              3490 	cp	(ix+iy)			;DD BB
                           3491 ;*******************************************************************
                           3492 ;	CPW	
                           3493 ;*******************************************************************
                           3494 	;***********************************************************
                           3495 	; compare word operand with 'hl'
                           3496 	;  p. 5-29
                           3497 	.z280
   0721 ED C7              3498 	cpw	hl,bc			;ED C7
   0723 ED D7              3499 	cpw	hl,de			;ED D7
   0725 ED E7              3500 	cpw	hl,hl			;ED E7
   0727 ED F7              3501 	cpw	hl,sp			;ED F7
   0729 DD ED E7           3502 	cpw	hl,ix			;DD ED E7
   072C FD ED E7           3503 	cpw	hl,iy			;FD ED E7
   072F FD ED F7r84s05     3521 	cpw	hl,#nnc+x			;FD ED F7r84s05
   0734 DD ED D7r44s33     3522 	cpw	hl,(daddc+x)		;DD ED D7r44s33
   0739 FD ED C7r55s00     3523 	cpw	hl,sxofc+x(ix)		;FD ED C7r55s00
   073E FD ED C7r55s00     3524 	cpw	hl,(ix+sxofc+x)		;FD ED C7r55s00
   0743 FD ED C7r22s11     3525 	cpw	hl,lxofc+x(ix)		;FD ED C7r22s11
   0748 FD ED C7r22s11     3526 	cpw	hl,(ix+lxofc+x)		;FD ED C7r22s11
   074D FD ED D7r55s00     3527 	cpw	hl,sxofc+x(iy)		;FD ED D7r55s00
   0752 FD ED D7r55s00     3528 	cpw	hl,(iy+sxofc+x)		;FD ED D7r55s00
   0757 FD ED D7r22s11     3529 	cpw	hl,lxofc+x(iy)		;FD ED D7r22s11
   075C FD ED D7r22s11     3530 	cpw	hl,(iy+lxofc+x)		;FD ED D7r22s11
   0761 DD ED C7           3548 	cpw	hl,(hl)			;DD ED C7
   0764 FD ED C7 00 00     3549 	cpw	hl,(ix)			;FD ED C7 00 00
   0769 FD ED D7 00 00     3550 	cpw	hl,(iy)			;FD ED D7 00 00
   076E DD ED F7p34q12     3569 	cpw	hl,raofc+cpw01(pc)	;DD ED F7p34q12
   0773 DD ED F7p34q12     3573 	cpw	hl,(pc+raofc+cpw02)	;DD ED F7p34q12
   0778 DD ED F7p34q12     3577 	cpw	hl,[raofc+cpw03]	;DD ED F7p34q12
   077D DD ED F7 0F 00     3634 	cpw	hl,[.+20]		;DD ED F7 0F 00
                           3635 
                           3636 	;***********************************************************
                           3637 	; compare word operand without 'hl'
   0782 ED C7              3638 	cpw	bc			;ED C7
   0784 ED D7              3639 	cpw	de			;ED D7
   0786 ED E7              3640 	cpw	hl			;ED E7
   0788 ED F7              3641 	cpw	sp			;ED F7
   078A DD ED E7           3642 	cpw	ix			;DD ED E7
   078D FD ED E7           3643 	cpw	iy			;FD ED E7
   0790 FD ED F7r84s05     3661 	cpw	#nnc+x			;FD ED F7r84s05
   0795 DD ED D7r44s33     3662 	cpw	(daddc+x)			;DD ED D7r44s33
   079A FD ED C7r55s00     3663 	cpw	sxofc+x(ix)		;FD ED C7r55s00
   079F FD ED C7r55s00     3664 	cpw	(ix+sxofc+x)		;FD ED C7r55s00
   07A4 FD ED C7r22s11     3665 	cpw	lxofc+x(ix)		;FD ED C7r22s11
   07A9 FD ED C7r22s11     3666 	cpw	(ix+lxofc+x)		;FD ED C7r22s11
   07AE FD ED D7r55s00     3667 	cpw	sxofc+x(iy)		;FD ED D7r55s00
   07B3 FD ED D7r55s00     3668 	cpw	(iy+sxofc+x)		;FD ED D7r55s00
   07B8 FD ED D7r22s11     3669 	cpw	lxofc+x(iy)		;FD ED D7r22s11
   07BD FD ED D7r22s11     3670 	cpw	(iy+lxofc+x)		;FD ED D7r22s11
   07C2 DD ED C7           3688 	cpw	(hl)			;DD ED C7
   07C5 FD ED C7 00 00     3689 	cpw	(ix)			;FD ED C7 00 00
   07CA FD ED D7 00 00     3690 	cpw	(iy)			;FD ED D7 00 00
   07CF DD ED F7p34q12     3709 	cpw	raofc+cpw04(pc)		;DD ED F7p34q12
   07D4 DD ED F7p34q12     3713 	cpw	(pc+raofc+cpw05)	;DD ED F7p34q12
   07D9 DD ED F7p34q12     3717 	cpw	[raofc+cpw06]		;DD ED F7p34q12
   07DE DD ED F7 0F 00     3774 	cpw	[.+20]			;DD ED F7 0F 00
                           3775 
                           3776 	;***********************************************************
                           3777 	; Alternative to cpw hl,...
                           3778 	;  p. 5-29
                           3779 	.z280
   07E3 ED C7              3780 	cp	hl,bc			;ED C7
   07E5 ED D7              3781 	cp	hl,de			;ED D7
   07E7 ED E7              3782 	cp	hl,hl			;ED E7
   07E9 ED F7              3783 	cp	hl,sp			;ED F7
   07EB DD ED E7           3784 	cp	hl,ix			;DD ED E7
   07EE FD ED E7           3785 	cp	hl,iy			;FD ED E7
   07F1 FD ED F7r84s05     3803 	cp	hl,#nnc+x			;FD ED F7r84s05
   07F6 DD ED D7r44s33     3804 	cp	hl,(daddc+x)		;DD ED D7r44s33
   07FB FD ED C7r55s00     3805 	cp	hl,sxofc+x(ix)		;FD ED C7r55s00
   0800 FD ED C7r55s00     3806 	cp	hl,(ix+sxofc+x)		;FD ED C7r55s00
   0805 FD ED C7r22s11     3807 	cp	hl,lxofc+x(ix)		;FD ED C7r22s11
   080A FD ED C7r22s11     3808 	cp	hl,(ix+lxofc+x)		;FD ED C7r22s11
   080F FD ED D7r55s00     3809 	cp	hl,sxofc+x(iy)		;FD ED D7r55s00
   0814 FD ED D7r55s00     3810 	cp	hl,(iy+sxofc+x)		;FD ED D7r55s00
   0819 FD ED D7r22s11     3811 	cp	hl,lxofc+x(iy)		;FD ED D7r22s11
   081E FD ED D7r22s11     3812 	cp	hl,(iy+lxofc+x)		;FD ED D7r22s11
   0823 DD ED C7           3830 	cp	hl,(hl)			;DD ED C7
   0826 FD ED C7 00 00     3831 	cp	hl,(ix)			;FD ED C7 00 00
   082B FD ED D7 00 00     3832 	cp	hl,(iy)			;FD ED D7 00 00
   0830 DD ED F7p34q12     3851 	cp	hl,raofc+cp07(pc)	;DD ED F7p34q12
   0835 DD ED F7p34q12     3855 	cp	hl,(pc+raofc+cp08)	;DD ED F7p34q12
   083A DD ED F7p34q12     3859 	cp	hl,[raofc+cp09]		;DD ED F7p34q12
   083F DD ED F7 0F 00     3916 	cp	hl,[.+20]		;DD ED F7 0F 00
                           3917 
                           3918 ;*******************************************************************
                           3919 ;	CPD	
                           3920 ;*******************************************************************
                           3921 	;***********************************************************
                           3922 	; compare location (hl) and 'a'
                           3923 	; decrement 'hl' and 'bc'
                           3924 	.z80
   0844 ED A9              3925 	cpd				;ED A9
                           3926 
                           3927 ;*******************************************************************
                           3928 ;	CPDR	
                           3929 ;*******************************************************************
                           3930 	;***********************************************************
                           3931 	; compare location (hl) and 'a'
                           3932 	; decrement 'hl' and 'bc'
                           3933 	; repeat until 'bc' = 0
                           3934 	.z80
   0846 ED B9              3935 	cpdr				;ED B9
                           3936 
                           3937 ;*******************************************************************
                           3938 ;	CPI	
                           3939 ;*******************************************************************
                           3940 	;***********************************************************
                           3941 	; compare location (hl) and 'a'
                           3942 	; increment 'hl' and decrement 'bc'
                           3943 	.z80
   0848 ED A1              3944 	cpi				;ED A1
                           3945 
                           3946 ;*******************************************************************
                           3947 ;	CPIR	
                           3948 ;*******************************************************************
                           3949 	;***********************************************************
                           3950 	; compare location (hl) and 'a'
                           3951 	; increment 'hl' and decrement 'bc'
                           3952 	; repeat until 'bc' = 0
                           3953 	.z80
   084A ED B1              3954 	cpir				;ED B1
                           3955 
                           3956 ;*******************************************************************
                           3957 ;	CPL	
                           3958 ;*******************************************************************
                           3959 	;***********************************************************
                           3960 	; 1's complement of 'a'
                           3961 	.z80
   084C 2F                 3962 	cpl				;2F
                           3963 
                           3964 ;*******************************************************************
                           3965 ;	DAA	
                           3966 ;*******************************************************************
                           3967 	;***********************************************************
                           3968 	; decimal adjust 'a'
                           3969 	.z80
   084D 27                 3970 	daa				;27
                           3971 
                           3972 ;*******************************************************************
                           3973 ;	DEC	
                           3974 ;*******************************************************************
                           3975 	;***********************************************************
                           3976 	; decrement operand
                           3977 	.z80
   084E 35                 3978 	dec	(hl)			;35
   084F DD 35r55           3990 	dec	offsetc+x(ix)		;DD 35r55
   0852 FD 35r55           3991 	dec	offsetc+x(iy)		;FD 35r55
   0855 DD 35r55           3992 	dec	(ix+offsetc+x)		;DD 35r55
   0858 FD 35r55           3993 	dec	(iy+offsetc+x)		;FD 35r55
   085B 3D                 4005 	dec	a			;3D
   085C 05                 4006 	dec	b			;05
   085D 0B                 4007 	dec	bc			;0B
   085E 0D                 4008 	dec	c			;0D
   085F 15                 4009 	dec	d			;15
   0860 1B                 4010 	dec	de			;1B
   0861 1D                 4011 	dec	e			;1D
   0862 25                 4012 	dec	h			;25
   0863 2B                 4013 	dec	hl			;2B
   0864 DD 2B              4014 	dec	ix			;DD 2B
   0866 FD 2B              4015 	dec	iy			;FD 2B
   0868 2D                 4016 	dec	l			;2D
   0869 3B                 4017 	dec	sp			;3B
                           4018 	;***********************************************************
                           4019 	;  p. 5-32
                           4020 	.z280
   086A DD 25              4021 	dec	ixh			;DD 25
   086C DD 2D              4022 	dec	ixl			;DD 2D
   086E FD 25              4023 	dec	iyh			;FD 25
   0870 FD 2D              4024 	dec	iyl			;FD 2D
   0872 DD 3Dr44s33        4049 	dec	(daddc+x)			;DD 3Dr44s33
   0876 FD 0Dr55s00        4050 	dec	sxofc+x(ix)		;FD 0Dr55s00
   087A FD 0Dr55s00        4051 	dec	(ix+sxofc+x)		;FD 0Dr55s00
   087E FD 15r55s00        4052 	dec	sxofc+x(iy)		;FD 15r55s00
   0882 FD 15r55s00        4053 	dec	(iy+sxofc+x)		;FD 15r55s00
   0886 FD 1Dr55s00        4054 	dec	sxofc+x(hl)		;FD 1Dr55s00
   088A FD 1Dr55s00        4055 	dec	(hl+sxofc+x)		;FD 1Dr55s00
   088E DD 05r55s00        4056 	dec	sxofc+x(sp)		;DD 05r55s00
   0892 DD 05r55s00        4057 	dec	(sp+sxofc+x)		;DD 05r55s00
   0896 FD 0Dr22s11        4058 	dec	lxofc+x(ix)		;FD 0Dr22s11
   089A FD 0Dr22s11        4059 	dec	(ix+lxofc+x)		;FD 0Dr22s11
   089E FD 15r22s11        4060 	dec	lxofc+x(iy)		;FD 15r22s11
   08A2 FD 15r22s11        4061 	dec	(iy+lxofc+x)		;FD 15r22s11
   08A6 FD 1Dr22s11        4062 	dec	lxofc+x(hl)		;FD 1Dr22s11
   08AA FD 1Dr22s11        4063 	dec	(hl+lxofc+x)		;FD 1Dr22s11
   08AE DD 05r22s11        4064 	dec	lxofc+x(sp)		;DD 05r22s11
   08B2 DD 05r22s11        4065 	dec	(sp+lxofc+x)		;DD 05r22s11
   08B6 DD 35 00           4103 	dec	(ix)			;DD 35 00
   08B9 FD 35 00           4104 	dec	(iy)			;FD 35 00
   08BC 35                 4105 	dec	(hl)			;35
   08BD DD 05 00 00        4106 	dec	(sp)			;DD 05 00 00
   08C1 FD 05p34q12        4125 	dec	raofc+dec01(pc)		;FD 05p34q12
   08C5 FD 05p34q12        4129 	dec	(pc+raofc+dec02)	;FD 05p34q12
   08C9 FD 05p34q12        4133 	dec	[raofc+dec03]		;FD 05p34q12
   08CD FD 05 51 00        4190 	dec	[.+offsetc]		;FD 05 51 00
   08D1 DD 0D              4191 	dec	(hl+ix)			;DD 0D
   08D3 DD 15              4192 	dec	(hl+iy)			;DD 15
   08D5 DD 1D              4193 	dec	(ix+iy)			;DD 1D
                           4194 
                           4195 ;*******************************************************************
                           4196 ;	DECB	
                           4197 ;*******************************************************************
                           4198 	;***********************************************************
                           4199 	; decrement byte operand
                           4200 	;  p. 5-32
                           4201 	.z80
   08D7 35                 4202 	decb	(hl)			;35
   08D8 DD 35r55           4214 	decb	offsetc+x(ix)		;DD 35r55
   08DB FD 35r55           4215 	decb	offsetc+x(iy)		;FD 35r55
   08DE DD 35r55           4216 	decb	(ix+offsetc+x)		;DD 35r55
   08E1 FD 35r55           4217 	decb	(iy+offsetc+x)		;FD 35r55
                           4229 	;***********************************************************
                           4230 	.z280
   08E4 DD 3Dr44s33        4255 	decb	(daddc+x)			;DD 3Dr44s33
   08E8 FD 0Dr55s00        4256 	decb	sxofc+x(ix)		;FD 0Dr55s00
   08EC FD 0Dr55s00        4257 	decb	(ix+sxofc+x)		;FD 0Dr55s00
   08F0 FD 15r55s00        4258 	decb	sxofc+x(iy)		;FD 15r55s00
   08F4 FD 15r55s00        4259 	decb	(iy+sxofc+x)		;FD 15r55s00
   08F8 FD 1Dr55s00        4260 	decb	sxofc+x(hl)		;FD 1Dr55s00
   08FC FD 1Dr55s00        4261 	decb	(hl+sxofc+x)		;FD 1Dr55s00
   0900 DD 05r55s00        4262 	decb	sxofc+x(sp)		;DD 05r55s00
   0904 DD 05r55s00        4263 	decb	(sp+sxofc+x)		;DD 05r55s00
   0908 FD 0Dr22s11        4264 	decb	lxofc+x(ix)		;FD 0Dr22s11
   090C FD 0Dr22s11        4265 	decb	(ix+lxofc+x)		;FD 0Dr22s11
   0910 FD 15r22s11        4266 	decb	lxofc+x(iy)		;FD 15r22s11
   0914 FD 15r22s11        4267 	decb	(iy+lxofc+x)		;FD 15r22s11
   0918 FD 1Dr22s11        4268 	decb	lxofc+x(hl)		;FD 1Dr22s11
   091C FD 1Dr22s11        4269 	decb	(hl+lxofc+x)		;FD 1Dr22s11
   0920 DD 05r22s11        4270 	decb	lxofc+x(sp)		;DD 05r22s11
   0924 DD 05r22s11        4271 	decb	(sp+lxofc+x)		;DD 05r22s11
   0928 DD 35 00           4309 	decb	(ix)			;DD 35 00
   092B FD 35 00           4310 	decb	(iy)			;FD 35 00
   092E 35                 4311 	decb	(hl)			;35
   092F DD 05 00 00        4312 	decb	(sp)			;DD 05 00 00
   0933 FD 05p34q12        4331 	decb	raofc+decb01(pc)	;FD 05p34q12
   0937 FD 05p34q12        4335 	decb	(pc+raofc+decb02)	;FD 05p34q12
   093B FD 05p34q12        4339 	decb	[raofc+decb03]		;FD 05p34q12
   093F FD 05 51 00        4396 	decb	[.+offsetc]		;FD 05 51 00
   0943 DD 0D              4397 	decb	(hl+ix)			;DD 0D
   0945 DD 15              4398 	decb	(hl+iy)			;DD 15
   0947 DD 1D              4399 	decb	(ix+iy)			;DD 1D
                           4400 
                           4401 ;*******************************************************************
                           4402 ;	DECW	
                           4403 ;*******************************************************************
                           4404 	;***********************************************************
                           4405 	;  p. 5-32
                           4406 	.z80
   0949 0B                 4407 	decw	bc			;0B
   094A 1B                 4408 	decw	de			;1B
   094B 2B                 4409 	decw	hl			;2B
   094C 3B                 4410 	decw	sp			;3B
   094D DD 2B              4411 	decw	ix			;DD 2B
   094F FD 2B              4412 	decw	iy			;FD 2B
                           4413 	;***********************************************************
                           4414 	;  p. 5-33
                           4415 	.z280
   0951 DD 1Br44s33        4432 	decw	(daddc+x)			;DD 1Br44s33
   0955 FD 0Br55s00        4433 	decw	sxofc+x(ix)		;FD 0Br55s00
   0959 FD 0Br55s00        4434 	decw	(ix+sxofc+x)		;FD 0Br55s00
   095D FD 1Br55s00        4435 	decw	sxofc+x(iy)		;FD 1Br55s00
   0961 FD 1Br55s00        4436 	decw	(iy+sxofc+x)		;FD 1Br55s00
   0965 FD 0Br22s11        4437 	decw	lxofc+x(ix)		;FD 0Br22s11
   0969 FD 0Br22s11        4438 	decw	(ix+lxofc+x)		;FD 0Br22s11
   096D FD 1Br22s11        4439 	decw	lxofc+x(iy)		;FD 1Br22s11
   0971 FD 1Br22s11        4440 	decw	(iy+lxofc+x)		;FD 1Br22s11
   0975 FD 0B 00 00        4457 	decw	(ix)			;FD 0B 00 00
   0979 FD 1B 00 00        4458 	decw	(iy)			;FD 1B 00 00
   097D DD 0B              4459 	decw	(hl)			;DD 0B
   097F DD 3Bp34q12        4478 	decw	raofc+decw01(pc)	;DD 3Bp34q12
   0983 DD 3Bp34q12        4482 	decw	(pc+raofc+decw02)	;DD 3Bp34q12
   0987 DD 3Bp34q12        4486 	decw	[raofc+decw03]		;DD 3Bp34q12
   098B DD 3B 51 00        4543 	decw	[.+offsetc]		;DD 3B 51 00
                           4544 
                           4545 ;*******************************************************************
                           4546 ;	DI	
                           4547 ;*******************************************************************
                           4548 	;***********************************************************
                           4549 	; disable interrupts
                           4550 	.z80
   098F F3                 4551 	di				;F3
                           4552 ;	di	#3			;	q
                           4553 	.z180
   0990 F3                 4554 	di				;F3
                           4555 ;	di	#3			;	q
                           4556 	;***********************************************************
                           4557 	;  p. 5-34
                           4558 	.z280
                           4559 ;	di				;	q
                           4560 ;	di	#3			;	q
                           4561 	.z280p
   0991 F3                 4562 	di				;F3
   0992 ED 77 03           4563 	di	#3			;ED 77 03
   0995 ED 77 03           4564 	di	 3			;ED 77 03
                           4565 
                           4566 ;*******************************************************************
                           4567 ;	DIV	
                           4568 ;*******************************************************************
                           4569 	;***********************************************************
                           4570 	;  p. 5-35	DIV(byte)
                           4571 	.z280
   0998 ED FC              4572 	div	hl,a			;ED FC
   099A ED C4              4573 	div	hl,b			;ED C4
   099C ED CC              4574 	div	hl,c			;ED CC
   099E ED D4              4575 	div	hl,d			;ED D4
   09A0 ED DC              4576 	div	hl,e			;ED DC
   09A2 ED E4              4577 	div	hl,h			;ED E4
   09A4 ED EC              4578 	div	hl,l			;ED EC
   09A6 DD ED E4           4579 	div	hl,ixh			;DD ED E4
   09A9 DD ED EC           4580 	div	hl,ixl			;DD ED EC
   09AC FD ED E4           4581 	div	hl,iyh			;FD ED E4
   09AF FD ED EC           4582 	div	hl,iyl			;FD ED EC
   09B2 FD ED FC 0A        4583 	div	hl,#10			;FD ED FC 0A
   09B6 DD ED FCr44s33     4608 	div	hl,(daddc+x)		;DD ED FCr44s33
   09BB FD ED CCr55s00     4609 	div	hl,offsetc+x(ix)		;FD ED CCr55s00
   09C0 FD ED CCr55s00     4610 	div	hl,(ix+offsetc+x)		;FD ED CCr55s00
   09C5 FD ED D4r55s00     4611 	div	hl,offsetc+x(iy)		;FD ED D4r55s00
   09CA FD ED D4r55s00     4612 	div	hl,(iy+offsetc+x)		;FD ED D4r55s00
   09CF FD ED DCr55s00     4613 	div	hl,offsetc+x(hl)		;FD ED DCr55s00
   09D4 FD ED DCr55s00     4614 	div	hl,(hl+offsetc+x)		;FD ED DCr55s00
   09D9 DD ED C4r55s00     4615 	div	hl,offsetc+x(sp)		;DD ED C4r55s00
   09DE DD ED C4r55s00     4616 	div	hl,(sp+offsetc+x)		;DD ED C4r55s00
   09E3 FD ED CCr22s11     4617 	div	hl,lxofc+x(ix)		;FD ED CCr22s11
   09E8 FD ED CCr22s11     4618 	div	hl,(ix+lxofc+x)		;FD ED CCr22s11
   09ED FD ED D4r22s11     4619 	div	hl,lxofc+x(iy)		;FD ED D4r22s11
   09F2 FD ED D4r22s11     4620 	div	hl,(iy+lxofc+x)		;FD ED D4r22s11
   09F7 FD ED DCr22s11     4621 	div	hl,lxofc+x(hl)		;FD ED DCr22s11
   09FC FD ED DCr22s11     4622 	div	hl,(hl+lxofc+x)		;FD ED DCr22s11
   0A01 DD ED C4r22s11     4623 	div	hl,lxofc+x(sp)		;DD ED C4r22s11
   0A06 DD ED C4r22s11     4624 	div	hl,(sp+lxofc+x)		;DD ED C4r22s11
   0A0B DD ED F4 00        4662 	div	hl,(ix)			;DD ED F4 00
   0A0F FD ED F4 00        4663 	div	hl,(iy)			;FD ED F4 00
                           4664 ; misprint in the manual on p. 5-35 says the following should assemble as ED E4
                           4665 ;  Appendix C.  corrects this to ED F4
   0A13 ED F4              4666 	div	hl,(hl)			;ED F4
   0A15 FD ED C4p55q00     4685 	div	hl,offsetc+div01(pc)	;FD ED C4p55q00
   0A1A FD ED C4p55q00     4689 	div	hl,(pc+offsetc+div02)	;FD ED C4p55q00
   0A1F FD ED C4p55q00     4693 	div	hl,[offsetc+div03]	;FD ED C4p55q00
   0A24 FD ED C4 50 00     4750 	div	hl,[.+offsetc]		;FD ED C4 50 00
   0A29 DD ED CC           4751 	div	hl,(hl+ix)		;DD ED CC
   0A2C DD ED D4           4752 	div	hl,(hl+iy)		;DD ED D4
   0A2F DD ED DC           4753 	div	hl,(ix+iy)		;DD ED DC
                           4754 
                           4755 ;*******************************************************************
                           4756 ;	DIVU
                           4757 ;*******************************************************************
                           4758 	;***********************************************************
                           4759 	;  p. 5-37	DIVU(byte)
                           4760 	.z280
   0A32 ED FD              4761 	divu	hl,a			;ED FD
   0A34 ED C5              4762 	divu	hl,b			;ED C5
   0A36 ED CD              4763 	divu	hl,c			;ED CD
   0A38 ED D5              4764 	divu	hl,d			;ED D5
   0A3A ED DD              4765 	divu	hl,e			;ED DD
   0A3C ED E5              4766 	divu	hl,h			;ED E5
   0A3E ED ED              4767 	divu	hl,l			;ED ED
   0A40 DD ED E5           4768 	divu	hl,ixh			;DD ED E5
   0A43 DD ED ED           4769 	divu	hl,ixl			;DD ED ED
   0A46 FD ED E5           4770 	divu	hl,iyh			;FD ED E5
   0A49 FD ED ED           4771 	divu	hl,iyl			;FD ED ED
   0A4C FD ED FD 0A        4772 	divu	hl,#10			;FD ED FD 0A
   0A50 DD ED FDr44s33     4797 	divu	hl,(daddc+x)		;DD ED FDr44s33
   0A55 FD ED CDr55s00     4798 	divu	hl,offsetc+x(ix)		;FD ED CDr55s00
   0A5A FD ED CDr55s00     4799 	divu	hl,(ix+offsetc+x)		;FD ED CDr55s00
   0A5F FD ED D5r55s00     4800 	divu	hl,offsetc+x(iy)		;FD ED D5r55s00
   0A64 FD ED D5r55s00     4801 	divu	hl,(iy+offsetc+x)		;FD ED D5r55s00
   0A69 FD ED DDr55s00     4802 	divu	hl,offsetc+x(hl)		;FD ED DDr55s00
   0A6E FD ED DDr55s00     4803 	divu	hl,(hl+offsetc+x)		;FD ED DDr55s00
   0A73 DD ED C5r55s00     4804 	divu	hl,offsetc+x(sp)		;DD ED C5r55s00
   0A78 DD ED C5r55s00     4805 	divu	hl,(sp+offsetc+x)		;DD ED C5r55s00
   0A7D FD ED CDr22s11     4806 	divu	hl,lxofc+x(ix)		;FD ED CDr22s11
   0A82 FD ED CDr22s11     4807 	divu	hl,(ix+lxofc+x)		;FD ED CDr22s11
   0A87 FD ED D5r22s11     4808 	divu	hl,lxofc+x(iy)		;FD ED D5r22s11
   0A8C FD ED D5r22s11     4809 	divu	hl,(iy+lxofc+x)		;FD ED D5r22s11
   0A91 FD ED DDr22s11     4810 	divu	hl,lxofc+x(hl)		;FD ED DDr22s11
   0A96 FD ED DDr22s11     4811 	divu	hl,(hl+lxofc+x)		;FD ED DDr22s11
   0A9B DD ED C5r22s11     4812 	divu	hl,lxofc+x(sp)		;DD ED C5r22s11
   0AA0 DD ED C5r22s11     4813 	divu	hl,(sp+lxofc+x)		;DD ED C5r22s11
   0AA5 FD ED F5 00        4851 	divu	hl,(iy)			;FD ED F5 00
   0AA9 DD ED F5 00        4852 	divu	hl,(ix)			;DD ED F5 00
   0AAD ED F5              4853 	divu	hl,(hl)			;ED F5
   0AAF FD ED C5p55q00     4872 	divu	hl,offsetc+divu01(pc)	;FD ED C5p55q00
   0AB4 FD ED C5p55q00     4876 	divu	hl,(pc+offsetc+divu02)	;FD ED C5p55q00
   0AB9 FD ED C5p55q00     4880 	divu	hl,[offsetc+divu03]	;FD ED C5p55q00
   0ABE FD ED C5 50 00     4937 	divu	hl,[.+offsetc]		;FD ED C5 50 00
   0AC3 DD ED CD           4938 	divu	hl,(hl+ix)		;DD ED CD
   0AC6 DD ED D5           4939 	divu	hl,(hl+iy)		;DD ED D5
   0AC9 DD ED DD           4940 	divu	hl,(ix+iy)		;DD ED DD
                           4941 
                           4942 ;*******************************************************************
                           4943 ;	DIVUW	
                           4944 ;*******************************************************************
                           4945 	;***********************************************************
                           4946 	;  p. 5-39	DIVUW(word)
                           4947 	.z280
   0ACC ED CB              4948 	divuw	dehl,bc			;ED CB
   0ACE ED DB              4949 	divuw	dehl,de			;ED DB
   0AD0 ED EB              4950 	divuw	dehl,hl			;ED EB
   0AD2 ED FB              4951 	divuw	dehl,sp			;ED FB
   0AD4 DD ED EB           4952 	divuw	dehl,ix			;DD ED EB
   0AD7 FD ED EB           4953 	divuw	dehl,iy			;FD ED EB
   0ADA DD ED CB           4954 	divuw	dehl,(hl)		;DD ED CB
   0ADD FD ED CB 00 00     4955 	divuw	dehl,(ix)		;FD ED CB 00 00
   0AE2 FD ED DB 00 00     4956 	divuw	dehl,(iy)		;FD ED DB 00 00
   0AE7 FD ED FBr20s00     4975     	divuw	dehl,#nc+x			;FD ED FBr20s00
   0AEC FD ED FBr84s05     4976 	divuw	dehl,#nnc+x		;FD ED FBr84s05
   0AF1 DD ED DBr44s33     4977 	divuw	dehl,(daddc+x)		;DD ED DBr44s33
   0AF6 FD ED CBr55s00     4978 	divuw	dehl,(ix+offsetc+x)	;FD ED CBr55s00
   0AFB FD ED CBr55s00     4979 	divuw	dehl,offsetc+x(ix)		;FD ED CBr55s00
   0B00 FD ED DBr55s00     4980 	divuw	dehl,(iy+offsetc+x)	;FD ED DBr55s00
   0B05 FD ED DBr55s00     4981 	divuw	dehl,offsetc+x(iy)		;FD ED DBr55s00
   0B0A FD ED CBr22s11     4982 	divuw	dehl,(ix+lxofc+x)		;FD ED CBr22s11
   0B0F FD ED CBr22s11     4983 	divuw	dehl,lxofc+x(ix)		;FD ED CBr22s11
   0B14 FD ED DBr22s11     4984 	divuw	dehl,(iy+lxofc+x)		;FD ED DBr22s11
   0B19 FD ED DBr22s11     4985 	divuw	dehl,lxofc+x(iy)		;FD ED DBr22s11
   0B1E FD ED CB 00 00     5004 	divuw	dehl,(ix)		;FD ED CB 00 00
   0B23 FD ED DB 00 00     5005 	divuw	dehl,(iy)		;FD ED DB 00 00
   0B28 DD ED CB           5006 	divuw	dehl,(hl)		;DD ED CB
   0B2B DD ED FBp55q00     5025 	divuw	dehl,offsetc+divuw01(pc)	;DD ED FBp55q00
   0B30 DD ED FBp55q00     5029 	divuw	dehl,(pc+offsetc+divuw02)	;DD ED FBp55q00
   0B35 DD ED FBp55q00     5033 	divuw	dehl,[offsetc+divuw03]		;DD ED FBp55q00
   0B3A DD ED FB 50 00     5090 	divuw	dehl,[.+offsetc]	;DD ED FB 50 00
                           5091 
                           5092 ;*******************************************************************
                           5093 ;	DIVW	
                           5094 ;*******************************************************************
                           5095 	;***********************************************************
                           5096 	;  p. 5-41	DIVW(word)
                           5097 	.z280
   0B3F ED CA              5098 	divw	dehl,bc			;ED CA
   0B41 ED DA              5099 	divw	dehl,de			;ED DA
   0B43 ED EA              5100 	divw	dehl,hl			;ED EA
   0B45 ED FA              5101 	divw	dehl,sp			;ED FA
   0B47 DD ED EA           5102 	divw	dehl,ix			;DD ED EA
   0B4A FD ED EA           5103 	divw	dehl,iy			;FD ED EA
   0B4D DD ED CA           5104 	divw	dehl,(hl)		;DD ED CA
   0B50 FD ED CA 00 00     5105 	divw	dehl,(ix)		;FD ED CA 00 00
   0B55 FD ED DA 00 00     5106 	divw	dehl,(iy)		;FD ED DA 00 00
   0B5A FD ED FAr20s00     5125 	divw	dehl,#nc+x			;FD ED FAr20s00
   0B5F FD ED FAr84s05     5126 	divw	dehl,#nnc+x		;FD ED FAr84s05
   0B64 DD ED DAr44s33     5127 	divw	dehl,(daddc+x)		;DD ED DAr44s33
   0B69 FD ED CAr55s00     5128 	divw	dehl,(ix+offsetc+x)	;FD ED CAr55s00
   0B6E FD ED CAr55s00     5129 	divw	dehl,offsetc+x(ix)		;FD ED CAr55s00
   0B73 FD ED DAr55s00     5130 	divw	dehl,(iy+offsetc+x)	;FD ED DAr55s00
   0B78 FD ED DAr55s00     5131 	divw	dehl,offsetc+x(iy)		;FD ED DAr55s00
   0B7D FD ED CAr22s11     5132 	divw	dehl,(ix+lxofc+x)		;FD ED CAr22s11
   0B82 FD ED CAr22s11     5133 	divw	dehl,lxofc+x(ix)		;FD ED CAr22s11
   0B87 FD ED DAr22s11     5134 	divw	dehl,(iy+lxofc+x)		;FD ED DAr22s11
   0B8C FD ED DAr22s11     5135 	divw	dehl,lxofc+x(iy)		;FD ED DAr22s11
   0B91 FD ED CA 00 00     5154 	divw	dehl,(ix)		;FD ED CA 00 00
   0B96 FD ED DA 00 00     5155 	divw	dehl,(iy)		;FD ED DA 00 00
   0B9B DD ED CA           5156 	divw	dehl,(hl)		;DD ED CA
   0B9E DD ED FAp55q00     5175 	divw	dehl,offsetc+divw01(pc)		;DD ED FAp55q00
   0BA3 DD ED FAp55q00     5179 	divw	dehl,(pc+offsetc+divw02)	;DD ED FAp55q00
   0BA8 DD ED FAp55q00     5183 	divw	dehl,[offsetc+divw03]		;DD ED FAp55q00
   0BAD DD ED FA 50 00     5240 	divw	dehl,[.+offsetc]	;DD ED FA 50 00
                           5241 
                           5242 ;*******************************************************************
                           5243 ;	DJNZ	
                           5244 ;*******************************************************************
                           5245 	.z80
                           5246 	;***********************************************************
                           5247 	; decrement b and jump relative if b # 0
   0BB2 10 10              5248 	djnz	.+0x12			;10 10
                           5249 
                           5250 ;*******************************************************************
                           5251 ;	EI	
                           5252 ;*******************************************************************
                           5253 	;***********************************************************
                           5254 	; enable interrupts
                           5255 	.z80
   0BB4 FB                 5256 	ei				;FB
                           5257 	.z180
   0BB5 FB                 5258 	ei				;FB
                           5259 	;***********************************************************
                           5260 	;  p. 5-44
                           5261 	.z280p
   0BB6 FB                 5262 	ei				;FB
   0BB7 ED 7F 37           5263 	ei	#0x37			;ED 7F 37
                           5264 
                           5265 ;*******************************************************************
                           5266 ;	EX	
                           5267 ;		If offset is ommitted 0 is assumed.
                           5268 ;*******************************************************************
                           5269 	;***********************************************************
                           5270 	; exchange location and (sp)
                           5271 	.z80
   0BBA E3                 5272 	ex	(sp),hl			;E3
   0BBB DD E3              5273 	ex	(sp),ix			;DD E3
   0BBD FD E3              5274 	ex	(sp),iy			;FD E3
                           5275 	;***********************************************************
                           5276 	; exchange af and af'
   0BBF 08                 5277 	ex	af,af'			;08
                           5278 	;***********************************************************
                           5279 	; exchange de and hl
   0BC0 EB                 5280 	ex	de,hl			;EB
                           5281 	;***********************************************************
                           5282 	;  p. 5-47
                           5283 	.z280
   0BC1 ED EF              5284 	ex	h,l			;ED EF
                           5285 	;  p. 5-48
   0BC3 DD EB              5286 	ex	ix,hl			;DD EB
   0BC5 FD EB              5287 	ex	iy,hl			;FD EB
   0BC7 FD EB              5288 	ex	hl,iy			;FD EB
   0BC9 DD EB              5289 	ex	hl,ix			;DD EB
                           5290 	; p. 5-49
   0BCB ED 3F              5291 	ex	a,a			;ED 3F
   0BCD ED 07              5292 	ex	a,b			;ED 07
   0BCF ED 0F              5293 	ex	a,c			;ED 0F
   0BD1 ED 17              5294 	ex	a,d			;ED 17
   0BD3 ED 1F              5295 	ex	a,e			;ED 1F
   0BD5 ED 27              5296 	ex	a,h			;ED 27
   0BD7 ED 2F              5297 	ex	a,l			;ED 2F
   0BD9 DD ED 27           5298 	ex	a,ixh			;DD ED 27
   0BDC DD ED 2F           5299 	ex	a,ixl			;DD ED 2F
   0BDF FD ED 27           5300 	ex	a,iyh			;FD ED 27
   0BE2 FD ED 2F           5301 	ex	a,iyl			;FD ED 2F
   0BE5 ED 37              5302 	ex	a,(hl)			;ED 37
   0BE7 DD ED 3Fr44s33     5327 	ex	a,(daddc+x)		;DD ED 3Fr44s33
   0BEC FD ED 0Fr55s00     5328 	ex	a,offsetc+x(ix)		;FD ED 0Fr55s00
   0BF1 FD ED 0Fr55s00     5329 	ex	a,(ix+offsetc+x)		;FD ED 0Fr55s00
   0BF6 FD ED 17r55s00     5330 	ex	a,offsetc+x(iy)		;FD ED 17r55s00
   0BFB FD ED 17r55s00     5331 	ex	a,(iy+offsetc+x)		;FD ED 17r55s00
   0C00 FD ED 1Fr55s00     5332 	ex	a,offsetc+x(hl)		;FD ED 1Fr55s00
   0C05 FD ED 1Fr55s00     5333 	ex	a,(hl+offsetc+x)		;FD ED 1Fr55s00
   0C0A DD ED 07r55s00     5334 	ex	a,offsetc+x(sp)		;DD ED 07r55s00
   0C0F DD ED 07r55s00     5335 	ex	a,(sp+offsetc+x)		;DD ED 07r55s00
   0C14 FD ED 0Fr22s11     5336 	ex	a,lxofc+x(ix)		;FD ED 0Fr22s11
   0C19 FD ED 0Fr22s11     5337 	ex	a,(ix+lxofc+x)		;FD ED 0Fr22s11
   0C1E FD ED 17r22s11     5338 	ex	a,lxofc+x(iy)		;FD ED 17r22s11
   0C23 FD ED 17r22s11     5339 	ex	a,(iy+lxofc+x)		;FD ED 17r22s11
   0C28 FD ED 1Fr22s11     5340 	ex	a,lxofc+x(hl)		;FD ED 1Fr22s11
   0C2D FD ED 1Fr22s11     5341 	ex	a,(hl+lxofc+x)		;FD ED 1Fr22s11
   0C32 DD ED 07r22s11     5342 	ex	a,lxofc+x(sp)		;DD ED 07r22s11
   0C37 DD ED 07r22s11     5343 	ex	a,(sp+lxofc+x)		;DD ED 07r22s11
   0C3C DD ED 37 00        5381 	ex	a,(ix)			;DD ED 37 00
   0C40 FD ED 37 00        5382 	ex	a,(iy)			;FD ED 37 00
                           5383 ;	ex	a,(hl)			;FD ED 1F 00 00
   0C44 FD ED 07p55q00     5402 	ex	a,offsetc+ex01(pc)	;FD ED 07p55q00
   0C49 FD ED 07p55q00     5406 	ex	a,(pc+offsetc+ex02)	;FD ED 07p55q00
   0C4E FD ED 07p55q00     5410 	ex	a,[offsetc+ex03]	;FD ED 07p55q00
   0C53 FD ED 07 D9 EE     5467 	ex	a,[.-lxofc]		;FD ED 07 D9 EE
   0C58 DD ED 0F           5468 	ex	a,(hl+ix)		;DD ED 0F
   0C5B DD ED 17           5469 	ex	a,(hl+iy)		;DD ED 17
   0C5E DD ED 1F           5470 	ex	a,(ix+iy)		;DD ED 1F
                           5471 
                           5472 ;*******************************************************************
                           5473 ;	EXTS	
                           5474 ;*******************************************************************
                           5475 	;***********************************************************
                           5476 	;  extend sign  a->hl,   hl->dehl
                           5477 	;  pp. 5-50, 5-51
   0C61 ED 64              5478 	exts				;ED 64
   0C63 ED 64              5479 	exts	a			;ED 64
   0C65 ED 6C              5480 	exts	hl			;ED 6C
                           5481 
                           5482 ;*******************************************************************
                           5483 ;	EXX	
                           5484 ;*******************************************************************
                           5485 	;***********************************************************
                           5486 	; exchange:
                           5487 	;	bc <-> bc'
                           5488 	;	de <-> de'
                           5489 	;	hl <-> hl'
                           5490 	.z80
   0C67 D9                 5491 	exx				;D9
                           5492 
                           5493 ;*******************************************************************
                           5494 ;	HALT	
                           5495 ;*******************************************************************
                           5496 	;***********************************************************
                           5497 	; halt (wait for interrupt or reset)
                           5498 	.z80
   0C68 76                 5499 	halt				;76
                           5500 
                           5501 ;*******************************************************************
                           5502 ;	IM	
                           5503 ;*******************************************************************
                           5504 	;***********************************************************
                           5505 	; set interrupt mode
                           5506 	.z80
   0C69 ED 46              5507 	im	0			;ED 46
   0C6B ED 56              5508 	im	1			;ED 56
   0C6D ED 5E              5509 	im	2			;ED 5E
                           5510 	.z280p
   0C6F ED 4E              5511 	im	3			;ED 4E
                           5512 
                           5513 ;*******************************************************************
                           5514 ;	IN and INW	
                           5515 ;*******************************************************************
                           5516 	;***********************************************************
                           5517 	; load 'a' with input from device n
                           5518 	.z80
   0C71 DBr20              5527 	in	a,(nc+x)			;DBr20
   0C73 DB 33              5536 	in	a,0x33			;DB 33
                           5537 	;***********************************************************
                           5538 	; load register with input from (c)
   0C75 ED 78              5539 	in	a,(c)			;ED 78
   0C77 ED 40              5540 	in	b,(c)			;ED 40
   0C79 ED 48              5541 	in	c,(c)			;ED 48
   0C7B ED 50              5542 	in	d,(c)			;ED 50
   0C7D ED 58              5543 	in	e,(c)			;ED 58
   0C7F ED 60              5544 	in	h,(c)			;ED 60
   0C81 ED 68              5545 	in	l,(c)			;ED 68
                           5546 	;***********************************************************
                           5547 	;  p. 5-55
                           5548 	.z280
   0C83 DD ED 60           5549 	in	ixh,(c)			;DD ED 60
   0C86 DD ED 68           5550 	in	ixl,(c)			;DD ED 68
   0C89 FD ED 60           5551 	in	iyh,(c)			;FD ED 60
   0C8C FD ED 68           5552 	in	iyl,(c)			;FD ED 68
   0C8F DD ED 78r44s33     5577 	in	(daddc+x),(c)		;DD ED 78r44s33
   0C94 FD ED 48r55s00     5578 	in	offsetc+x(ix),(c)		;FD ED 48r55s00
   0C99 FD ED 48r55s00     5579 	in	(ix+offsetc+x),(c)		;FD ED 48r55s00
   0C9E FD ED 50r55s00     5580 	in	offsetc+x(iy),(c)		;FD ED 50r55s00
   0CA3 FD ED 50r55s00     5581 	in	(iy+offsetc+x),(c)		;FD ED 50r55s00
   0CA8 FD ED 58r55s00     5582 	in	offsetc+x(hl),(c)		;FD ED 58r55s00
   0CAD FD ED 58r55s00     5583 	in	(hl+offsetc+x),(c)		;FD ED 58r55s00
   0CB2 DD ED 40r55s00     5584 	in	offsetc+x(sp),(c)		;DD ED 40r55s00
   0CB7 DD ED 40r55s00     5585 	in	(sp+offsetc+x),(c)		;DD ED 40r55s00
   0CBC FD ED 48r22s11     5586 	in	lxofc+x(ix),(c)		;FD ED 48r22s11
   0CC1 FD ED 48r22s11     5587 	in	(ix+lxofc+x),(c)		;FD ED 48r22s11
   0CC6 FD ED 50r22s11     5588 	in	lxofc+x(iy),(c)		;FD ED 50r22s11
   0CCB FD ED 50r22s11     5589 	in	(iy+lxofc+x),(c)		;FD ED 50r22s11
   0CD0 FD ED 58r22s11     5590 	in	lxofc+x(hl),(c)		;FD ED 58r22s11
   0CD5 FD ED 58r22s11     5591 	in	(hl+lxofc+x),(c)		;FD ED 58r22s11
   0CDA DD ED 40r22s11     5592 	in	lxofc+x(sp),(c)		;DD ED 40r22s11
   0CDF DD ED 40r22s11     5593 	in	(sp+lxofc+x),(c)		;DD ED 40r22s11
   0CE4 FD ED 40p55q00     5636 	in	offsetc+in01(pc),(c)	;FD ED 40p55q00
   0CE9 FD ED 40p55q00     5640 	in	(pc+offsetc+in02),(c)	;FD ED 40p55q00
   0CEE FD ED 40p55q00     5644 	in	[offsetc+in03],(c)	;FD ED 40p55q00
   0CF3 FD ED 40 50 00     5701 	in	[.+offsetc],(c)		;FD ED 40 50 00
   0CF8 DD ED 48           5702 	in	(ix+hl),(c)		;DD ED 48
   0CFB DD ED 50           5703 	in	(hl+iy),(c)		;DD ED 50
   0CFE DD ED 58           5704 	in	(iy+ix),(c)		;DD ED 58
                           5705 	;***********************************************************
                           5706 	;  p. 5-65
   0D01 ED B7              5707 	in	hl,(c)			;ED B7
   0D03 ED B7              5708 	inw	hl,(c)			;ED B7
                           5709 
                           5710 ;*******************************************************************
                           5711 ;	INC	
                           5712 ;		If offset is ommitted 0 is assumed.
                           5713 ;*******************************************************************
                           5714 	;***********************************************************
                           5715 	; increment operand
                           5716 	.z80
   0D05 34                 5717 	inc	(hl)			;34
   0D06 DD 34r55           5729 	inc	offsetc+x(ix)		;DD 34r55
   0D09 DD 34r55           5730 	inc	(ix+offsetc+x)		;DD 34r55
   0D0C FD 34r55           5731 	inc	offsetc+x(iy)		;FD 34r55
   0D0F FD 34r55           5732 	inc	(iy+offsetc+x)		;FD 34r55
   0D12 3C                 5744 	inc	a			;3C
   0D13 04                 5745 	inc	b			;04
   0D14 03                 5746 	inc	bc			;03
   0D15 0C                 5747 	inc	c			;0C
   0D16 14                 5748 	inc	d			;14
   0D17 13                 5749 	inc	de			;13
   0D18 1C                 5750 	inc	e			;1C
   0D19 24                 5751 	inc	h			;24
   0D1A 23                 5752 	inc	hl			;23
   0D1B DD 23              5753 	inc	ix			;DD 23
   0D1D FD 23              5754 	inc	iy			;FD 23
   0D1F 2C                 5755 	inc	l			;2C
   0D20 33                 5756 	inc	sp			;33
                           5757 
   0D21 03                 5758 	incw	bc			;03
   0D22 13                 5759 	incw	de			;13
   0D23 23                 5760 	incw	hl			;23
   0D24 33                 5761 	incw	sp			;33
                           5762 
                           5763 	;***********************************************************
                           5764 	; increment operand
                           5765 	;  p. 5-57
                           5766 	.z280
   0D25 DD 24              5767 	inc	ixh			;DD 24
   0D27 DD 2C              5768 	inc	ixl			;DD 2C
   0D29 FD 24              5769 	inc	iyh			;FD 24
   0D2B FD 2C              5770 	inc 	iyl			;FD 2C
   0D2D DD 3Cr44s33        5795 	inc	(daddc+x)			;DD 3Cr44s33
   0D31 FD 0Cr55s00        5796 	inc	offsetc+x(ix)		;FD 0Cr55s00
   0D35 FD 0Cr55s00        5797 	inc	(ix+offsetc+x)		;FD 0Cr55s00
   0D39 FD 14r55s00        5798 	inc	offsetc+x(iy)		;FD 14r55s00
   0D3D FD 14r55s00        5799 	inc	(iy+offsetc+x)		;FD 14r55s00
   0D41 FD 1Cr55s00        5800 	inc	offsetc+x(hl)		;FD 1Cr55s00
   0D45 FD 1Cr55s00        5801 	inc	(hl+offsetc+x)		;FD 1Cr55s00
   0D49 DD 04r55s00        5802 	inc	offsetc+x(sp)		;DD 04r55s00
   0D4D DD 04r55s00        5803 	inc	(sp+offsetc+x)		;DD 04r55s00
   0D51 FD 0Cr22s11        5804 	inc	lxofc+x(ix)		;FD 0Cr22s11
   0D55 FD 0Cr22s11        5805 	inc	(ix+lxofc+x)		;FD 0Cr22s11
   0D59 FD 14r22s11        5806 	inc	lxofc+x(iy)		;FD 14r22s11
   0D5D FD 14r22s11        5807 	inc	(iy+lxofc+x)		;FD 14r22s11
   0D61 FD 1Cr22s11        5808 	inc	lxofc+x(hl)		;FD 1Cr22s11
   0D65 FD 1Cr22s11        5809 	inc	(hl+lxofc+x)		;FD 1Cr22s11
   0D69 DD 04r22s11        5810 	inc	lxofc+x(sp)		;DD 04r22s11
   0D6D DD 04r22s11        5811 	inc	(sp+lxofc+x)		;DD 04r22s11
   0D71 FD 04p55q00        5867 	inc	offsetc+inc01(pc)	;FD 04p55q00
   0D75 FD 04p55q00        5871 	inc	(pc+offsetc+inc02)	;FD 04p55q00
   0D79 FD 04p55q00        5875 	inc	[offsetc+inc03]		;FD 04p55q00
   0D7D FD 04 51 00        5932 	inc	[.+offsetc]		;FD 04 51 00
   0D81 DD 0C              5933 	inc	(hl+ix)			;DD 0C
   0D83 DD 14              5934 	inc	(hl+iy)			;DD 14
   0D85 DD 1C              5935 	inc	(ix+iy)			;DD 1C
                           5936 
                           5937 ;*******************************************************************
                           5938 ;	INCW	
                           5939 ;		If offset is ommitted 0 is assumed.
                           5940 ;*******************************************************************
                           5941 	;***********************************************************
                           5942 	; increment word operand
   0D87 03                 5943 	incw	bc			;03
   0D88 13                 5944 	incw	de			;13
   0D89 23                 5945 	incw	hl			;23
   0D8A 33                 5946 	incw	sp			;33
   0D8B DD 23              5947 	incw	ix			;DD 23
   0D8D FD 23              5948 	incw	iy			;FD 23
                           5949 
   0D8F DD 03              5950 	incw	(hl)			;DD 03
   0D91 DD 13r44s33        5963 	incw	(daddc+x)			;DD 13r44s33
   0D95 FD 03r55s00        5964 	incw	offsetc+x(ix)		;FD 03r55s00
   0D99 FD 03r55s00        5965 	incw	(ix+offsetc+x)		;FD 03r55s00
   0D9D FD 13r22s11        5966 	incw	lxofc+x(iy)		;FD 13r22s11
   0DA1 FD 13r22s11        5967 	incw	(iy+lxofc+x)		;FD 13r22s11
   0DA5 DD 33p34q12        5998 	incw	raofc+incw01(pc)	;DD 33p34q12
   0DA9 DD 33p34q12        6002 	incw	(pc+raofc+incw02)	;DD 33p34q12
   0DAD DD 33p34q12        6006 	incw	[raofc+incw03]		;DD 33p34q12
   0DB1 DD 33 30 12        6063 	incw	[.+raofc]		;DD 33 30 12
                           6064 
                           6065 ;*******************************************************************
                           6066 ;	IND	
                           6067 ;*******************************************************************
                           6068 	;***********************************************************
                           6069 	; load location (hl) with input
                           6070 	; from port (c)
                           6071 	; decrement 'hl' and 'b'
                           6072 	.z80
   0DB5 ED AA              6073 	ind				;ED AA
                           6074 
                           6075 ;*******************************************************************
                           6076 ;	INDR	
                           6077 ;*******************************************************************
                           6078 	;***********************************************************
                           6079 	; load location (hl) with input
                           6080 	; from port (c)
                           6081 	; decrement 'hl' and 'b'
                           6082 	; repeat until 'b' = 0
                           6083 	.z80
   0DB7 ED BA              6084 	indr				;ED BA
                           6085 
                           6086 ;*******************************************************************
                           6087 ;	INI	
                           6088 ;*******************************************************************
                           6089 	;***********************************************************
                           6090 	; load location (hl) with input
                           6091 	; from port (c)
                           6092 	; increment 'hl' and decrement 'b'
                           6093 	.z80
   0DB9 ED A2              6094 	ini				;ED A2
                           6095 
                           6096 ;*******************************************************************
                           6097 ;	INIR	
                           6098 ;*******************************************************************
                           6099 	;***********************************************************
                           6100 	; load location (hl) with input
                           6101 	; from port (c)
                           6102 	; increment 'hl' and decrement 'b'
                           6103 	; repeat until 'b' = 0
                           6104 	.z80
   0DBB ED B2              6105 	inir				;ED B2
                           6106 
                           6107 ;*******************************************************************
                           6108 ;	INDW, INDR, INIW, and INIRW	
                           6109 ;*******************************************************************
                           6110 	;***********************************************************
                           6111 	.z280
   0DBD ED 8A              6112 jmp1:	indw				;ED 8A
   0DBF ED 9A              6113 	indrw				;ED 9A
   0DC1 ED 82              6114 	iniw				;ED 82
   0DC3 ED 92              6115 	inirw				;ED 92
                           6116 
                           6117 ;*******************************************************************
                           6118 ;	JAF	
                           6119 ;*******************************************************************
                           6120 	;***********************************************************
                           6121  	; jump on auxiliary accumulator/flag (AF)
                           6122 	;  p. 5-66
   0DC5 DD 28 F5           6123 	jaf	jmp1			;DD 28 F5
                           6124 
                           6125 ;*******************************************************************
                           6126 ;	JAR	
                           6127 ;*******************************************************************
                           6128 	;***********************************************************
                           6129 	; jump on auxiliary register set
                           6130 	;  p. 5-67
                           6131 	.z280
   0DC8 DD 20 F2           6132 	jar	jmp1			;DD 20 F2
                           6133 
                           6134 ;*******************************************************************
                           6135 ;	JP	
                           6136 ;*******************************************************************
                           6137 	;***********************************************************
                           6138 	; unconditional jump to location nn
                           6139 	.z80
   0DCB E9                 6140 	jp	(hl)			;E9
   0DCC DD E9              6141 	jp	(ix)			;DD E9
   0DCE FD E9              6142 	jp	(iy)			;FD E9
                           6143 	;***********************************************************
                           6144 	; jump to location if condition is true
   0DD0 C3r84s05           6161 	jp	nnc+x			;C3r84s05
   0DD3 DAr84s05           6162 	jp	C,nnc+x			;DAr84s05
   0DD6 FAr84s05           6163 	jp	M,nnc+x			;FAr84s05
   0DD9 D2r84s05           6164 	jp	NC,nnc+x			;D2r84s05
   0DDC C2r84s05           6165 	jp	NZ,nnc+x			;C2r84s05
   0DDF F2r84s05           6166 	jp	P,nnc+x			;F2r84s05
   0DE2 EAr84s05           6167 	jp	PE,nnc+x			;EAr84s05
   0DE5 E2r84s05           6168 	jp	PO,nnc+x			;E2r84s05
   0DE8 CAr84s05           6169 	jp	Z,nnc+x			;CAr84s05
                           6186 	;***********************************************************
                           6187 	;  p. 5-68
                           6188 	.z280
   0DEB DD C2              6189 	jp	nz,(hl)			;DD C2
   0DED DD CA              6190 	jp	z,(hl)			;DD CA
   0DEF DD D2              6191 	jp	nc,(hl)			;DD D2
   0DF1 DD DA              6192 	jp	c,(hl)			;DD DA
   0DF3 DD E2              6193 	jp	nv,(hl)			;DD E2
   0DF5 DD EA              6194 	jp	v,(hl)			;DD EA
   0DF7 DD F2              6195 	jp	ns,(hl)			;DD F2
   0DF9 DD FA              6196 	jp	s,(hl)			;DD FA
   0DFB DD E2              6197 	jp	po,(hl)			;DD E2
   0DFD DD EA              6198 	jp	pe,(hl)			;DD EA
   0DFF DD F2              6199 	jp	p,(hl)			;DD F2
   0E01 DD FA              6200 	jp	m,(hl)			;DD FA
                           6201 	; long relative jumps
   0E03 FD C3 B6 FF        6202 	jp	[jmp1]			;FD C3 B6 FF
   0E07 FD C2 B2 FF        6203 	jp	nz,[jmp1]		;FD C2 B2 FF
   0E0B FD CA AE FF        6204 	jp	z,[jmp1]		;FD CA AE FF
   0E0F FD F2 AA FF        6205 	jp	p,[jmp1]		;FD F2 AA FF
   0E13 FD FA A6 FF        6206 	jp	m,[jmp1]		;FD FA A6 FF
   0E17 FD C3p55q00        6225 	jp	offsetc+jp01(pc)	;FD C3p55q00
   0E1B FD C3p55q00        6229 	jp	(pc+offsetc+jp02)	;FD C3p55q00
   0E1F FD C3p55q00        6233 	jp	[offsetc+jp03]		;FD C3p55q00
   0E23 FD C3 51 00        6290 	jp	[.+offsetc]		;FD C3 51 00
                           6291 
                           6292 ;*******************************************************************
                           6293 ;	JR	
                           6294 ;*******************************************************************
                           6295 	;***********************************************************
                           6296 	; unconditional jump relative to PC+e
   0E27 18 10              6297 	jr	ljr1+0x10		;18 10
                           6298 	.z80
                           6299 	;***********************************************************
                           6300 	; jump relative to PC+e if condition is true
   0E29 38 10              6301 ljr1:	jr	C,1$+0x10		;38 10
   0E2B 30 10              6302 1$:	jr	NC,2$+0x10		;30 10
   0E2D 20 10              6303 2$:	jr	NZ,3$+0x10		;20 10
   0E2F 28 10              6304 3$:	jr	Z,4$+0x10		;28 10
   0E31                    6305 4$:	
   0E31 18 F6              6306 ljr2:	jr	ljr1			;18 F6
                           6307 
   0E33 38p00              6315 xjr_1::	jr	C, jr_1			;38p00
   0E35 30p00              6316 xjr_2::	jr	NC,jr_2			;30p00
   0E37 20p00              6317 xjr_3::	jr	NZ,jr_3			;20p00
   0E39 28p00              6318 xjr_4::	jr	Z, jr_4			;28p00
                           6342 
                           6343 ;*******************************************************************
                           6344 ;	LD	
                           6345 ;		Leading 'a' operand is optional.
                           6346 ;		If offset is ommitted 0 is assumed.
                           6347 ;*******************************************************************
                           6348 	;***********************************************************
                           6349 	; load source to destination
                           6350 	.z80
   0E3B 7E                 6351 	ld	a,(hl)			;7E
   0E3C DD 7Er55           6363 	ld	a,offsetc+x(ix)		;DD 7Er55
   0E3F DD 7Er55           6364 	ld	a,(ix+offsetc+x)		;DD 7Er55
   0E42 FD 7Er55           6365 	ld	a,offsetc+x(iy)		;FD 7Er55
   0E45 FD 7Er55           6366 	ld	a,(iy+offsetc+x)		;FD 7Er55
   0E48 7F                 6378 	ld	a,a			;7F
   0E49 78                 6379 	ld	a,b			;78
   0E4A 79                 6380 	ld	a,c			;79
   0E4B 7A                 6381 	ld	a,d			;7A
   0E4C 7B                 6382 	ld	a,e			;7B
   0E4D 7C                 6383 	ld	a,h			;7C
   0E4E 7D                 6384 	ld	a,l			;7D
   0E4F 3Er20              6394 	ld	a,#nc+x			;3Er20
   0E51 3Er20              6395 	ld	a, nc+x			;3Er20
   0E53 46                 6405 	ld	b,(hl)			;46
   0E54 DD 46r55           6417 	ld	b,offsetc+x(ix)		;DD 46r55
   0E57 DD 46r55           6418 	ld	b,(ix+offsetc+x)		;DD 46r55
   0E5A FD 46r55           6419 	ld	b,offsetc+x(iy)		;FD 46r55
   0E5D FD 46r55           6420 	ld	b,(iy+offsetc+x)		;FD 46r55
   0E60 47                 6432 	ld	b,a			;47
   0E61 40                 6433 	ld	b,b			;40
   0E62 41                 6434 	ld	b,c			;41
   0E63 42                 6435 	ld	b,d			;42
   0E64 43                 6436 	ld	b,e			;43
   0E65 44                 6437 	ld	b,h			;44
   0E66 45                 6438 	ld	b,l			;45
   0E67 06r20              6448 	ld	b,#nc+x			;06r20
   0E69 06r20              6449 	ld	b, nc+x			;06r20
   0E6B 4E                 6459 	ld	c,(hl)			;4E
   0E6C DD 4Er55           6471 	ld	c,offsetc+x(ix)		;DD 4Er55
   0E6F DD 4Er55           6472 	ld	c,(ix+offsetc+x)		;DD 4Er55
   0E72 FD 4Er55           6473 	ld	c,offsetc+x(iy)		;FD 4Er55
   0E75 FD 4Er55           6474 	ld	c,(iy+offsetc+x)		;FD 4Er55
   0E78 4F                 6486 	ld	c,a			;4F
   0E79 48                 6487 	ld	c,b			;48
   0E7A 49                 6488 	ld	c,c			;49
   0E7B 4A                 6489 	ld	c,d			;4A
   0E7C 4B                 6490 	ld	c,e			;4B
   0E7D 4C                 6491 	ld	c,h			;4C
   0E7E 4D                 6492 	ld	c,l			;4D
   0E7F 0Er20              6502 	ld	c,#nc+x			;0Er20
   0E81 0Er20              6503 	ld	c, nc+x			;0Er20
   0E83 56                 6513 	ld	d,(hl)			;56
   0E84 DD 56r55           6525 	ld	d,offsetc+x(ix)		;DD 56r55
   0E87 DD 56r55           6526 	ld	d,(ix+offsetc+x)		;DD 56r55
   0E8A FD 56r55           6527 	ld	d,offsetc+x(iy)		;FD 56r55
   0E8D FD 56r55           6528 	ld	d,(iy+offsetc+x)		;FD 56r55
   0E90 57                 6540 	ld	d,a			;57
   0E91 50                 6541 	ld	d,b			;50
   0E92 51                 6542 	ld	d,c			;51
   0E93 52                 6543 	ld	d,d			;52
   0E94 53                 6544 	ld	d,e			;53
   0E95 54                 6545 	ld	d,h			;54
   0E96 55                 6546 	ld	d,l			;55
   0E97 16r20              6556 	ld	d,#nc+x			;16r20
   0E99 16r20              6557 	ld	d, nc+x			;16r20
   0E9B 5E                 6567 	ld	e,(hl)			;5E
   0E9C DD 5Er55           6579 	ld	e,offsetc+x(ix)		;DD 5Er55
   0E9F DD 5Er55           6580 	ld	e,(ix+offsetc+x)		;DD 5Er55
   0EA2 FD 5Er55           6581 	ld	e,offsetc+x(iy)		;FD 5Er55
   0EA5 FD 5Er55           6582 	ld	e,(iy+offsetc+x)		;FD 5Er55
   0EA8 5F                 6594 	ld	e,a			;5F
   0EA9 58                 6595 	ld	e,b			;58
   0EAA 59                 6596 	ld	e,c			;59
   0EAB 5A                 6597 	ld	e,d			;5A
   0EAC 5B                 6598 	ld	e,e			;5B
   0EAD 5C                 6599 	ld	e,h			;5C
   0EAE 5D                 6600 	ld	e,l			;5D
   0EAF 1Er20              6610 	ld	e,#nc+x			;1Er20
   0EB1 1Er20              6611 	ld	e, nc+x			;1Er20
   0EB3 66                 6621 	ld	h,(hl)			;66
   0EB4 DD 66r55           6633 	ld	h,offsetc+x(ix)		;DD 66r55
   0EB7 DD 66r55           6634 	ld	h,(ix+offsetc+x)		;DD 66r55
   0EBA FD 66r55           6635 	ld	h,offsetc+x(iy)		;FD 66r55
   0EBD FD 66r55           6636 	ld	h,(iy+offsetc+x)		;FD 66r55
   0EC0 67                 6648 	ld	h,a			;67
   0EC1 60                 6649 	ld	h,b			;60
   0EC2 61                 6650 	ld	h,c			;61
   0EC3 62                 6651 	ld	h,d			;62
   0EC4 63                 6652 	ld	h,e			;63
   0EC5 64                 6653 	ld	h,h			;64
   0EC6 65                 6654 	ld	h,l			;65
   0EC7 26r20              6664 	ld	h,#nc+x			;26r20
   0EC9 26r20              6665 	ld	h, nc+x			;26r20
   0ECB 6E                 6675 	ld	l,(hl)			;6E
   0ECC DD 6Er55           6687 	ld	l,offsetc+x(ix)		;DD 6Er55
   0ECF DD 6Er55           6688 	ld	l,(ix+offsetc+x)		;DD 6Er55
   0ED2 FD 6Er55           6689 	ld	l,offsetc+x(iy)		;FD 6Er55
   0ED5 FD 6Er55           6690 	ld	l,(iy+offsetc+x)		;FD 6Er55
   0ED8 6F                 6702 	ld	l,a			;6F
   0ED9 68                 6703 	ld	l,b			;68
   0EDA 69                 6704 	ld	l,c			;69
   0EDB 6A                 6705 	ld	l,d			;6A
   0EDC 6B                 6706 	ld	l,e			;6B
   0EDD 6C                 6707 	ld	l,h			;6C
   0EDE 6D                 6708 	ld	l,l			;6D
   0EDF 2Er20              6718 	ld	l,#nc+x			;2Er20
   0EE1 2Er20              6719 	ld	l, nc+x			;2Er20
                           6729 	;***********************************************************
   0EE3 ED 47              6730 	ld	i,a			;ED 47
   0EE5 ED 4F              6731 	ld	r,a			;ED 4F
   0EE7 ED 57              6732 	ld	a,i			;ED 57
   0EE9 ED 5F              6733 	ld	a,r			;ED 5F
                           6734 	;***********************************************************
   0EEB 02                 6735 	ld	(bc),a			;02
   0EEC 12                 6736 	ld	(de),a			;12
   0EED 0A                 6737 	ld	a,(bc)			;0A
   0EEE 1A                 6738 	ld	a,(de)			;1A
                           6739 	;***********************************************************
   0EEF 77                 6740 	ld	(hl),a			;77
   0EF0 70                 6741 	ld	(hl),b			;70
   0EF1 71                 6742 	ld	(hl),c			;71
   0EF2 72                 6743 	ld	(hl),d			;72
   0EF3 73                 6744 	ld	(hl),e			;73
   0EF4 74                 6745 	ld	(hl),h			;74
   0EF5 75                 6746 	ld	(hl),l			;75
   0EF6 36r20              6756 	ld	(hl),#nc+x			;36r20
   0EF8 36r20              6757 	ld	(hl), nc+x			;36r20
                           6767 	;***********************************************************
   0EFA DD 77r55           6856 	ld	offsetc+x(ix),a		;DD 77r55
   0EFD DD 70r55           6857 	ld	offsetc+x(ix),b		;DD 70r55
   0F00 DD 71r55           6858 	ld	offsetc+x(ix),c		;DD 71r55
   0F03 DD 72r55           6859 	ld	offsetc+x(ix),d		;DD 72r55
   0F06 DD 73r55           6860 	ld	offsetc+x(ix),e		;DD 73r55
   0F09 DD 74r55           6861 	ld	offsetc+x(ix),h		;DD 74r55
   0F0C DD 75r55           6862 	ld	offsetc+x(ix),l		;DD 75r55
   0F0F DD 36r55r20        6863 	ld	offsetc+x(ix),#nc+x		;DD 36r55r20
   0F13 DD 36r55r20        6864 	ld	offsetc+x(ix), nc+x		;DD 36r55r20
                           6865 	;***********************************************************
   0F17 DD 77r55           6866 	ld	(ix+offsetc+x),a		;DD 77r55
   0F1A DD 70r55           6867 	ld	(ix+offsetc+x),b		;DD 70r55
   0F1D DD 71r55           6868 	ld	(ix+offsetc+x),c		;DD 71r55
   0F20 DD 72r55           6869 	ld	(ix+offsetc+x),d		;DD 72r55
   0F23 DD 73r55           6870 	ld	(ix+offsetc+x),e		;DD 73r55
   0F26 DD 74r55           6871 	ld	(ix+offsetc+x),h		;DD 74r55
   0F29 DD 75r55           6872 	ld	(ix+offsetc+x),l		;DD 75r55
   0F2C DD 36r55r20        6873 	ld	(ix+offsetc+x),#nc+x		;DD 36r55r20
   0F30 DD 36r55r20        6874 	ld	(ix+offsetc+x), nc+x		;DD 36r55r20
                           6875 	;***********************************************************
   0F34 FD 77r55           6876 	ld	offsetc+x(iy),a		;FD 77r55
   0F37 FD 70r55           6877 	ld	offsetc+x(iy),b		;FD 70r55
   0F3A FD 71r55           6878 	ld	offsetc+x(iy),c		;FD 71r55
   0F3D FD 72r55           6879 	ld	offsetc+x(iy),d		;FD 72r55
   0F40 FD 73r55           6880 	ld	offsetc+x(iy),e		;FD 73r55
   0F43 FD 74r55           6881 	ld	offsetc+x(iy),h		;FD 74r55
   0F46 FD 75r55           6882 	ld	offsetc+x(iy),l		;FD 75r55
   0F49 FD 36r55r20        6883 	ld	offsetc+x(iy),#nc+x		;FD 36r55r20
   0F4D FD 36r55r20        6884 	ld	offsetc+x(iy), nc+x		;FD 36r55r20
                           6885 	;***********************************************************
   0F51 FD 77r55           6886 	ld	(iy+offsetc+x),a		;FD 77r55
   0F54 FD 70r55           6887 	ld	(iy+offsetc+x),b		;FD 70r55
   0F57 FD 71r55           6888 	ld	(iy+offsetc+x),c		;FD 71r55
   0F5A FD 72r55           6889 	ld	(iy+offsetc+x),d		;FD 72r55
   0F5D FD 73r55           6890 	ld	(iy+offsetc+x),e		;FD 73r55
   0F60 FD 74r55           6891 	ld	(iy+offsetc+x),h		;FD 74r55
   0F63 FD 75r55           6892 	ld	(iy+offsetc+x),l		;FD 75r55
   0F66 FD 36r55r20        6893 	ld	(iy+offsetc+x),#nc+x		;FD 36r55r20
   0F6A FD 36r55r20        6894 	ld	(iy+offsetc+x), nc+x		;FD 36r55r20
                           6895 	;***********************************************************
   0F6E 32r84s05           6896 	ld	(nnc+x),a			;32r84s05
   0F71 ED 43r84s05        6897 	ld	(nnc+x),bc			;ED 43r84s05
   0F75 ED 53r84s05        6898 	ld	(nnc+x),de			;ED 53r84s05
   0F79 22r84s05           6899 	ld	(nnc+x),hl			;22r84s05
   0F7C ED 73r84s05        6900 	ld	(nnc+x),sp			;ED 73r84s05
   0F80 DD 22r84s05        6901 	ld	(nnc+x),ix			;DD 22r84s05
   0F84 FD 22r84s05        6902 	ld	(nnc+x),iy			;FD 22r84s05
                           6903 	;***********************************************************
   0F88 3Ar84s05           6904 	ld	a,(nnc+x)			;3Ar84s05
   0F8B ED 4Br84s05        6905 	ld	bc,(nnc+x)			;ED 4Br84s05
   0F8F ED 5Br84s05        6906 	ld	de,(nnc+x)			;ED 5Br84s05
   0F93 2Ar84s05           6907 	ld	hl,(nnc+x)			;2Ar84s05
   0F96 ED 7Br84s05        6908 	ld	sp,(nnc+x)			;ED 7Br84s05
   0F9A DD 2Ar84s05        6909 	ld	ix,(nnc+x)			;DD 2Ar84s05
   0F9E FD 2Ar84s05        6910 	ld	iy,(nnc+x)			;FD 2Ar84s05
                           6911 	;***********************************************************
   0FA2 01r20s00           6912 	ld	bc,#nc+x			;01r20s00
   0FA5 01r20s00           6913 	ld	bc, nc+x			;01r20s00
   0FA8 11r20s00           6914 	ld	de,#nc+x			;11r20s00
   0FAB 11r20s00           6915 	ld	de, nc+x			;11r20s00
   0FAE 21r20s00           6916 	ld	hl,#nc+x			;21r20s00
   0FB1 21r20s00           6917 	ld	hl, nc+x			;21r20s00
   0FB4 31r20s00           6918 	ld	sp,#nc+x			;31r20s00
   0FB7 31r20s00           6919 	ld	sp, nc+x			;31r20s00
   0FBA DD 21r20s00        6920 	ld	ix,#nc+x			;DD 21r20s00
   0FBE DD 21r20s00        6921 	ld	ix, nc+x			;DD 21r20s00
   0FC2 FD 21r20s00        6922 	ld	iy,#nc+x			;FD 21r20s00
   0FC6 FD 21r20s00        6923 	ld	iy, nc+x			;FD 21r20s00
                           6924 	;***********************************************************
   0FCA 01r84s05           6925 	ld	bc,#nnc+x			;01r84s05
   0FCD 01r84s05           6926 	ld	bc, nnc+x			;01r84s05
   0FD0 11r84s05           6927 	ld	de,#nnc+x			;11r84s05
   0FD3 11r84s05           6928 	ld	de, nnc+x			;11r84s05
   0FD6 21r84s05           6929 	ld	hl,#nnc+x			;21r84s05
   0FD9 21r84s05           6930 	ld	hl, nnc+x			;21r84s05
   0FDC 31r84s05           6931 	ld	sp,#nnc+x			;31r84s05
   0FDF 31r84s05           6932 	ld	sp, nnc+x			;31r84s05
   0FE2 DD 21r84s05        6933 	ld	ix,#nnc+x			;DD 21r84s05
   0FE6 DD 21r84s05        6934 	ld	ix, nnc+x			;DD 21r84s05
   0FEA FD 21r84s05        6935 	ld	iy,#nnc+x			;FD 21r84s05
   0FEE FD 21r84s05        6936 	ld	iy, nnc+x			;FD 21r84s05
                           7025 	;***********************************************************
   0FF2 F9                 7026 	ld	sp,hl			;F9
   0FF3 DD F9              7027 	ld	sp,ix			;DD F9
   0FF5 FD F9              7028 	ld	sp,iy			;FD F9
                           7029 
                           7030 	;***********************************************************
                           7031 	; p. 5-70
                           7032 	.z280
   0FF7 DD 7C              7033 	ld	a,ixh			;DD 7C
   0FF9 DD 7D              7034 	ld	a,ixl			;DD 7D
   0FFB FD 7C              7035 	ld	a,iyh			;FD 7C
   0FFD FD 7D              7036 	ld	a,iyl			;FD 7D
   0FFF 3Er20              7062     	ld	a,#nc+x			;3Er20
   1001 3Ar44s33           7063 	ld	a,(daddc+x)		;3Ar44s33
   1004 FD 79r55s00        7064 	ld	a,offsetc+x(ix)		;FD 79r55s00
   1008 FD 79r55s00        7065 	ld	a,(ix+offsetc+x)		;FD 79r55s00
   100C FD 7Ar55s00        7066 	ld	a,offsetc+x(iy)		;FD 7Ar55s00
   1010 FD 7Ar55s00        7067 	ld	a,(iy+offsetc+x)		;FD 7Ar55s00
   1014 FD 7Br55s00        7068 	ld	a,offsetc+x(hl)		;FD 7Br55s00
   1018 FD 7Br55s00        7069 	ld	a,(hl+offsetc+x)		;FD 7Br55s00
   101C DD 78r55s00        7070 	ld	a,offsetc+x(sp)		;DD 78r55s00
   1020 DD 78r55s00        7071 	ld	a,(sp+offsetc+x)		;DD 78r55s00
   1024 FD 79r22s11        7072 	ld	a,lxofc+x(ix)		;FD 79r22s11
   1028 FD 79r22s11        7073 	ld	a,(ix+lxofc+x)		;FD 79r22s11
   102C FD 7Ar22s11        7074 	ld	a,lxofc+x(iy)		;FD 7Ar22s11
   1030 FD 7Ar22s11        7075 	ld	a,(iy+lxofc+x)		;FD 7Ar22s11
   1034 FD 7Br22s11        7076 	ld	a,lxofc+x(hl)		;FD 7Br22s11
   1038 FD 7Br22s11        7077 	ld	a,(hl+lxofc+x)		;FD 7Br22s11
   103C DD 78r22s11        7078 	ld	a,lxofc+x(sp)		;DD 78r22s11
   1040 DD 78r22s11        7079 	ld	a,(sp+lxofc+x)		;DD 78r22s11
   1044 DD 7E 00           7118 	ld	a,(ix)			;DD 7E 00
   1047 FD 7E 00           7119 	ld	a,(iy)			;FD 7E 00
   104A 7E                 7120 	ld	a,(hl)			;7E
                           7121 ;	ld	a,(hl)			;FD 7B 00 00
   104B DD 78 00 00        7122 	ld	a,(sp)			;DD 78 00 00
   104F FD 78p22q11        7141 	ld	a,lxofc+ld01(pc)	;FD 78p22q11
   1053 FD 78p22q11        7145 	ld	a,(pc+lxofc+ld02)	;FD 78p22q11
   1057 FD 78p22q11        7149 	ld	a,[lxofc+ld03]		;FD 78p22q11
   105B FD 78 1E 11        7206 	ld	a,[.+lxofc]		;FD 78 1E 11
   105F DD 79              7207 	ld	a,(hl+ix)		;DD 79
   1061 DD 7A              7208 	ld	a,(hl+iy)		;DD 7A
   1063 DD 7B              7209 	ld	a,(ix+iy)		;DD 7B
                           7210 	;***********************************************************
                           7211 	; p. 5-71
                           7212 	.z280
   1065 DD 67              7213 	ld	ixh,a			;DD 67
   1067 DD 6F              7214 	ld	ixl,a			;DD 6F
   1069 FD 67              7215 	ld	iyh,a			;FD 67
   106B FD 6F              7216 	ld	iyl,a			;FD 6F
   106D 32r44s33           7241     	ld	(daddc+x),a		;32r44s33
   1070 ED 2Br55s00        7242 	ld	offsetc+x(ix),a		;ED 2Br55s00
   1074 ED 2Br55s00        7243 	ld	(ix+offsetc+x),a		;ED 2Br55s00
   1078 ED 33r55s00        7244 	ld	offsetc+x(iy),a		;ED 33r55s00
   107C ED 33r55s00        7245 	ld	(iy+offsetc+x),a		;ED 33r55s00
   1080 ED 3Br55s00        7246 	ld	offsetc+x(hl),a		;ED 3Br55s00
   1084 ED 3Br55s00        7247 	ld	(hl+offsetc+x),a		;ED 3Br55s00
   1088 ED 03r55s00        7248 	ld	offsetc+x(sp),a		;ED 03r55s00
   108C ED 03r55s00        7249 	ld	(sp+offsetc+x),a		;ED 03r55s00
   1090 ED 2Br22s11        7250 	ld	lxofc+x(ix),a		;ED 2Br22s11
   1094 ED 2Br22s11        7251 	ld	(ix+lxofc+x),a		;ED 2Br22s11
   1098 ED 33r22s11        7252 	ld	lxofc+x(iy),a		;ED 33r22s11
   109C ED 33r22s11        7253 	ld	(iy+lxofc+x),a		;ED 33r22s11
   10A0 ED 3Br22s11        7254 	ld	lxofc+x(hl),a		;ED 3Br22s11
   10A4 ED 3Br22s11        7255 	ld	(hl+lxofc+x),a		;ED 3Br22s11
   10A8 ED 03r22s11        7256 	ld	lxofc+x(sp),a		;ED 03r22s11
   10AC ED 03r22s11        7257 	ld	(sp+lxofc+x),a		;ED 03r22s11
   10B0 DD 77 00           7295 	ld	(ix),a			;DD 77 00
   10B3 FD 77 00           7296 	ld	(iy),a			;FD 77 00
   10B6 77                 7297 	ld	(hl),a			;77
                           7298 ;	ld	(hl),a			;ED 3B 00 00
   10B7 ED 03 00 00        7299 	ld	(sp),a			;ED 03 00 00
   10BB ED 23p22q11        7318 	ld	lxofc+ld04(pc),a	;ED 23p22q11
   10BF ED 23p22q11        7322 	ld	(pc+lxofc+ld05),a	;ED 23p22q11
   10C3 ED 23p22q11        7326 	ld	[lxofc+ld06],a		;ED 23p22q11
   10C7 ED 23 DC FF        7383 	ld	[.-32],a		;ED 23 DC FF
   10CB ED 0B              7384 	ld	(hl+ix),a		;ED 0B
   10CD ED 13              7385 	ld	(hl+iy),a		;ED 13
   10CF ED 1B              7386 	ld	(iy+ix),a		;ED 1B
                           7387 	;***********************************************************
                           7388 	; p. 5-73
                           7389 	.z280
   10D1 DD 26r20           7421 	ld	ixh,#nc+x			;DD 26r20
   10D4 DD 2Er20           7422 	ld	ixl,#nc+x			;DD 2Er20
   10D7 FD 26r20           7423 	ld	iyh,#nc+x			;FD 26r20
   10DA FD 2Er20           7424 	ld	iyl,#nc+x			;FD 2Er20
   10DD DD 3Er44s33r20     7425 	ld	(daddc+x),#nc+x		;DD 3Er44s33r20
   10E2 FD 0Er55s00r20     7426 	ld	offsetc+x(ix),#nc+x		;FD 0Er55s00r20
   10E7 FD 0Er55s00r20     7427 	ld	(ix+offsetc+x),#nc+x		;FD 0Er55s00r20
   10EC FD 16r55s00r20     7428 	ld	offsetc+x(iy),#nc+x		;FD 16r55s00r20
   10F1 FD 16r55s00r20     7429 	ld	(iy+offsetc+x),#nc+x		;FD 16r55s00r20
   10F6 FD 1Er55s00r20     7430 	ld	offsetc+x(hl),#nc+x		;FD 1Er55s00r20
   10FB FD 1Er55s00r20     7431 	ld	(hl+offsetc+x),#nc+x		;FD 1Er55s00r20
   1100 DD 06r55s00r20     7432 	ld	offsetc+x(sp),#nc+x		;DD 06r55s00r20
   1105 DD 06r55s00r20     7433 	ld	(sp+offsetc+x),#nc+x		;DD 06r55s00r20
   110A FD 0Er22s11r20     7434 	ld	lxofc+x(ix),#nc+x		;FD 0Er22s11r20
   110F FD 0Er22s11r20     7435 	ld	(ix+lxofc+x),#nc+x		;FD 0Er22s11r20
   1114 FD 16r22s11r20     7436 	ld	lxofc+x(iy),#nc+x		;FD 16r22s11r20
   1119 FD 16r22s11r20     7437 	ld	(iy+lxofc+x),#nc+x		;FD 16r22s11r20
   111E FD 1Er22s11r20     7438 	ld	lxofc+x(hl),#nc+x		;FD 1Er22s11r20
   1123 FD 1Er22s11r20     7439 	ld	(hl+lxofc+x),#nc+x		;FD 1Er22s11r20
   1128 DD 06r22s11r20     7440 	ld	lxofc+x(sp),#nc+x		;DD 06r22s11r20
   112D DD 06r22s11r20     7441 	ld	(sp+lxofc+x),#nc+x		;DD 06r22s11r20
   1132 DD 0Er20           7442 	ld	(hl+ix),#nc+x		;DD 0Er20
   1135 DD 16r20           7443 	ld	(hl+iy),#nc+x		;DD 16r20
   1138 DD 1Er20           7444 	ld	(ix+iy),#nc+x		;DD 1Er20
   113B FD 06p21q11r20     7507 	ld	lxofc+ld07(pc),#nc+x	;FD 06p21q11r20
   1140 FD 06p21q11r20     7511 	ld	(pc+lxofc+ld08),#nc+x	;FD 06p21q11r20
   1145 FD 06p21q11r20     7515 	ld	[lxofc+ld09],#nc+x		;FD 06p21q11r20
   114A FD 06 1B 00 20     7572 	ld	[.+32],#nc		;FD 06 1B 00 20
                           7573 
                           7574 	;***********************************************************
                           7575 	; p. 5-74
                           7576 	.z280
   114F DD 7C              7577 	ld	a,ixh			;DD 7C
   1151 FD 7D              7578 	ld	a,iyl			;FD 7D
   1153 DD 44              7579 	ld	b,ixh			;DD 44
   1155 DD 45              7580 	ld	b,ixl			;DD 45
   1157 DD 4C              7581 	ld	c,ixh			;DD 4C
   1159 DD 4D              7582 	ld	c,ixl			;DD 4D
   115B FD 54              7583 	ld	d,iyh			;FD 54
   115D FD 55              7584 	ld	d,iyl			;FD 55
   115F FD 5C              7585 	ld	e,iyh			;FD 5C
   1161 FD 5D              7586 	ld	e,iyl			;FD 5D
   1163 DD 64              7587 	ld	ixh,ixh			;DD 64
   1165 DD 65              7588 	ld	ixh,ixl			;DD 65
   1167 DD 6C              7589 	ld	ixl,ixh			;DD 6C
   1169 DD 6D              7590 	ld	ixl,ixl			;DD 6D
   116B FD 64              7591 	ld	iyh,iyh			;FD 64
   116D FD 65              7592 	ld	iyh,iyl			;FD 65
   116F FD 6C              7593 	ld	iyl,iyh			;FD 6C
   1171 FD 6D              7594 	ld	iyl,iyl			;FD 6D
   1173 62                 7595 	ld	h,d			;62
   1174 6B                 7596 	ld	l,e			;6B
   1175 DD 67              7597 	ld	ixh,a			;DD 67
   1177 DD 6F              7598 	ld	ixl,a			;DD 6F
   1179 FD 67              7599 	ld	iyh,a			;FD 67
   117B FD 6F              7600 	ld	iyl,a			;FD 6F
   117D DD 60              7601 	ld	ixh,b			;DD 60
   117F DD 69              7602 	ld	ixl,c			;DD 69
   1181 FD 62              7603 	ld	iyh,d			;FD 62
   1183 FD 6B              7604 	ld	iyl,e			;FD 6B
                           7605 
                           7606 ;*******************************************************************
                           7607 ;	LDB	
                           7608 ;*******************************************************************
                           7609 	;***********************************************************
                           7610 	; p. 5-74
                           7611 	.z280
   1185 DD 3Er44s33r20     7639 	ldb	(daddc+x),#nc+x		;DD 3Er44s33r20
   118A FD 0Er55s00r20     7640 	ldb	offsetc+x(ix),#nc+x		;FD 0Er55s00r20
   118F FD 0Er55s00r20     7641 	ldb	(ix+offsetc+x),#nc+x		;FD 0Er55s00r20
   1194 FD 16r55s00r20     7642 	ldb	offsetc+x(iy),#nc+x		;FD 16r55s00r20
   1199 FD 16r55s00r20     7643 	ldb	(iy+offsetc+x),#nc+x		;FD 16r55s00r20
   119E FD 1Er55s00r20     7644 	ldb	offsetc+x(hl),#nc+x		;FD 1Er55s00r20
   11A3 FD 1Er55s00r20     7645 	ldb	(hl+offsetc+x),#nc+x		;FD 1Er55s00r20
   11A8 DD 06r55s00r20     7646 	ldb	offsetc+x(sp),#nc+x		;DD 06r55s00r20
   11AD DD 06r55s00r20     7647 	ldb	(sp+offsetc+x),#nc+x		;DD 06r55s00r20
   11B2 FD 0Er22s11r20     7648 	ldb	lxofc+x(ix),#nc+x		;FD 0Er22s11r20
   11B7 FD 0Er22s11r20     7649 	ldb	(ix+lxofc+x),#nc+x		;FD 0Er22s11r20
   11BC FD 16r22s11r20     7650 	ldb	lxofc+x(iy),#nc+x		;FD 16r22s11r20
   11C1 FD 16r22s11r20     7651 	ldb	(iy+lxofc+x),#nc+x		;FD 16r22s11r20
   11C6 FD 1Er22s11r20     7652 	ldb	lxofc+x(hl),#nc+x		;FD 1Er22s11r20
   11CB FD 1Er22s11r20     7653 	ldb	(hl+lxofc+x),#nc+x		;FD 1Er22s11r20
   11D0 DD 06r22s11r20     7654 	ldb	lxofc+x(sp),#nc+x		;DD 06r22s11r20
   11D5 DD 06r22s11r20     7655 	ldb	(sp+lxofc+x),#nc+x		;DD 06r22s11r20
   11DA DD 0Er20           7656 	ldb	(hl+ix),#nc+x		;DD 0Er20
   11DD DD 16r20           7657 	ldb	(hl+iy),#nc+x		;DD 16r20
   11E0 DD 1Er20           7658 	ldb	(ix+iy),#nc+x		;DD 1Er20
   11E3 FD 06p21q11r20     7717 	ldb	lxofc+ldb01(pc),#nc+x	;FD 06p21q11r20
   11E8 FD 06p21q11r20     7721 	ldb	(pc+lxofc+ldb02),#nc+x	;FD 06p21q11r20
   11ED FD 06p21q11r20     7725 	ldb	[lxofc+ldb03],#nc+x	;FD 06p21q11r20
   11F2 FD 06 1B 00 20     7782 	ldb	[.+32],#nc		;FD 06 1B 00 20
                           7783 
                           7784 ;*******************************************************************
                           7785 ;	LDA
                           7786 ;*******************************************************************
                           7787 	;***********************************************************
                           7788 	; p. 5-76
   11F7 21r44s33           7799 	lda	hl,(daddc+x)		;21r44s33
   11FA DD 21r44s33        7800 	lda	ix,(daddc+x)		;DD 21r44s33
   11FE FD 21r44s33        7801 	lda	iy,(daddc+x)		;FD 21r44s33
   1202 ED 2Ar55s00        7867 	lda	hl,(ix+sxofc+x)		;ED 2Ar55s00
   1206 ED 2Ar22s11        7868 	lda	hl,(ix+lxofc+x)		;ED 2Ar22s11
   120A ED 32r55s00        7869 	lda	hl,(iy+sxofc+x)		;ED 32r55s00
   120E ED 32r22s11        7870 	lda	hl,(iy+lxofc+x)		;ED 32r22s11
   1212 ED 3Ar55s00        7871 	lda	hl,(hl+sxofc+x)		;ED 3Ar55s00
   1216 ED 3Ar22s11        7872 	lda	hl,(hl+lxofc+x)		;ED 3Ar22s11
   121A ED 02r55s00        7873 	lda	hl,(sp+sxofc+x)		;ED 02r55s00
   121E ED 02r22s11        7874 	lda	hl,(sp+lxofc+x)		;ED 02r22s11
   1222 DD ED 2Ar55s00     7875 	lda	ix,(ix+sxofc+x)		;DD ED 2Ar55s00
   1227 DD ED 2Ar22s11     7876 	lda	ix,(ix+lxofc+x)		;DD ED 2Ar22s11
   122C DD ED 32r55s00     7877 	lda	ix,(iy+sxofc+x)		;DD ED 32r55s00
   1231 DD ED 32r22s11     7878 	lda	ix,(iy+lxofc+x)		;DD ED 32r22s11
   1236 DD ED 3Ar55s00     7879 	lda	ix,(hl+sxofc+x)		;DD ED 3Ar55s00
   123B DD ED 3Ar22s11     7880 	lda	ix,(hl+lxofc+x)		;DD ED 3Ar22s11
   1240 DD ED 02r55s00     7881 	lda	ix,(sp+sxofc+x)		;DD ED 02r55s00
   1245 DD ED 02r22s11     7882 	lda	ix,(sp+lxofc+x)		;DD ED 02r22s11
   124A FD ED 2Ar55s00     7883 	lda	iy,(ix+sxofc+x)		;FD ED 2Ar55s00
   124F FD ED 2Ar22s11     7884 	lda	iy,(ix+lxofc+x)		;FD ED 2Ar22s11
   1254 FD ED 32r55s00     7885 	lda	iy,(iy+sxofc+x)		;FD ED 32r55s00
   1259 FD ED 32r22s11     7886 	lda	iy,(iy+lxofc+x)		;FD ED 32r22s11
   125E FD ED 3Ar55s00     7887 	lda	iy,(hl+sxofc+x)		;FD ED 3Ar55s00
   1263 FD ED 3Ar22s11     7888 	lda	iy,(hl+lxofc+x)		;FD ED 3Ar22s11
   1268 FD ED 02r55s00     7889 	lda	iy,(sp+sxofc+x)		;FD ED 02r55s00
   126D FD ED 02r22s11     7890 	lda	iy,(sp+lxofc+x)		;FD ED 02r22s11
   1272 ED 2Ar55s00        7891 	lda	hl,sxofc+x(ix)		;ED 2Ar55s00
   1276 ED 2Ar22s11        7892 	lda	hl,lxofc+x(ix)		;ED 2Ar22s11
   127A ED 32r55s00        7893 	lda	hl,sxofc+x(iy)		;ED 32r55s00
   127E ED 32r22s11        7894 	lda	hl,lxofc+x(iy)		;ED 32r22s11
   1282 ED 3Ar55s00        7895 	lda	hl,sxofc+x(hl)		;ED 3Ar55s00
   1286 ED 3Ar22s11        7896 	lda	hl,lxofc+x(hl)		;ED 3Ar22s11
   128A ED 02r55s00        7897 	lda	hl,sxofc+x(sp)		;ED 02r55s00
   128E ED 02r22s11        7898 	lda	hl,lxofc+x(sp)		;ED 02r22s11
   1292 DD ED 2Ar55s00     7899 	lda	ix,sxofc+x(ix)		;DD ED 2Ar55s00
   1297 DD ED 2Ar22s11     7900 	lda	ix,lxofc+x(ix)		;DD ED 2Ar22s11
   129C DD ED 32r55s00     7901 	lda	ix,sxofc+x(iy)		;DD ED 32r55s00
   12A1 DD ED 32r22s11     7902 	lda	ix,lxofc+x(iy)		;DD ED 32r22s11
   12A6 DD ED 3Ar55s00     7903 	lda	ix,sxofc+x(hl)		;DD ED 3Ar55s00
   12AB DD ED 3Ar22s11     7904 	lda	ix,lxofc+x(hl)		;DD ED 3Ar22s11
   12B0 DD ED 02r55s00     7905 	lda	ix,sxofc+x(sp)		;DD ED 02r55s00
   12B5 DD ED 02r22s11     7906 	lda	ix,lxofc+x(sp)		;DD ED 02r22s11
   12BA FD ED 2Ar55s00     7907 	lda	iy,sxofc+x(ix)		;FD ED 2Ar55s00
   12BF FD ED 2Ar22s11     7908 	lda	iy,lxofc+x(ix)		;FD ED 2Ar22s11
   12C4 FD ED 32r55s00     7909 	lda	iy,sxofc+x(iy)		;FD ED 32r55s00
   12C9 FD ED 32r22s11     7910 	lda	iy,lxofc+x(iy)		;FD ED 32r22s11
   12CE FD ED 3Ar55s00     7911 	lda	iy,sxofc+x(hl)		;FD ED 3Ar55s00
   12D3 FD ED 3Ar22s11     7912 	lda	iy,lxofc+x(hl)		;FD ED 3Ar22s11
   12D8 FD ED 02r55s00     7913 	lda	iy,sxofc+x(sp)		;FD ED 02r55s00
   12DD FD ED 02r22s11     7914 	lda	iy,lxofc+x(sp)		;FD ED 02r22s11
   12E2 ED 2A 00 00        7970 	lda	hl,(ix)			;ED 2A 00 00
   12E6 ED 32 00 00        7971 	lda	hl,(iy)			;ED 32 00 00
   12EA ED 3A 00 00        7972 	lda	hl,(hl)			;ED 3A 00 00
   12EE ED 02 00 00        7973 	lda	hl,(sp)			;ED 02 00 00
   12F2 DD ED 2A 00 00     7974 	lda	ix,(ix)			;DD ED 2A 00 00
   12F7 DD ED 32 00 00     7975 	lda	ix,(iy)			;DD ED 32 00 00
   12FC DD ED 3A 00 00     7976 	lda	ix,(hl)			;DD ED 3A 00 00
   1301 DD ED 02 00 00     7977 	lda	ix,(sp)			;DD ED 02 00 00
   1306 FD ED 2A 00 00     7978 	lda	iy,(ix)			;FD ED 2A 00 00
   130B FD ED 32 00 00     7979 	lda	iy,(iy)			;FD ED 32 00 00
   1310 FD ED 3A 00 00     7980 	lda	iy,(hl)			;FD ED 3A 00 00
   1315 FD ED 02 00 00     7981 	lda	iy,(sp)			;FD ED 02 00 00
   131A ED 0A              7982 	lda	hl,(ix+hl)		;ED 0A
   131C ED 12              7983 	lda	hl,(hl+iy)		;ED 12
   131E ED 1A              7984 	lda	hl,(ix+iy)		;ED 1A
   1320 DD ED 0A           7985 	lda	ix,(hl+ix)		;DD ED 0A
   1323 DD ED 12           7986 	lda	ix,(hl+iy)		;DD ED 12
   1326 DD ED 1A           7987 	lda	ix,(ix+iy)		;DD ED 1A
   1329 FD ED 0A           7988 	lda	iy,(hl+ix)		;FD ED 0A
   132C FD ED 12           7989 	lda	iy,(hl+iy)		;FD ED 12
   132F FD ED 1A           7990 	lda	iy,(ix+iy)		;FD ED 1A
   1332 DD ED 22p22q11     8009 	lda	ix,lxofc+lda01(pc)	;DD ED 22p22q11
   1337 DD ED 22p22q11     8013 	lda	ix,(pc+lxofc+lda02)	;DD ED 22p22q11
   133C DD ED 22p22q11     8017 	lda	ix,[lxofc+lda03]	;DD ED 22p22q11
   1341 DD ED 22 FB FF     8074 	lda	ix,[.]			;DD ED 22 FB FF
   1346 DD ED 22 1B 00     8075 	lda	ix,[.+nc]		;DD ED 22 1B 00
   134B FD ED 22p22q11     8094 	lda	iy,lxofc+lda04(pc)	;FD ED 22p22q11
   1350 FD ED 22p22q11     8098 	lda	iy,(pc+lxofc+lda05)	;FD ED 22p22q11
   1355 FD ED 22p22q11     8102 	lda	iy,[lxofc+lda06]	;FD ED 22p22q11
   135A FD ED 22 FB FF     8159 	lda	iy,[.]			;FD ED 22 FB FF
   135F FD ED 22 1B 00     8160 	lda	iy,[.+nc]		;FD ED 22 1B 00
   1364 ED 22p22q11        8179 	lda	hl,lxofc+lda07(pc)	;ED 22p22q11
   1368 ED 22p22q11        8183 	lda	hl,(pc+lxofc+lda08)	;ED 22p22q11
   136C ED 22p22q11        8187 	lda	hl,[lxofc+lda09]	;ED 22p22q11
   1370 ED 22 FC FF        8244 	lda	hl,[.]			;ED 22 FC FF
   1374 ED 22 1C 00        8245 	lda	hl,[.+nc]		;ED 22 1C 00
                           8246 
                           8247 ;*******************************************************************
                           8248 ;	LDCTL	
                           8249 ;*******************************************************************
                           8250 	;***********************************************************
                           8251 	;  p. 5-77
                           8252 	.z280p
   1378 ED 66              8253 	ldctl	hl,(c)			;ED 66
   137A DD ED 66           8254 	ldctl	ix,(c)			;DD ED 66
   137D FD ED 66           8255 	ldctl	iy,(c)			;FD ED 66
   1380 ED 6E              8256 	ldctl	(c),hl			;ED 6E
   1382 DD ED 6E           8257 	ldctl	(c),ix			;DD ED 6E
   1385 FD ED 6E           8258 	ldctl	(c),iy			;FD ED 6E
   1388 ED 87              8259 	ldctl	hl,usp			;ED 87
   138A DD ED 87           8260 	ldctl	ix,usp			;DD ED 87
   138D FD ED 87           8261 	ldctl	iy,usp			;FD ED 87
   1390 ED 8F              8262 	ldctl	usp,hl			;ED 8F
   1392 DD ED 8F           8263 	ldctl	usp,ix			;DD ED 8F
   1395 FD ED 8F           8264 	ldctl	usp,iy			;FD ED 8F
                           8265 
                           8266 ;*******************************************************************
                           8267 ;	LDUD	
                           8268 ;		Leading 'a' operand is optional.
                           8269 ;		If offset is ommitted 0 is assumed.
                           8270 ;*******************************************************************
                           8271 	;***********************************************************
                           8272 	;  p. 5-84
                           8273 	.z280p
   1398 ED 86              8296 	ldud	a,(hl)			;ED 86
   139A DD ED 86r55        8297 	ldud	a,sxofc+x(ix)		;DD ED 86r55
   139E DD ED 86r55        8298 	ldud	a,(ix+sxofc+x)		;DD ED 86r55
   13A2 DD ED 86 00        8299 	ldud	a,(ix)			;DD ED 86 00
   13A6 FD ED 86r55        8300 	ldud	a,sxofc+x(iy)		;FD ED 86r55
   13AA FD ED 86r55        8301 	ldud	a,(iy+sxofc+x)		;FD ED 86r55
   13AE FD ED 86 00        8302 	ldud	a,(iy)			;FD ED 86 00
                           8303 
   13B2 ED 8E              8304 	ldud	(hl),a			;ED 8E
   13B4 DD ED 8Er55        8305 	ldud	sxofc+x(ix),a		;DD ED 8Er55
   13B8 DD ED 8Er55        8306 	ldud	(ix+sxofc+x),a		;DD ED 8Er55
   13BC DD ED 8E 00        8307 	ldud	(ix),a			;DD ED 8E 00
   13C0 FD ED 8Er55        8308 	ldud	sxofc+x(iy),a		;FD ED 8Er55
   13C4 FD ED 8Er55        8309 	ldud	(iy+sxofc+x),a		;FD ED 8Er55
   13C8 FD ED 8E 00        8310 	ldud	(iy),a			;FD ED 8E 00
                           8333 
                           8334 ;*******************************************************************
                           8335 ;	LDUP	
                           8336 ;		Leading 'a' operand is optional.
                           8337 ;		If offset is ommitted 0 is assumed.
                           8338 ;*******************************************************************
                           8339 	;***********************************************************
                           8340 	;  p. 5-86
                           8341 	.z280p
   13CC ED 96              8364 	ldup	a,(hl)			;ED 96
   13CE DD ED 96r55        8365 	ldup	a,sxofc+x(ix)		;DD ED 96r55
   13D2 DD ED 96r55        8366 	ldup	a,(ix+sxofc+x)		;DD ED 96r55
   13D6 DD ED 96 00        8367 	ldup	a,(ix)			;DD ED 96 00
   13DA FD ED 96r55        8368 	ldup	a,sxofc+x(iy)		;FD ED 96r55
   13DE FD ED 96r55        8369 	ldup	a,(iy+sxofc+x)		;FD ED 96r55
   13E2 FD ED 96 00        8370 	ldup	a,(iy)			;FD ED 96 00
                           8371 
   13E6 ED 9E              8372 	ldup	(hl),a			;ED 9E
   13E8 DD ED 9Er55        8373 	ldup	sxofc+x(ix),a		;DD ED 9Er55
   13EC DD ED 9Er55        8374 	ldup	(ix+sxofc+x),a		;DD ED 9Er55
   13F0 DD ED 9E 00        8375 	ldup	(ix),a			;DD ED 9E 00
   13F4 FD ED 9Er55        8376 	ldup	sxofc+x(iy),a		;FD ED 9Er55
   13F8 FD ED 9Er55        8377 	ldup	(iy+sxofc+x),a		;FD ED 9Er55
   13FC FD ED 9E 00        8378 	ldup	(iy),a			;FD ED 9E 00
                           8401 
                           8402 ;*******************************************************************
                           8403 ;	LDW	
                           8404 ;*******************************************************************
                           8405 	;***********************************************************
                           8406 	;  p. 5-88
                           8407 	.z280
   1400 01r20s00           8431 	ldw	bc,#nc+x			;01r20s00
   1403 11r20s00           8432 	ldw	de,#nc+x			;11r20s00
   1406 21r20s00           8433 	ldw	hl,#nc+x			;21r20s00
   1409 31r20s00           8434 	ldw	sp,#nc+x			;31r20s00
   140C DD 21r20s00        8435 	ldw	ix,#nc+x			;DD 21r20s00
   1410 FD 21r20s00        8436 	ldw	iy,#nc+x			;FD 21r20s00
   1414 DD 01r20s00        8437 	ldw	(hl),#nc+x			;DD 01r20s00
   1418 DD 11r44s33r20s00  8438 	ldw	(daddc+x),#nc+x		;DD 11r44s33r20s00
   141E 01r84s05           8439 	ldw	bc,#nnc+x			;01r84s05
   1421 11r84s05           8440 	ldw	de,#nnc+x			;11r84s05
   1424 21r84s05           8441 	ldw	hl,#nnc+x			;21r84s05
   1427 31r84s05           8442 	ldw	sp,#nnc+x			;31r84s05
   142A DD 21r84s05        8443 	ldw	ix,#nnc+x			;DD 21r84s05
   142E FD 21r84s05        8444 	ldw	iy,#nnc+x			;FD 21r84s05
   1432 DD 01r84s05        8445 	ldw	(hl),#nnc+x		;DD 01r84s05
   1436 DD 11r44s33r84s05  8446 	ldw	(daddc+x),#nnc+x		;DD 11r44s33r84s05
   143C DD 31p20q11r20s00  8488 	ldw	lxofc+ldw01(pc),#nc+x	;DD 31p20q11r20s00
                           8489       .pcr_lclx ldw02,6
   1442 DD 31p20q11r20s00  8491 	ldw	(pc+lxofc+ldw02),#nc+x	;DD 31p20q11r20s00
   1448 DD 31p20q11r20s00  8495 	ldw	[lxofc+ldw03],#nc+x	;DD 31p20q11r20s00
   144E DD 31 00 00 84 05  8552 	ldw	[.+6],#nnc		;DD 31 00 00 84 05
                           8553 
                           8554 	;***********************************************************
                           8555 	;  p. 5-89     two immediates handled above
                           8556 	.z280
   1454 2Ar44s33           8616 	ldw	hl,(daddc+x)		;2Ar44s33
   1457 DD 2Ar44s33        8617 	ldw	ix,(daddc+x)		;DD 2Ar44s33
   145B FD 2Ar44s33        8618 	ldw	iy,(daddc+x)		;FD 2Ar44s33
   145F ED 2Cr55s00        8619 	ldw	hl,sxofc+x(ix)		;ED 2Cr55s00
   1463 ED 2Cr55s00        8620 	ldw	hl,(ix+sxofc+x)		;ED 2Cr55s00
   1467 ED 34r55s00        8621 	ldw	hl,sxofc+x(iy)		;ED 34r55s00
   146B ED 34r55s00        8622 	ldw	hl,(iy+sxofc+x)		;ED 34r55s00
   146F ED 3Cr55s00        8623 	ldw	hl,sxofc+x(hl)		;ED 3Cr55s00
   1473 ED 3Cr55s00        8624 	ldw	hl,(hl+sxofc+x)		;ED 3Cr55s00
   1477 ED 04r55s00        8625 	ldw	hl,sxofc+x(sp)		;ED 04r55s00
   147B ED 04r55s00        8626 	ldw	hl,(sp+sxofc+x)		;ED 04r55s00
   147F ED 2Cr22s11        8627 	ldw	hl,lxofc+x(ix)		;ED 2Cr22s11
   1483 ED 2Cr22s11        8628 	ldw	hl,(ix+lxofc+x)		;ED 2Cr22s11
   1487 ED 34r22s11        8629 	ldw	hl,lxofc+x(iy)		;ED 34r22s11
   148B ED 34r22s11        8630 	ldw	hl,(iy+lxofc+x)		;ED 34r22s11
   148F ED 3Cr22s11        8631 	ldw	hl,lxofc+x(hl)		;ED 3Cr22s11
   1493 ED 3Cr22s11        8632 	ldw	hl,(hl+lxofc+x)		;ED 3Cr22s11
   1497 ED 04r22s11        8633 	ldw	hl,lxofc+x(sp)		;ED 04r22s11
   149B ED 04r22s11        8634 	ldw	hl,(sp+lxofc+x)		;ED 04r22s11
   149F DD ED 2Cr55s00     8635 	ldw	ix,sxofc+x(ix)		;DD ED 2Cr55s00
   14A4 DD ED 2Cr55s00     8636 	ldw	ix,(ix+sxofc+x)		;DD ED 2Cr55s00
   14A9 DD ED 34r55s00     8637 	ldw	ix,sxofc+x(iy)		;DD ED 34r55s00
   14AE DD ED 34r55s00     8638 	ldw	ix,(iy+sxofc+x)		;DD ED 34r55s00
   14B3 DD ED 3Cr55s00     8639 	ldw	ix,sxofc+x(hl)		;DD ED 3Cr55s00
   14B8 DD ED 3Cr55s00     8640 	ldw	ix,(hl+sxofc+x)		;DD ED 3Cr55s00
   14BD DD ED 04r55s00     8641 	ldw	ix,sxofc+x(sp)		;DD ED 04r55s00
   14C2 DD ED 04r55s00     8642 	ldw	ix,(sp+sxofc+x)		;DD ED 04r55s00
   14C7 DD ED 2Cr22s11     8643 	ldw	ix,lxofc+x(ix)		;DD ED 2Cr22s11
   14CC DD ED 2Cr22s11     8644 	ldw	ix,(ix+lxofc+x)		;DD ED 2Cr22s11
   14D1 DD ED 34r22s11     8645 	ldw	ix,lxofc+x(iy)		;DD ED 34r22s11
   14D6 DD ED 34r22s11     8646 	ldw	ix,(iy+lxofc+x)		;DD ED 34r22s11
   14DB DD ED 3Cr22s11     8647 	ldw	ix,lxofc+x(hl)		;DD ED 3Cr22s11
   14E0 DD ED 3Cr22s11     8648 	ldw	ix,(hl+lxofc+x)		;DD ED 3Cr22s11
   14E5 DD ED 04r22s11     8649 	ldw	ix,lxofc+x(sp)		;DD ED 04r22s11
   14EA DD ED 04r22s11     8650 	ldw	ix,lxofc+x(sp)		;DD ED 04r22s11
   14EF DD ED 04r22s11     8651 	ldw	ix,(sp+lxofc+x)		;DD ED 04r22s11
   14F4 FD ED 2Cr55s00     8652 	ldw	iy,sxofc+x(ix)		;FD ED 2Cr55s00
   14F9 FD ED 2Cr55s00     8653 	ldw	iy,(ix+sxofc+x)		;FD ED 2Cr55s00
   14FE FD ED 34r55s00     8654 	ldw	iy,sxofc+x(iy)		;FD ED 34r55s00
   1503 FD ED 34r55s00     8655 	ldw	iy,(iy+sxofc+x)		;FD ED 34r55s00
   1508 FD ED 3Cr55s00     8656 	ldw	iy,sxofc+x(hl)		;FD ED 3Cr55s00
   150D FD ED 3Cr55s00     8657 	ldw	iy,(hl+sxofc+x)		;FD ED 3Cr55s00
   1512 FD ED 04r55s00     8658 	ldw	iy,sxofc+x(sp)		;FD ED 04r55s00
   1517 FD ED 04r55s00     8659 	ldw	iy,(sp+sxofc+x)		;FD ED 04r55s00
   151C FD ED 2Cr22s11     8660 	ldw	iy,(ix+lxofc+x)		;FD ED 2Cr22s11
   1521 FD ED 2Cr22s11     8661 	ldw	iy,lxofc+x(ix)		;FD ED 2Cr22s11
   1526 FD ED 34r22s11     8662 	ldw	iy,lxofc+x(iy)		;FD ED 34r22s11
   152B FD ED 34r22s11     8663 	ldw	iy,(iy+lxofc+x)		;FD ED 34r22s11
   1530 FD ED 3Cr22s11     8664 	ldw	iy,lxofc+x(hl)		;FD ED 3Cr22s11
   1535 FD ED 3Cr22s11     8665 	ldw	iy,(hl+lxofc+x)		;FD ED 3Cr22s11
   153A FD ED 04r22s11     8666 	ldw	iy,lxofc+x(sp)		;FD ED 04r22s11
   153F FD ED 04r22s11     8667 	ldw	iy,(sp+lxofc+x)		;FD ED 04r22s11
   1544 ED 04 00 00        8744 	ldw	hl,(sp)			;ED 04 00 00
   1548 DD ED 04 00 00     8745 	ldw	ix,(sp)			;DD ED 04 00 00
   154D FD ED 04 00 00     8746 	ldw	iy,(sp)			;FD ED 04 00 00
   1552 ED 0C              8747 	ldw	hl,(hl+ix)		;ED 0C
   1554 ED 14              8748 	ldw	hl,(hl+iy)		;ED 14
   1556 ED 1C              8749 	ldw	hl,(ix+iy)		;ED 1C
   1558 DD ED 0C           8750 	ldw	ix,(hl+ix)		;DD ED 0C
   155B DD ED 14           8751 	ldw	ix,(hl+iy)		;DD ED 14
   155E DD ED 1C           8752 	ldw	ix,(ix+iy)		;DD ED 1C
   1561 FD ED 0C           8753 	ldw	iy,(hl+ix)		;FD ED 0C
   1564 FD ED 14           8754 	ldw	iy,(hl+iy)		;FD ED 14
   1567 FD ED 1C           8755 	ldw	iy,(ix+iy)		;FD ED 1C
                           8756 
   156A ED 24p22q11        8775 	ldw	hl,lxofc+ldw04(pc)	;ED 24p22q11
   156E ED 24p22q11        8779 	ldw	hl,(pc+lxofc+ldw05)	;ED 24p22q11
   1572 ED 24p22q11        8783 	ldw	hl,[lxofc+ldw06]	;ED 24p22q11
   1576 ED 24 1C 00        8840 	ldw	hl,[.+32]		;ED 24 1C 00
   157A DD ED 24p22q11     8859 	ldw	ix,lxofc+ldw07(pc)	;DD ED 24p22q11
   157F DD ED 24p22q11     8863 	ldw	ix,(pc+lxofc+ldw08)	;DD ED 24p22q11
   1584 DD ED 24p22q11     8867 	ldw	ix,[lxofc+ldw09]	;DD ED 24p22q11
   1589 DD ED 24 1B 00     8924 	ldw	ix,[.+32]		;DD ED 24 1B 00
   158E FD ED 24p22q11     8943 	ldw	iy,lxofc+ldw11(pc)	;FD ED 24p22q11
   1593 FD ED 24p22q11     8947 	ldw	iy,(pc+lxofc+ldw12)	;FD ED 24p22q11
   1598 FD ED 24p22q11     8951 	ldw	iy,[lxofc+ldw13]	;FD ED 24p22q11
   159D FD ED 24 1B 00     9008 	ldw	iy,[.+32]		;FD ED 24 1B 00
                           9009 	;***********************************************************
                           9010 	;  p. 5-90
                           9011 	.z280
   15A2 22r44s33           9070 	ldw	(daddc+x),hl		;22r44s33
   15A5 DD 22r44s33        9071 	ldw	(daddc+x),ix		;DD 22r44s33
   15A9 FD 22r44s33        9072 	ldw	(daddc+x),iy		;FD 22r44s33
   15AD ED 2Dr55s00        9073 	ldw	sxofc+x(ix),hl		;ED 2Dr55s00
   15B1 ED 2Dr55s00        9074 	ldw	(ix+sxofc+x),hl		;ED 2Dr55s00
   15B5 ED 35r55s00        9075 	ldw	sxofc+x(iy),hl		;ED 35r55s00
   15B9 ED 35r55s00        9076 	ldw	(iy+sxofc+x),hl		;ED 35r55s00
   15BD ED 3Dr55s00        9077 	ldw	sxofc+x(hl),hl		;ED 3Dr55s00
   15C1 ED 3Dr55s00        9078 	ldw	(hl+sxofc+x),hl		;ED 3Dr55s00
   15C5 ED 05r55s00        9079 	ldw	sxofc+x(sp),hl		;ED 05r55s00
   15C9 ED 05r55s00        9080 	ldw	(sp+sxofc+x),hl		;ED 05r55s00
   15CD ED 2Dr22s11        9081 	ldw	lxofc+x(ix),hl		;ED 2Dr22s11
   15D1 ED 2Dr22s11        9082 	ldw	(ix+lxofc+x),hl		;ED 2Dr22s11
   15D5 ED 35r22s11        9083 	ldw	lxofc+x(iy),hl		;ED 35r22s11
   15D9 ED 35r22s11        9084 	ldw	(iy+lxofc+x),hl		;ED 35r22s11
   15DD ED 3Dr22s11        9085 	ldw	lxofc+x(hl),hl		;ED 3Dr22s11
   15E1 ED 3Dr22s11        9086 	ldw	(hl+lxofc+x),hl		;ED 3Dr22s11
   15E5 ED 05r22s11        9087 	ldw	lxofc+x(sp),hl		;ED 05r22s11
   15E9 ED 05r22s11        9088 	ldw	(sp+lxofc+x),hl		;ED 05r22s11
   15ED DD ED 2Dr55s00     9089 	ldw	sxofc+x(ix),ix		;DD ED 2Dr55s00
   15F2 DD ED 2Dr55s00     9090 	ldw	(ix+sxofc+x),ix		;DD ED 2Dr55s00
   15F7 DD ED 35r55s00     9091 	ldw	sxofc+x(iy),ix		;DD ED 35r55s00
   15FC DD ED 35r55s00     9092 	ldw	(iy+sxofc+x),ix		;DD ED 35r55s00
   1601 DD ED 3Dr55s00     9093 	ldw	sxofc+x(hl),ix		;DD ED 3Dr55s00
   1606 DD ED 3Dr55s00     9094 	ldw	(hl+sxofc+x),ix		;DD ED 3Dr55s00
   160B DD ED 05r55s00     9095 	ldw	sxofc+x(sp),ix		;DD ED 05r55s00
   1610 DD ED 05r55s00     9096 	ldw	(sp+sxofc+x),ix		;DD ED 05r55s00
   1615 DD ED 2Dr22s11     9097  	ldw	lxofc+x(ix),ix		;DD ED 2Dr22s11
   161A DD ED 2Dr22s11     9098 	ldw	(ix+lxofc+x),ix		;DD ED 2Dr22s11
   161F DD ED 35r22s11     9099 	ldw	lxofc+x(iy),ix		;DD ED 35r22s11
   1624 DD ED 35r22s11     9100 	ldw	(iy+lxofc+x),ix		;DD ED 35r22s11
   1629 DD ED 3Dr22s11     9101 	ldw	lxofc+x(hl),ix		;DD ED 3Dr22s11
   162E DD ED 3Dr22s11     9102 	ldw	(hl+lxofc+x),ix		;DD ED 3Dr22s11
   1633 DD ED 05r22s11     9103 	ldw	lxofc+x(sp),ix		;DD ED 05r22s11
   1638 DD ED 05r22s11     9104 	ldw	(sp+lxofc+x),ix		;DD ED 05r22s11
   163D FD ED 2Dr55s00     9105 	ldw	sxofc+x(ix),iy		;FD ED 2Dr55s00
   1642 FD ED 2Dr55s00     9106 	ldw	(ix+sxofc+x),iy		;FD ED 2Dr55s00
   1647 FD ED 35r55s00     9107 	ldw	sxofc+x(iy),iy		;FD ED 35r55s00
   164C FD ED 35r55s00     9108 	ldw	(iy+sxofc+x),iy		;FD ED 35r55s00
   1651 FD ED 3Dr55s00     9109 	ldw	sxofc+x(hl),iy		;FD ED 3Dr55s00
   1656 FD ED 3Dr55s00     9110 	ldw	(hl+sxofc+x),iy		;FD ED 3Dr55s00
   165B FD ED 05r55s00     9111 	ldw	sxofc+x(sp),iy		;FD ED 05r55s00
   1660 FD ED 05r55s00     9112 	ldw	(sp+sxofc+x),iy		;FD ED 05r55s00
   1665 FD ED 2Dr22s11     9113 	ldw	lxofc+x(ix),iy		;FD ED 2Dr22s11
   166A FD ED 2Dr22s11     9114 	ldw	(ix+lxofc+x),iy		;FD ED 2Dr22s11
   166F FD ED 35r22s11     9115 	ldw	lxofc+x(iy),iy		;FD ED 35r22s11
   1674 FD ED 35r22s11     9116 	ldw	(iy+lxofc+x),iy		;FD ED 35r22s11
   1679 FD ED 3Dr22s11     9117 	ldw	lxofc+x(hl),iy		;FD ED 3Dr22s11
   167E FD ED 3Dr22s11     9118 	ldw	(hl+lxofc+x),iy		;FD ED 3Dr22s11
   1683 FD ED 05r22s11     9119 	ldw	lxofc+x(sp),iy		;FD ED 05r22s11
   1688 FD ED 05r22s11     9120 	ldw	(sp+lxofc+x),iy		;FD ED 05r22s11
                           9196 
   168D ED 05 00 00        9197 	ldw	(sp),hl			;ED 05 00 00
   1691 DD ED 05 00 00     9198 	ldw	(sp),ix			;DD ED 05 00 00
   1696 FD ED 05 00 00     9199 	ldw	(sp),iy			;FD ED 05 00 00
   169B FD ED 0D           9200 	ldw	(hl+ix),iy		;FD ED 0D
   169E FD ED 15           9201 	ldw	(hl+iy),iy		;FD ED 15
   16A1 FD ED 1D           9202 	ldw	(ix+iy),iy		;FD ED 1D
   16A4 DD ED 0D           9203 	ldw	(hl+ix),ix		;DD ED 0D
   16A7 DD ED 15           9204 	ldw	(hl+iy),ix		;DD ED 15
   16AA DD ED 1D           9205 	ldw	(ix+iy),ix		;DD ED 1D
   16AD ED 0D              9206 	ldw	(hl+ix),hl		;ED 0D
   16AF ED 15              9207 	ldw	(hl+iy),hl		;ED 15
   16B1 ED 1D              9208 	ldw	(ix+iy),hl		;ED 1D
                           9209 
   16B3 ED 25p22q11        9228 	ldw	lxofc+ldw14(pc),hl	;ED 25p22q11
   16B7 ED 25p22q11        9232 	ldw	(pc+lxofc+ldw15),hl	;ED 25p22q11
   16BB ED 25p22q11        9236 	ldw	[lxofc+ldw16],hl	;ED 25p22q11
   16BF ED 25 1C 00        9293 	ldw	[.+32],hl		;ED 25 1C 00
   16C3 DD ED 25p22q11     9312 	ldw	lxofc+ldw17(pc),ix	;DD ED 25p22q11
   16C8 DD ED 25p22q11     9316 	ldw	(pc+lxofc+ldw18),ix	;DD ED 25p22q11
   16CD DD ED 25p22q11     9320 	ldw	[lxofc+ldw19],ix	;DD ED 25p22q11
   16D2 DD ED 25 1B 00     9377 	ldw	[.+32],ix		;DD ED 25 1B 00
   16D7 FD ED 25p22q11     9396 	ldw	lxofc+ldw21(pc),iy	;FD ED 25p22q11
   16DC FD ED 25p22q11     9400 	ldw	(pc+lxofc+ldw22),iy	;FD ED 25p22q11
   16E1 FD ED 25p22q11     9404 	ldw	[lxofc+ldw23],iy	;FD ED 25p22q11
   16E6 FD ED 25 1B 00     9461 	ldw	[.+32],iy		;FD ED 25 1B 00
                           9462 	;***********************************************************
                           9463 	;  p. 5-91
                           9464 	.z280
   16EB 01r84s05           9476 	ldw	bc,#nnc+x			;01r84s05
   16EE 11r84s05           9477 	ldw	de,#nnc+x			;11r84s05
   16F1 21r84s05           9478 	ldw	hl,#nnc+x			;21r84s05
   16F4 31r84s05           9479 	ldw	sp,#nnc+x			;31r84s05
   16F7 ED 06              9491 	ldw	bc,(hl)			;ED 06
   16F9 ED 16              9492 	ldw	de,(hl)			;ED 16
   16FB ED 26              9493 	ldw	hl,(hl)			;ED 26
   16FD ED 36              9494 	ldw	sp,(hl)			;ED 36
   16FF DD ED 06 00        9495 	ldw	bc,(ix)			;DD ED 06 00
   1703 DD ED 16 00        9496 	ldw	de,(ix)			;DD ED 16 00
   1707 DD ED 26 00        9497 	ldw	hl,(ix)			;DD ED 26 00
   170B DD ED 36 00        9498 	ldw	sp,(ix)			;DD ED 36 00
   170F FD ED 06 00        9499 	ldw	bc,(iy)			;FD ED 06 00
   1713 FD ED 16 00        9500 	ldw	de,(iy)			;FD ED 16 00
   1717 FD ED 26 00        9501 	ldw	hl,(iy)			;FD ED 26 00
   171B FD ED 36 00        9502 	ldw	sp,(iy)			;FD ED 36 00
   171F ED 4Br44s33        9530 	ldw	bc,(daddc+x)		;ED 4Br44s33
   1723 ED 5Br44s33        9531 	ldw	de,(daddc+x)		;ED 5Br44s33
   1727 2Ar44s33           9532 	ldw	hl,(daddc+x)		;2Ar44s33
   172A ED 7Br44s33        9533 	ldw	sp,(daddc+x)		;ED 7Br44s33
   172E DD ED 06r55        9534 	ldw	bc,sxofc+x(ix)		;DD ED 06r55
   1732 DD ED 06r55        9535 	ldw	bc,(ix+sxofc+x)		;DD ED 06r55
   1736 FD ED 06r55        9536 	ldw	bc,sxofc+x(iy)		;FD ED 06r55
   173A FD ED 06r55        9537 	ldw	bc,(iy+sxofc+x)		;FD ED 06r55
   173E DD ED 16r55        9538 	ldw	de,sxofc+x(ix)		;DD ED 16r55
   1742 DD ED 16r55        9539 	ldw	de,(ix+sxofc+x)		;DD ED 16r55
   1746 FD ED 16r55        9540 	ldw	de,sxofc+x(iy)		;FD ED 16r55
   174A FD ED 16r55        9541 	ldw	de,(iy+sxofc+x)		;FD ED 16r55
   174E ED 2Cr55s00        9542 	ldw	hl,sxofc+x(ix)		;ED 2Cr55s00
   1752 ED 2Cr55s00        9543 	ldw	hl,(ix+sxofc+x)		;ED 2Cr55s00
   1756 ED 34r55s00        9544 	ldw	hl,sxofc+x(iy)		;ED 34r55s00
   175A ED 34r55s00        9545 	ldw	hl,(iy+sxofc+x)		;ED 34r55s00
   175E DD ED 36r55        9546 	ldw	sp,sxofc+x(ix)		;DD ED 36r55
   1762 DD ED 36r55        9547 	ldw	sp,(ix+sxofc+x)		;DD ED 36r55
   1766 FD ED 36r55        9548 	ldw	sp,sxofc+x(iy)		;FD ED 36r55
   176A FD ED 36r55        9549 	ldw	sp,(iy+sxofc+x)		;FD ED 36r55
   176E ED 0E              9590 	ldw	(hl),bc			;ED 0E
   1770 ED 1E              9591 	ldw	(hl),de			;ED 1E
   1772 ED 2E              9592 	ldw	(hl),hl			;ED 2E
   1774 ED 3E              9593 	ldw	(hl),sp			;ED 3E
   1776 ED 43r44s33        9621 	ldw	(daddc+x),bc		;ED 43r44s33
   177A ED 53r44s33        9622 	ldw	(daddc+x),de		;ED 53r44s33
   177E ED 73r44s33        9623 	ldw	(daddc+x),sp		;ED 73r44s33
   1782 22r44s33           9624 	ldw	(daddc+x),hl		;22r44s33
   1785 DD ED 0Er55        9625 	ldw	sxofc+x(ix),bc		;DD ED 0Er55
   1789 DD ED 0Er55        9626 	ldw	(ix+sxofc+x),bc		;DD ED 0Er55
   178D FD ED 0Er55        9627 	ldw	sxofc+x(iy),bc		;FD ED 0Er55
   1791 FD ED 0Er55        9628 	ldw	(iy+sxofc+x),bc		;FD ED 0Er55
   1795 DD ED 1Er55        9629 	ldw	sxofc+x(ix),de		;DD ED 1Er55
   1799 DD ED 1Er55        9630 	ldw	(ix+sxofc+x),de		;DD ED 1Er55
   179D FD ED 1Er55        9631 	ldw	sxofc+x(iy),de		;FD ED 1Er55
   17A1 FD ED 1Er55        9632 	ldw	(iy+sxofc+x),de		;FD ED 1Er55
   17A5 ED 2Dr55s00        9633 	ldw	sxofc+x(ix),hl		;ED 2Dr55s00
   17A9 ED 2Dr55s00        9634 	ldw	(ix+sxofc+x),hl		;ED 2Dr55s00
   17AD ED 35r55s00        9635 	ldw	sxofc+x(iy),hl		;ED 35r55s00
   17B1 ED 35r55s00        9636 	ldw	(iy+sxofc+x),hl		;ED 35r55s00
   17B5 DD ED 3Er55        9637 	ldw	sxofc+x(ix),sp		;DD ED 3Er55
   17B9 DD ED 3Er55        9638 	ldw	(ix+sxofc+x),sp		;DD ED 3Er55
   17BD FD ED 3Er55        9639 	ldw	sxofc+x(iy),sp		;FD ED 3Er55
   17C1 FD ED 3Er55        9640 	ldw	(iy+sxofc+x),sp		;FD ED 3Er55
   17C5 DD ED 0E 00        9681 	ldw	(ix),bc			;DD ED 0E 00
   17C9 DD ED 1E 00        9682 	ldw	(ix),de			;DD ED 1E 00
   17CD DD ED 2E 00        9683 	ldw	(ix),hl			;DD ED 2E 00
   17D1 DD ED 3E 00        9684 	ldw	(ix),sp			;DD ED 3E 00
   17D5 FD ED 0E 00        9685 	ldw	(iy),bc			;FD ED 0E 00
   17D9 FD ED 1E 00        9686 	ldw	(iy),de			;FD ED 1E 00
   17DD FD ED 2E 00        9687 	ldw	(iy),hl			;FD ED 2E 00
   17E1 FD ED 3E 00        9688 	ldw	(iy),sp			;FD ED 3E 00
                           9689 	;***********************************************************
                           9690 	;  p. 5-92
   17E5 F9                 9691 	ldw	sp,hl			;F9
   17E6 DD F9              9692 	ldw	sp,ix			;DD F9
   17E8 FD F9              9693 	ldw	sp,iy			;FD F9
   17EA F9                 9694 	ld	sp,hl			;F9
   17EB DD F9              9695 	ld	sp,ix			;DD F9
   17ED FD F9              9696 	ld	sp,iy			;FD F9
   17EF 31r84s05           9706 	ldw	sp,#nnc+x			;31r84s05
   17F2 31r84s05           9707 	ld	sp,#nnc+x			;31r84s05
   17F5 ED 36              9717 	ldw	sp,(hl)			;ED 36
   17F7 ED 36              9718 	ld	sp,(hl)			;ED 36
   17F9 ED 3E              9719 	ldw	(hl),sp			;ED 3E
   17FB ED 3E              9720 	ld	(hl),sp			;ED 3E
   17FD ED 7Br44s33        9738 	ldw	sp,(daddc+x)		;ED 7Br44s33
   1801 ED 7Br44s33        9739 	ld	sp,(daddc+x)		;ED 7Br44s33
   1805 DD ED 36r55        9740 	ldw	sp,(ix+sxofc+x)		;DD ED 36r55
   1809 DD ED 36r55        9741 	ld	sp,(ix+sxofc+x)		;DD ED 36r55
   180D DD ED 36r55        9742 	ldw	sp,sxofc+x(ix)		;DD ED 36r55
   1811 DD ED 36r55        9743 	ld	sp,sxofc+x(ix)		;DD ED 36r55
   1815 FD ED 36r55        9744 	ldw	sp,(iy+sxofc+x)		;FD ED 36r55
   1819 FD ED 36r55        9745 	ld	sp,(iy+sxofc+x)		;FD ED 36r55
   181D FD ED 36r55        9746 	ldw	sp,sxofc+x(iy)		;FD ED 36r55
   1821 FD ED 36r55        9747 	ld	sp,sxofc+x(iy)		;FD ED 36r55
   1825 ED 73r44s33        9782 	ldw	(daddc+x),sp		;ED 73r44s33
   1829 ED 73r44s33        9783 	ld	(daddc+x),sp		;ED 73r44s33
   182D DD ED 3Er55        9784 	ldw	(ix+sxofc+x),sp		;DD ED 3Er55
   1831 DD ED 3Er55        9785 	ld	(ix+sxofc+x),sp		;DD ED 3Er55
   1835 DD ED 3Er55        9786 	ldw	sxofc+x(ix),sp		;DD ED 3Er55
   1839 DD ED 3Er55        9787 	ld	sxofc+x(ix),sp		;DD ED 3Er55
   183D FD ED 3Er55        9788 	ldw	(iy+sxofc+x),sp		;FD ED 3Er55
   1841 FD ED 3Er55        9789 	ld	(iy+sxofc+x),sp		;FD ED 3Er55
   1845 FD ED 3Er55        9790 	ldw	sxofc+x(iy),sp		;FD ED 3Er55
   1849 FD ED 3Er55        9791 	ld	sxofc+x(iy),sp		;FD ED 3Er55
                           9809 
                           9810 ;*******************************************************************
                           9811 ;	LDD	
                           9812 ;*******************************************************************
                           9813 	;***********************************************************
                           9814 	; load location (hl)
                           9815 	; with location (de)
                           9816 	; decrement de, hl
                           9817 	; decrement bc
                           9818 	.z80
   184D ED A8              9819 	ldd				;ED A8
                           9820 
                           9821 ;*******************************************************************
                           9822 ;	LDDR	
                           9823 ;*******************************************************************
                           9824 	;***********************************************************
                           9825 	; load location (hl)
                           9826 	; with location (de)
                           9827 	; decrement de, hl
                           9828 	; decrement bc
                           9829 	; repeat until bc = 0
                           9830 	.z80
   184F ED B8              9831 	lddr				;ED B8
                           9832 
                           9833 ;*******************************************************************
                           9834 ;	LDI	
                           9835 ;*******************************************************************
                           9836 	;***********************************************************
                           9837 	; load location (hl)
                           9838 	; with location (de)
                           9839 	; increment de, hl
                           9840 	; decrement bc
                           9841 	.z80
   1851 ED A0              9842 	ldi				;ED A0
                           9843 
                           9844 ;*******************************************************************
                           9845 ;	LDIR	
                           9846 ;*******************************************************************
                           9847 	;***********************************************************
                           9848 	; load location (hl)
                           9849 	; with location (de)
                           9850 	; increment de, hl
                           9851 	; decrement bc
                           9852 	; repeat until bc = 0
                           9853 	.z80
   1853 ED B0              9854 	ldir				;ED B0
                           9855 
                           9856 ;*******************************************************************
                           9857 ;	MULT
                           9858 ;		Leading 'a' operand is optional.
                           9859 ;		If offset is ommitted 0 is assumed.
                           9860 ;*******************************************************************
                           9861 	;***********************************************************
                           9862 	; multiplication with 'a'
                           9863 	;  p. 5-93
                           9864 	.z280
   1855 ED C0              9865 	mult	a,b			;ED C0
   1857 ED C8              9866 	mult	a,c			;ED C8
   1859 ED D0              9867 	mult	a,d			;ED D0
   185B ED D8              9868 	mult	a,e			;ED D8
   185D ED E0              9869 	mult	a,h			;ED E0
   185F ED E8              9870 	mult	a,l			;ED E8
   1861 ED F8              9871 	mult	a,a			;ED F8
   1863 DD ED E0           9872 	mult	a,ixh			;DD ED E0
   1866 DD ED E8           9873 	mult	a,ixl			;DD ED E8
   1869 FD ED E0           9874 	mult	a,iyh			;FD ED E0
   186C FD ED E8           9875 	mult	a,iyl			;FD ED E8
   186F FD ED F8r20        9901 	mult	a,#nc+x			;FD ED F8r20
   1873 DD ED F8r44s33     9902 	mult	a,(daddc+x)		;DD ED F8r44s33
   1878 FD ED C8r55s00     9903 	mult	a,sxofc+x(ix)		;FD ED C8r55s00
   187D FD ED C8r55s00     9904 	mult	a,(ix+sxofc+x)		;FD ED C8r55s00
   1882 FD ED D0r55s00     9905 	mult	a,sxofc+x(iy)		;FD ED D0r55s00
   1887 FD ED D0r55s00     9906 	mult	a,(iy+sxofc+x)		;FD ED D0r55s00
   188C FD ED D8r55s00     9907 	mult	a,sxofc+x(hl)		;FD ED D8r55s00
   1891 FD ED D8r55s00     9908 	mult	a,(hl+sxofc+x)		;FD ED D8r55s00
   1896 DD ED C0r55s00     9909 	mult	a,sxofc+x(sp)		;DD ED C0r55s00
   189B DD ED C0r55s00     9910 	mult	a,(sp+sxofc+x)		;DD ED C0r55s00
   18A0 FD ED C8r22s11     9911 	mult	a,lxofc+x(ix)		;FD ED C8r22s11
   18A5 FD ED C8r22s11     9912 	mult	a,(ix+lxofc+x)		;FD ED C8r22s11
   18AA FD ED D0r22s11     9913 	mult	a,lxofc+x(iy)		;FD ED D0r22s11
   18AF FD ED D0r22s11     9914 	mult	a,(iy+lxofc+x)		;FD ED D0r22s11
   18B4 FD ED D8r22s11     9915 	mult	a,lxofc+x(hl)		;FD ED D8r22s11
   18B9 FD ED D8r22s11     9916 	mult	a,(hl+lxofc+x)		;FD ED D8r22s11
   18BE DD ED C0r22s11     9917 	mult	a,lxofc+x(sp)		;DD ED C0r22s11
   18C3 DD ED C0r22s11     9918 	mult	a,(sp+lxofc+x)		;DD ED C0r22s11
   18C8 DD ED F0 00        9957 	mult	a,(ix)			;DD ED F0 00
   18CC FD ED F0 00        9958 	mult	a,(iy)			;FD ED F0 00
   18D0 ED F0              9959 	mult	a,(hl)			;ED F0
   18D2 FD ED C0p22q11     9978 	mult	a,lxofc+mult01(pc)	;FD ED C0p22q11
   18D7 FD ED C0p22q11     9982 	mult	a,(pc+lxofc+mult02)	;FD ED C0p22q11
   18DC FD ED C0p22q11     9986 	mult	a,[lxofc+mult03]	;FD ED C0p22q11
   18E1 FD ED C0 F6 FF    10043 	mult	a,[.-5]			;FD ED C0 F6 FF
   18E6 DD ED C8          10044 	mult	a,(hl+ix)		;DD ED C8
   18E9 DD ED D0          10045 	mult	a,(hl+iy)		;DD ED D0
   18EC DD ED D8          10046 	mult	a,(ix+iy)		;DD ED D8
                          10047 
                          10048 	;***********************************************************
                          10049 	; multiplication without 'a'
                          10050 	;  p. 5-93
   18EF ED C0             10051 	mult	b			;ED C0
   18F1 ED C8             10052 	mult	c			;ED C8
   18F3 ED D0             10053 	mult	d			;ED D0
   18F5 ED D8             10054 	mult	e			;ED D8
   18F7 ED E0             10055 	mult	h			;ED E0
   18F9 ED E8             10056 	mult	l			;ED E8
   18FB ED F8             10057 	mult	a			;ED F8
   18FD DD ED E0          10058 	mult	ixh			;DD ED E0
   1900 DD ED E8          10059 	mult	ixl			;DD ED E8
   1903 FD ED E0          10060 	mult	iyh			;FD ED E0
   1906 FD ED E8          10061 	mult	iyl			;FD ED E8
   1909 FD ED F8r20       10087 	mult	#nc+x			;FD ED F8r20
   190D DD ED F8r44s33    10088 	mult	(daddc+x)			;DD ED F8r44s33
   1912 FD ED C8r55s00    10089 	mult	sxofc+x(ix)		;FD ED C8r55s00
   1917 FD ED C8r55s00    10090 	mult	(ix+sxofc+x)		;FD ED C8r55s00
   191C FD ED D0r55s00    10091 	mult	sxofc+x(iy)		;FD ED D0r55s00
   1921 FD ED D0r55s00    10092 	mult	(iy+sxofc+x)		;FD ED D0r55s00
   1926 FD ED D8r55s00    10093 	mult	sxofc+x(hl)		;FD ED D8r55s00
   192B FD ED D8r55s00    10094 	mult	(hl+sxofc+x)		;FD ED D8r55s00
   1930 DD ED C0r55s00    10095 	mult	sxofc+x(sp)		;DD ED C0r55s00
   1935 DD ED C0r55s00    10096 	mult	(sp+sxofc+x)		;DD ED C0r55s00
   193A FD ED C8r22s11    10097 	mult	lxofc+x(ix)		;FD ED C8r22s11
   193F FD ED C8r22s11    10098 	mult	(ix+lxofc+x)		;FD ED C8r22s11
   1944 FD ED D0r22s11    10099 	mult	lxofc+x(iy)		;FD ED D0r22s11
   1949 FD ED D0r22s11    10100 	mult	(iy+lxofc+x)		;FD ED D0r22s11
   194E FD ED D8r22s11    10101 	mult	lxofc+x(hl)		;FD ED D8r22s11
   1953 FD ED D8r22s11    10102 	mult	(hl+lxofc+x)		;FD ED D8r22s11
   1958 DD ED C0r22s11    10103 	mult	lxofc+x(sp)		;DD ED C0r22s11
   195D DD ED C0r22s11    10104 	mult	(sp+lxofc+x)		;DD ED C0r22s11
   1962 DD ED F0 00       10143 	mult	(ix)			;DD ED F0 00
   1966 FD ED F0 00       10144 	mult	(iy)			;FD ED F0 00
   196A ED F0             10145 	mult	(hl)			;ED F0
   196C FD ED C0p22q11    10164 	mult	lxofc+mult04(pc)	;FD ED C0p22q11
   1971 FD ED C0p22q11    10168 	mult	(pc+lxofc+mult05)	;FD ED C0p22q11
   1976 FD ED C0p22q11    10172 	mult	[lxofc+mult06]		;FD ED C0p22q11
   197B FD ED C0 F6 FF    10229 	mult	[.-5]			;FD ED C0 F6 FF
   1980 DD ED C8          10230 	mult	(hl+ix)		;DD ED C8
   1983 DD ED D0          10231 	mult	(hl+iy)		;DD ED D0
   1986 DD ED D8          10232 	mult	(ix+iy)		;DD ED D8
                          10233 
                          10234 ;*******************************************************************
                          10235 ;	MULTU	
                          10236 ;		Leading 'a' operand is optional.
                          10237 ;		If offset is ommitted 0 is assumed.
                          10238 ;*******************************************************************
                          10239 	; unsigned multiplication with 'a'
                          10240 	;  p. 5-93
                          10241 	.z280
   1989 ED C1             10242 	multu	a,b			;ED C1
   198B ED C9             10243 	multu	a,c			;ED C9
   198D ED D1             10244 	multu	a,d			;ED D1
   198F ED D9             10245 	multu	a,e			;ED D9
   1991 ED E1             10246 	multu	a,h			;ED E1
   1993 ED E9             10247 	multu	a,l			;ED E9
   1995 ED F9             10248 	multu	a,a			;ED F9
   1997 DD ED E1          10249 	multu	a,ixh			;DD ED E1
   199A DD ED E9          10250 	multu	a,ixl			;DD ED E9
   199D FD ED E1          10251 	multu	a,iyh			;FD ED E1
   19A0 FD ED E9          10252 	multu	a,iyl			;FD ED E9
   19A3 FD ED F9r20       10278 	multu	a,#nc+x			;FD ED F9r20
   19A7 DD ED F9r44s33    10279 	multu	a,(daddc+x)		;DD ED F9r44s33
   19AC FD ED C9r55s00    10280 	multu	a,sxofc+x(ix)		;FD ED C9r55s00
   19B1 FD ED C9r55s00    10281 	multu	a,(ix+sxofc+x)		;FD ED C9r55s00
   19B6 FD ED D1r55s00    10282 	multu	a,sxofc+x(iy)		;FD ED D1r55s00
   19BB FD ED D1r55s00    10283 	multu	a,(iy+sxofc+x)		;FD ED D1r55s00
   19C0 FD ED D9r55s00    10284 	multu	a,sxofc+x(hl)		;FD ED D9r55s00
   19C5 FD ED D9r55s00    10285 	multu	a,(hl+sxofc+x)		;FD ED D9r55s00
   19CA DD ED C1r55s00    10286 	multu	a,sxofc+x(sp)		;DD ED C1r55s00
   19CF DD ED C1r55s00    10287 	multu	a,(sp+sxofc+x)		;DD ED C1r55s00
   19D4 FD ED C9r22s11    10288 	multu	a,lxofc+x(ix)		;FD ED C9r22s11
   19D9 FD ED C9r22s11    10289 	multu	a,(ix+lxofc+x)		;FD ED C9r22s11
   19DE FD ED D1r22s11    10290 	multu	a,lxofc+x(iy)		;FD ED D1r22s11
   19E3 FD ED D1r22s11    10291 	multu	a,(iy+lxofc+x)		;FD ED D1r22s11
   19E8 FD ED D9r22s11    10292 	multu	a,lxofc+x(hl)		;FD ED D9r22s11
   19ED FD ED D9r22s11    10293 	multu	a,(hl+lxofc+x)		;FD ED D9r22s11
   19F2 DD ED C1r22s11    10294 	multu	a,lxofc+x(sp)		;DD ED C1r22s11
   19F7 DD ED C1r22s11    10295 	multu	a,(sp+lxofc+x)		;DD ED C1r22s11
   19FC DD ED F1 00       10334 	multu	a,(ix)			;DD ED F1 00
   1A00 FD ED F1 00       10335 	multu	a,(iy)			;FD ED F1 00
   1A04 ED F1             10336 	multu	a,(hl)			;ED F1
   1A06 DD ED C1 00 00    10337 	multu	a,(sp)			;DD ED C1 00 00
   1A0B FD ED C1p22q11    10356 	multu	a,lxofc+multu01(pc)	;FD ED C1p22q11
   1A10 FD ED C1p22q11    10360 	multu	a,(pc+lxofc+multu02)	;FD ED C1p22q11
   1A15 FD ED C1p22q11    10364 	multu	a,[lxofc+multu03]	;FD ED C1p22q11
   1A1A FD ED C1 F6 FF    10421 	multu	a,[.-5]			;FD ED C1 F6 FF
   1A1F DD ED C9          10422 	multu	a,(hl+ix)		;DD ED C9
   1A22 DD ED D1          10423 	multu	a,(hl+iy)		;DD ED D1
   1A25 DD ED D9          10424 	multu	a,(ix+iy)		;DD ED D9
                          10425 
                          10426 	; unsigned multiplication without 'a'
                          10427 	;  p. 5-93
                          10428 	.z280
   1A28 ED C1             10429 	multu	b			;ED C1
   1A2A ED C9             10430 	multu	c			;ED C9
   1A2C ED D1             10431 	multu	d			;ED D1
   1A2E ED D9             10432 	multu	e			;ED D9
   1A30 ED E1             10433 	multu	h			;ED E1
   1A32 ED E9             10434 	multu	l			;ED E9
   1A34 ED F9             10435 	multu	a			;ED F9
   1A36 DD ED E1          10436 	multu	ixh			;DD ED E1
   1A39 DD ED E9          10437 	multu	ixl			;DD ED E9
   1A3C FD ED E1          10438 	multu	iyh			;FD ED E1
   1A3F FD ED E9          10439 	multu	iyl			;FD ED E9
   1A42 FD ED F9r20       10465 	multu	#nc+x			;FD ED F9r20
   1A46 DD ED F9r44s33    10466 	multu	(daddc+x)			;DD ED F9r44s33
   1A4B FD ED C9r55s00    10467 	multu	sxofc+x(ix)		;FD ED C9r55s00
   1A50 FD ED C9r55s00    10468 	multu	(ix+sxofc+x)		;FD ED C9r55s00
   1A55 FD ED D1r55s00    10469 	multu	sxofc+x(iy)		;FD ED D1r55s00
   1A5A FD ED D1r55s00    10470 	multu	(iy+sxofc+x)		;FD ED D1r55s00
   1A5F FD ED D9r55s00    10471 	multu	sxofc+x(hl)		;FD ED D9r55s00
   1A64 FD ED D9r55s00    10472 	multu	(hl+sxofc+x)		;FD ED D9r55s00
   1A69 DD ED C1r55s00    10473 	multu	sxofc+x(sp)		;DD ED C1r55s00
   1A6E DD ED C1r55s00    10474 	multu	(sp+sxofc+x)		;DD ED C1r55s00
   1A73 FD ED C9r22s11    10475 	multu	lxofc+x(ix)		;FD ED C9r22s11
   1A78 FD ED C9r22s11    10476 	multu	(ix+lxofc+x)		;FD ED C9r22s11
   1A7D FD ED D1r22s11    10477 	multu	lxofc+x(iy)		;FD ED D1r22s11
   1A82 FD ED D1r22s11    10478 	multu	(iy+lxofc+x)		;FD ED D1r22s11
   1A87 FD ED D9r22s11    10479 	multu	lxofc+x(hl)		;FD ED D9r22s11
   1A8C FD ED D9r22s11    10480 	multu	(hl+lxofc+x)		;FD ED D9r22s11
   1A91 DD ED C1r22s11    10481 	multu	lxofc+x(sp)		;DD ED C1r22s11
   1A96 DD ED C1r22s11    10482 	multu	(sp+lxofc+x)		;DD ED C1r22s11
   1A9B DD ED F1 00       10521 	multu	(ix)			;DD ED F1 00
   1A9F FD ED F1 00       10522 	multu	(iy)			;FD ED F1 00
   1AA3 ED F1             10523 	multu	(hl)			;ED F1
   1AA5 DD ED C1 00 00    10524 	multu	(sp)			;DD ED C1 00 00
   1AAA FD ED C1p22q11    10543 	multu	lxofc+multu04(pc)	;FD ED C1p22q11
   1AAF FD ED C1p22q11    10547 	multu	(pc+lxofc+multu05)	;FD ED C1p22q11
   1AB4 FD ED C1p22q11    10551 	multu	[lxofc+multu06]		;FD ED C1p22q11
   1AB9 FD ED C1 F6 FF    10608 	multu	[.-5]			;FD ED C1 F6 FF
   1ABE DD ED C9          10609 	multu	(hl+ix)			;DD ED C9
   1AC1 DD ED D1          10610 	multu	(hl+iy)			;DD ED D1
   1AC4 DD ED D9          10611 	multu	(ix+iy)			;DD ED D9
                          10612 
                          10613 ;*******************************************************************
                          10614 ;	MULTUW	
                          10615 ;*******************************************************************
                          10616 	; unsigned word multiplication
                          10617 	;  p. 5-93
                          10618 	.z280
   1AC7 ED C3             10619 	multuw	hl,bc			;ED C3
   1AC9 ED D3             10620 	multuw	hl,de			;ED D3
   1ACB ED E3             10621 	multuw	hl,hl			;ED E3
   1ACD ED F3             10622 	multuw	hl,sp			;ED F3
   1ACF DD ED E3          10623 	multuw	hl,ix			;DD ED E3
   1AD2 FD ED E3          10624 	multuw	hl,iy			;FD ED E3
   1AD5 FD ED F3r20s00    10642 	multuw	hl,#nc+x			;FD ED F3r20s00
   1ADA FD ED F3r84s05    10643 	multuw	hl,#nnc+x			;FD ED F3r84s05
   1ADF FD ED C3r55s00    10644 	multuw	hl,sxofc+x(ix)		;FD ED C3r55s00
   1AE4 FD ED C3r55s00    10645 	multuw	hl,(ix+sxofc+x)		;FD ED C3r55s00
   1AE9 FD ED D3r55s00    10646 	multuw	hl,sxofc+x(iy)		;FD ED D3r55s00
   1AEE FD ED D3r55s00    10647 	multuw	hl,(iy+sxofc+x)		;FD ED D3r55s00
   1AF3 FD ED C3r22s11    10648 	multuw	hl,lxofc+x(ix)		;FD ED C3r22s11
   1AF8 FD ED C3r22s11    10649 	multuw	hl,(ix+lxofc+x)		;FD ED C3r22s11
   1AFD FD ED D3r22s11    10650 	multuw	hl,lxofc+x(iy)		;FD ED D3r22s11
   1B02 FD ED D3r22s11    10651 	multuw	hl,(iy+lxofc+x)		;FD ED D3r22s11
   1B07 DD ED C3          10669 	multuw	hl,(hl)			;DD ED C3
   1B0A FD ED C3 00 00    10670 	multuw	hl,(ix)			;FD ED C3 00 00
   1B0F FD ED D3 00 00    10671 	multuw	hl,(iy)			;FD ED D3 00 00
   1B14 DD ED F3p22q11    10690 	multuw	hl,lxofc+multuw01(pc)	;DD ED F3p22q11
   1B19 DD ED F3p22q11    10694 	multuw	hl,(pc+lxofc+multuw02)	;DD ED F3p22q11
   1B1E DD ED F3p22q11    10698 	multuw	hl,[lxofc+multuw03]	;DD ED F3p22q11
   1B23 DD ED F3 1B 00    10755 	multuw	hl,[.+nc]		;DD ED F3 1B 00
                          10756 
                          10757 ;*******************************************************************
                          10758 ;	MULTW	
                          10759 ;*******************************************************************
                          10760 	; word multiplication
                          10761 	;  p. 5-93
                          10762 	.z280
   1B28 ED C2             10763 	multw	hl,bc			;ED C2
   1B2A ED D2             10764 	multw	hl,de			;ED D2
   1B2C ED E2             10765 	multw	hl,hl			;ED E2
   1B2E ED F2             10766 	multw	hl,sp			;ED F2
   1B30 DD ED E2          10767 	multw	hl,ix			;DD ED E2
   1B33 FD ED E2          10768 	multw	hl,iy			;FD ED E2
   1B36 FD ED F2r20s00    10787 	multw	hl,#nc+x			;FD ED F2r20s00
   1B3B FD ED F2r84s05    10788 	multw	hl,#nnc+x			;FD ED F2r84s05
   1B40 DD ED D2r44s33    10789 	multw	hl,(daddc+x)		;DD ED D2r44s33
   1B45 FD ED C2r55s00    10790 	multw	hl,sxofc+x(ix)		;FD ED C2r55s00
   1B4A FD ED C2r55s00    10791 	multw	hl,(ix+sxofc+x)		;FD ED C2r55s00
   1B4F FD ED D2r55s00    10792 	multw	hl,sxofc+x(iy)		;FD ED D2r55s00
   1B54 FD ED D2r55s00    10793 	multw	hl,(iy+sxofc+x)		;FD ED D2r55s00
   1B59 FD ED C2r22s11    10794 	multw	hl,lxofc+x(ix)		;FD ED C2r22s11
   1B5E FD ED C2r22s11    10795 	multw	hl,(ix+lxofc+x)		;FD ED C2r22s11
   1B63 FD ED D2r22s11    10796 	multw	hl,lxofc+x(iy)		;FD ED D2r22s11
   1B68 FD ED D2r22s11    10797 	multw	hl,(iy+lxofc+x)		;FD ED D2r22s11
   1B6D DD ED C2          10816 	multw	hl,(hl)			;DD ED C2
   1B70 FD ED C2 00 00    10817 	multw	hl,(ix)			;FD ED C2 00 00
   1B75 FD ED D2 00 00    10818 	multw	hl,(iy)			;FD ED D2 00 00
   1B7A DD ED F2p22q11    10837 	multw	hl,lxofc+multw01(pc)	;DD ED F2p22q11
   1B7F DD ED F2p22q11    10841 	multw	hl,(pc+lxofc+multw02)	;DD ED F2p22q11
   1B84 DD ED F2p22q11    10845 	multw	hl,[lxofc+multw03]	;DD ED F2p22q11
   1B89 DD ED F2 1B 00    10902 	multw	hl,[.+nc]		;DD ED F2 1B 00
                          10903 
                          10904 ;*******************************************************************
                          10905 ;	NEG	
                          10906 ;*******************************************************************
                          10907 	;***********************************************************
                          10908 	; 2's complement of 'a'
                          10909 	.z80
   1B8E ED 44             10910 	neg				;ED 44
   1B90 ED 44             10911 	neg	a			;ED 44
                          10912 	.z280
   1B92 ED 4C             10913 	neg	hl			;ED 4C
                          10914 
                          10915 ;*******************************************************************
                          10916 ;	NOP	
                          10917 ;*******************************************************************
                          10918 	;***********************************************************
                          10919 	; no operation
                          10920 	.z80
   1B94 00                10921 	nop				;00
                          10922 
                          10923 ;*******************************************************************
                          10924 ;	OR	
                          10925 ;		Leading 'a' operand is optional.
                          10926 ;		If offset is ommitted 0 is assumed.
                          10927 ;*******************************************************************
                          10928 	;***********************************************************
                          10929 	; logical 'or' operand with 'a'
                          10930 	.z80
   1B95 B6                10931 	or	a,(hl)			;B6
   1B96 F6r20             10945 	or	a,#nc+x			;F6r20
   1B98 F6r20             10946 	or	a, nc+x			;F6r20
   1B9A DD B6r55          10947 	or	a,offsetc+x(ix)		;DD B6r55
   1B9D FD B6r55          10948 	or	a,offsetc+x(iy)		;FD B6r55
   1BA0 DD B6r55          10949 	or	a,(ix+offsetc+x)		;DD B6r55
   1BA3 FD B6r55          10950 	or	a,(iy+offsetc+x)		;FD B6r55
   1BA6 B7                10964 	or	a,a			;B7
   1BA7 B0                10965 	or	a,b			;B0
   1BA8 B1                10966 	or	a,c			;B1
   1BA9 B2                10967 	or	a,d			;B2
   1BAA B3                10968 	or	a,e			;B3
   1BAB B4                10969 	or	a,h			;B4
   1BAC B5                10970 	or	a,l			;B5
                          10971 	;***********************************************************
                          10972 	;  p. 5-100
                          10973 	.z280
   1BAD DD B1             10974 	or	a,(hl+ix)		;DD B1
   1BAF DD B2             10975 	or	a,(hl+iy)		;DD B2
   1BB1 DD B3             10976 	or	a,(ix+iy)		;DD B3
   1BB3 DD B7r44s33       11001 	or	a,(daddc+x)		;DD B7r44s33
   1BB7 FD B1r55s00       11002 	or	a,sxofc+x(ix)		;FD B1r55s00
   1BBB FD B1r55s00       11003 	or	a,(ix+sxofc+x)		;FD B1r55s00
   1BBF FD B2r55s00       11004 	or	a,sxofc+x(iy)		;FD B2r55s00
   1BC3 FD B2r55s00       11005 	or	a,(iy+sxofc+x)		;FD B2r55s00
   1BC7 FD B3r55s00       11006 	or	a,sxofc+x(hl)		;FD B3r55s00
   1BCB FD B3r55s00       11007 	or	a,(hl+sxofc+x)		;FD B3r55s00
   1BCF DD B0r55s00       11008 	or	a,sxofc+x(sp)		;DD B0r55s00
   1BD3 DD B0r55s00       11009 	or	a,(sp+sxofc+x)		;DD B0r55s00
   1BD7 FD B1r22s11       11010 	or	a,lxofc+x(ix)		;FD B1r22s11
   1BDB FD B1r22s11       11011 	or	a,(ix+lxofc+x)		;FD B1r22s11
   1BDF FD B2r22s11       11012 	or	a,lxofc+x(iy)		;FD B2r22s11
   1BE3 FD B2r22s11       11013 	or	a,(iy+lxofc+x)		;FD B2r22s11
   1BE7 FD B3r22s11       11014 	or	a,lxofc+x(hl)		;FD B3r22s11
   1BEB FD B3r22s11       11015 	or	a,(hl+lxofc+x)		;FD B3r22s11
   1BEF DD B0r22s11       11016 	or	a,lxofc+x(sp)		;DD B0r22s11
   1BF3 DD B0r22s11       11017 	or	a,(sp+lxofc+x)		;DD B0r22s11
   1BF7 FD B0p22q11       11069 	or	a,lxofc+or01(pc)	;FD B0p22q11
   1BFB FD B0p22q11       11073 	or	a,(pc+lxofc+or02)	;FD B0p22q11
   1BFF FD B0p22q11       11077 	or	a,[lxofc+or03]		;FD B0p22q11
   1C03 FD B0 1E 11       11134 	or	a,[.+lxofc]		;FD B0 1E 11
   1C07 DD B4             11135 	or	a,ixh			;DD B4
   1C09 DD B5             11136 	or	a,ixl			;DD B5
   1C0B FD B4             11137 	or	a,iyh			;FD B4
   1C0D FD B5             11138 	or	a,iyl			;FD B5
                          11139 
                          11140 	;***********************************************************
                          11141 	; logical 'or' operand without 'a'
                          11142 	.z80
   1C0F B6                11143 	or	a,(hl)			;B6
   1C10 F6r20             11157 	or	#nc+x			;F6r20
   1C12 F6r20             11158 	or	 nc+x			;F6r20
   1C14 DD B6r55          11159 	or	offsetc+x(ix)		;DD B6r55
   1C17 FD B6r55          11160 	or	offsetc+x(iy)		;FD B6r55
   1C1A DD B6r55          11161 	or	(ix+offsetc+x)		;DD B6r55
   1C1D FD B6r55          11162 	or	(iy+offsetc+x)		;FD B6r55
   1C20 B7                11176 	or	a			;B7
   1C21 B0                11177 	or	b			;B0
   1C22 B1                11178 	or	c			;B1
   1C23 B2                11179 	or	d			;B2
   1C24 B3                11180 	or	e			;B3
   1C25 B4                11181 	or	h			;B4
   1C26 B5                11182 	or	l			;B5
                          11183 	;***********************************************************
                          11184 	;  p. 5-100
                          11185 	.z280
   1C27 DD B1             11186 	or	(hl+ix)		;DD B1
   1C29 DD B2             11187 	or	(hl+iy)		;DD B2
   1C2B DD B3             11188 	or	(ix+iy)		;DD B3
   1C2D DD B7r44s33       11213 	or	(daddc+x)			;DD B7r44s33
   1C31 FD B1r55s00       11214 	or	sxofc+x(ix)		;FD B1r55s00
   1C35 FD B1r55s00       11215 	or	(ix+sxofc+x)		;FD B1r55s00
   1C39 FD B2r55s00       11216 	or	sxofc+x(iy)		;FD B2r55s00
   1C3D FD B2r55s00       11217 	or	(iy+sxofc+x)		;FD B2r55s00
   1C41 DD B0r55s00       11218 	or	sxofc+x(sp)		;DD B0r55s00
   1C45 DD B0r55s00       11219 	or	(sp+sxofc+x)		;DD B0r55s00
   1C49 FD B3r55s00       11220 	or	sxofc+x(hl)		;FD B3r55s00
   1C4D FD B3r55s00       11221 	or	(hl+sxofc+x)		;FD B3r55s00
   1C51 FD B1r22s11       11222 	or	lxofc+x(ix)		;FD B1r22s11
   1C55 FD B1r22s11       11223 	or	(ix+lxofc+x)		;FD B1r22s11
   1C59 FD B2r22s11       11224 	or	lxofc+x(iy)		;FD B2r22s11
   1C5D FD B2r22s11       11225 	or	(iy+lxofc+x)		;FD B2r22s11
   1C61 FD B3r22s11       11226 	or	lxofc+x(hl)		;FD B3r22s11
   1C65 FD B3r22s11       11227 	or	(hl+lxofc+x)		;FD B3r22s11
   1C69 DD B0r22s11       11228 	or	lxofc+x(sp)		;DD B0r22s11
   1C6D DD B0r22s11       11229 	or	(sp+lxofc+x)		;DD B0r22s11
   1C71 FD B0p22q11       11285 	or	lxofc+or04(pc)		;FD B0p22q11
   1C75 FD B0p22q11       11289 	or	(pc+lxofc+or05)		;FD B0p22q11
   1C79 FD B0p22q11       11293 	or	[lxofc+or06]		;FD B0p22q11
   1C7D FD B0 1E 11       11350 	or	[.+lxofc]		;FD B0 1E 11
   1C81 DD B4             11351 	or	ixh			;DD B4
   1C83 DD B5             11352 	or	ixl			;DD B5
   1C85 FD B4             11353 	or	iyh			;FD B4
   1C87 FD B5             11354 	or	iyl			;FD B5
                          11355 
                          11356 ;*******************************************************************
                          11357 ;	OTDR	
                          11358 ;*******************************************************************
                          11359 	;***********************************************************
                          11360 	; load output port (c)
                          11361 	; with location (hl)
                          11362 	; decrement hl and decrement b
                          11363 	; repeat until b = 0
                          11364 	.z80
   1C89 ED BB             11365 	otdr				;ED BB
                          11366 
                          11367 ;*******************************************************************
                          11368 ;	OTIR	
                          11369 ;*******************************************************************
                          11370 	;***********************************************************
                          11371 	; load output port (c)
                          11372 	; with location (hl)
                          11373 	; increment hl and decrement b
                          11374 	; repeat until b = 0
                          11375 	.z80
   1C8B ED B3             11376 	otir				;ED B3
                          11377 
                          11378 ;*******************************************************************
                          11379 ;	OUT	
                          11380 ;*******************************************************************
                          11381 	;***********************************************************
                          11382 	; load output port (c) with reg
                          11383 	.z80
   1C8D ED 79             11384 	out	(c),a			;ED 79
   1C8F ED 41             11385 	out	(c),b			;ED 41
   1C91 ED 49             11386 	out	(c),c			;ED 49
   1C93 ED 51             11387 	out	(c),d			;ED 51
   1C95 ED 59             11388 	out	(c),e			;ED 59
   1C97 ED 61             11389 	out	(c),h			;ED 61
   1C99 ED 69             11390 	out	(c),l			;ED 69
                          11391 	;***********************************************************
                          11392 	;  p. 5-105
                          11393 	.z280
   1C9B DD ED 69          11394 	out	(c),ixl			;DD ED 69
   1C9E DD ED 61          11395 	out	(c),ixh			;DD ED 61
   1CA1 FD ED 69          11396 	out	(c),iyl			;FD ED 69
   1CA4 FD ED 61          11397 	out	(c),iyh			;FD ED 61
   1CA7 DD ED 79r44s33    11422 	out	(c),(daddc+x)		;DD ED 79r44s33
   1CAC FD ED 59r55s00    11423 	out	(c),sxofc+x(hl)		;FD ED 59r55s00
   1CB1 FD ED 59r55s00    11424 	out	(c),(hl+sxofc+x)		;FD ED 59r55s00
   1CB6 FD ED 59r22s11    11425 	out	(c),lxofc+x(hl)		;FD ED 59r22s11
   1CBB FD ED 59r22s11    11426 	out	(c),(hl+lxofc+x)		;FD ED 59r22s11
   1CC0 FD ED 49r55s00    11427 	out	(c),sxofc+x(ix)		;FD ED 49r55s00
   1CC5 FD ED 49r55s00    11428 	out	(c),(ix+sxofc+x)		;FD ED 49r55s00
   1CCA FD ED 49r22s11    11429 	out	(c),lxofc+x(ix)		;FD ED 49r22s11
   1CCF FD ED 49r22s11    11430 	out	(c),(ix+lxofc+x)		;FD ED 49r22s11
   1CD4 FD ED 51r55s00    11431 	out	(c),sxofc+x(iy)		;FD ED 51r55s00
   1CD9 FD ED 51r55s00    11432 	out	(c),(iy+sxofc+x)		;FD ED 51r55s00
   1CDE FD ED 51r22s11    11433 	out	(c),lxofc+x(iy)		;FD ED 51r22s11
   1CE3 FD ED 51r22s11    11434 	out	(c),(iy+lxofc+x)		;FD ED 51r22s11
   1CE8 DD ED 41r55s00    11435 	out	(c),offsetc+x(sp)		;DD ED 41r55s00
   1CED DD ED 41r55s00    11436 	out	(c),(sp+offsetc+x)		;DD ED 41r55s00
   1CF2 DD ED 41r22s11    11437 	out	(c),lxofc+x(sp)		;DD ED 41r22s11
   1CF7 DD ED 41r22s11    11438 	out	(c),(sp+lxofc+x)		;DD ED 41r22s11
   1CFC FD ED 41p22q11    11481 	out	(c),lxofc+out01(pc)	;FD ED 41p22q11
   1D01 FD ED 41p22q11    11485 	out	(c),(pc+lxofc+out02)	;FD ED 41p22q11
   1D06 FD ED 41p22q11    11489 	out	(c),[lxofc+out03]	;FD ED 41p22q11
   1D0B FD ED 41 50 00    11546 	out	(c),[.+offsetc]		;FD ED 41 50 00
   1D10 DD ED 49          11547 	out	(c),(hl+ix)		;DD ED 49
   1D13 DD ED 51          11548 	out	(c),(hl+iy)		;DD ED 51
   1D16 DD ED 59          11549 	out	(c),(ix+iy)		;DD ED 59
                          11550 	;***********************************************************
                          11551 	; load output port (n) with 'a'
                          11552 	.z80
   1D19 D3r20             11562 	out	(nc+x),a			;D3r20
   1D1B D3r20             11563 	out	nc+x,a			;D3r20
                          11573 
                          11574 ;*******************************************************************
                          11575 ;	OUTD	
                          11576 ;*******************************************************************
                          11577 	;***********************************************************
                          11578 	; load output port (c)
                          11579 	; with location (hl)
                          11580 	; decrement hl and decrement b
                          11581 	.z80
   1D1D ED AB             11582 	outd				;ED AB
                          11583 
                          11584 ;*******************************************************************
                          11585 ;	OUTI	
                          11586 ;*******************************************************************
                          11587 	;***********************************************************
                          11588 	; load output port (c)
                          11589 	; with location (hl)
                          11590 	; increment hl and decrement b
                          11591 	.z80
   1D1F ED A3             11592 	outi				;ED A3
                          11593 
                          11594 ;*******************************************************************
                          11595 ;	OUTDW	
                          11596 ;*******************************************************************
                          11597 	;***********************************************************
                          11598 	.z280
   1D21 ED 8B             11599 	outdw				;ED 8B
   1D23 ED 83             11600 	outiw				;ED 83
   1D25 ED 9B             11601 	otdrw				;ED 9B
   1D27 ED 93             11602 	otirw				;ED 93
                          11603 
                          11604 ;*******************************************************************
                          11605 ;	OUTW	
                          11606 ;*******************************************************************
                          11607 	;***********************************************************
                          11608 	;  p. 5-110	output to word port
                          11609 	.z280
   1D29 ED BF             11610 	out	(c),hl			;ED BF
   1D2B ED BF             11611 	outw	(c),hl			;ED BF
                          11612 
                          11613 ;*******************************************************************
                          11614 ;	PCACHE	
                          11615 ;*******************************************************************
                          11616 	;***********************************************************
                          11617 	;  p. 5-111    NOT privileged
                          11618 	.z280
   1D2D ED 65             11619 	pcache				;ED 65
                          11620 
                          11621 ;*******************************************************************
                          11622 ;	POP	
                          11623 ;*******************************************************************
                          11624 	;***********************************************************
                          11625 	; load destination with top of stack
                          11626 	.z80
   1D2F F1                11627 	pop	af			;F1
   1D30 C1                11628 	pop	bc			;C1
   1D31 D1                11629 	pop	de			;D1
   1D32 E1                11630 	pop	hl			;E1
   1D33 DD E1             11631 	pop	ix			;DD E1
   1D35 FD E1             11632 	pop	iy			;FD E1
                          11633 	.z280
   1D37 DD D1r44s33       11642 	pop	(daddc+x)			;DD D1r44s33
   1D3B DD F1p22q11       11669 	pop	lxofc+pop01(pc)		;DD F1p22q11
   1D3F DD F1p22q11       11673 	pop	(pc+lxofc+pop02)	;DD F1p22q11
   1D43 DD F1p22q11       11677 	pop	[lxofc+pop03]		;DD F1p22q11
   1D47 DD F1 1E 11       11734 	pop	[.+lxofc]		;DD F1 1E 11
   1D4B DD C1             11735 	pop	(hl)			;DD C1
                          11736 
                          11737 ;*******************************************************************
                          11738 ;	PUSH	
                          11739 ;*******************************************************************
                          11740 	;***********************************************************
                          11741 	; put source on stack
                          11742 	.z80
   1D4D F5                11743 	push	af			;F5
   1D4E C5                11744 	push	bc			;C5
   1D4F D5                11745 	push	de			;D5
   1D50 E5                11746 	push	hl			;E5
   1D51 DD E5             11747 	push	ix			;DD E5
   1D53 FD E5             11748 	push	iy			;FD E5
                          11749 	.z280
   1D55 DD D5r44s33       11759 	push	(daddc+x)			;DD D5r44s33
   1D59 FD F5r84s05       11760 	push	#nnc+x			;FD F5r84s05
   1D5D DD F5p22q11       11788 	push	lxofc+push01(pc)	;DD F5p22q11
   1D61 DD F5p22q11       11792 	push	(pc+lxofc+push02)	;DD F5p22q11
   1D65 DD F5p22q11       11796 	push	[lxofc+push03]		;DD F5p22q11
   1D69 DD F5 1E 11       11853 	push	[.+lxofc]		;DD F5 1E 11
   1D6D DD C5             11854 	push	(hl)			;DD C5
                          11855 
                          11856 ;*******************************************************************
                          11857 ;	RES	
                          11858 ;*******************************************************************
                          11859 	;***********************************************************
                          11860 	; reset bit of location or register
                          11861 	.z80
   1D6F CB 86             11862 	res	0,(hl)			;CB 86
   1D71 DD CBr55 86       11874 	res	0,offsetc+x(ix)		;DD CBr55 86
   1D75 FD CBr55 86       11875 	res	0,offsetc+x(iy)		;FD CBr55 86
   1D79 DD CBr55 86       11876 	res	0,(ix+offsetc+x)		;DD CBr55 86
   1D7D FD CBr55 86       11877 	res	0,(iy+offsetc+x)		;FD CBr55 86
   1D81 CB 87             11889 	res	0,a			;CB 87
   1D83 CB 80             11890 	res	0,b			;CB 80
   1D85 CB 81             11891 	res	0,c			;CB 81
   1D87 CB 82             11892 	res	0,d			;CB 82
   1D89 CB 83             11893 	res	0,e			;CB 83
   1D8B CB 84             11894 	res	0,h			;CB 84
   1D8D CB 85             11895 	res	0,l			;CB 85
   1D8F CB 8E             11896 	res	1,(hl)			;CB 8E
   1D91 DD CBr55 8E       11908 	res	1,offsetc+x(ix)		;DD CBr55 8E
   1D95 FD CBr55 8E       11909 	res	1,offsetc+x(iy)		;FD CBr55 8E
   1D99 DD CBr55 8E       11910 	res	1,(ix+offsetc+x)		;DD CBr55 8E
   1D9D FD CBr55 8E       11911 	res	1,(iy+offsetc+x)		;FD CBr55 8E
   1DA1 CB 8F             11923 	res	1,a			;CB 8F
   1DA3 CB 88             11924 	res	1,b			;CB 88
   1DA5 CB 89             11925 	res	1,c			;CB 89
   1DA7 CB 8A             11926 	res	1,d			;CB 8A
   1DA9 CB 8B             11927 	res	1,e			;CB 8B
   1DAB CB 8C             11928 	res	1,h			;CB 8C
   1DAD CB 8D             11929 	res	1,l			;CB 8D
   1DAF CB 96             11930 	res	2,(hl)			;CB 96
   1DB1 DD CBr55 96       11942 	res	2,offsetc+x(ix)		;DD CBr55 96
   1DB5 FD CBr55 96       11943 	res	2,offsetc+x(iy)		;FD CBr55 96
   1DB9 DD CBr55 96       11944 	res	2,(ix+offsetc+x)		;DD CBr55 96
   1DBD FD CBr55 96       11945 	res	2,(iy+offsetc+x)		;FD CBr55 96
   1DC1 CB 97             11957 	res	2,a			;CB 97
   1DC3 CB 90             11958 	res	2,b			;CB 90
   1DC5 CB 91             11959 	res	2,c			;CB 91
   1DC7 CB 92             11960 	res	2,d			;CB 92
   1DC9 CB 93             11961 	res	2,e			;CB 93
   1DCB CB 94             11962 	res	2,h			;CB 94
   1DCD CB 95             11963 	res	2,l			;CB 95
   1DCF CB 9E             11964 	res	3,(hl)			;CB 9E
   1DD1 DD CBr55 9E       11976 	res	3,offsetc+x(ix)		;DD CBr55 9E
   1DD5 FD CBr55 9E       11977 	res	3,offsetc+x(iy)		;FD CBr55 9E
   1DD9 DD CBr55 9E       11978 	res	3,(ix+offsetc+x)		;DD CBr55 9E
   1DDD FD CBr55 9E       11979 	res	3,(iy+offsetc+x)		;FD CBr55 9E
   1DE1 CB 9F             11991 	res	3,a			;CB 9F
   1DE3 CB 98             11992 	res	3,b			;CB 98
   1DE5 CB 99             11993 	res	3,c			;CB 99
   1DE7 CB 9A             11994 	res	3,d			;CB 9A
   1DE9 CB 9B             11995 	res	3,e			;CB 9B
   1DEB CB 9C             11996 	res	3,h			;CB 9C
   1DED CB 9D             11997 	res	3,l			;CB 9D
   1DEF CB A6             11998 	res	4,(hl)			;CB A6
   1DF1 DD CBr55 A6       12010 	res	4,offsetc+x(ix)		;DD CBr55 A6
   1DF5 FD CBr55 A6       12011 	res	4,offsetc+x(iy)		;FD CBr55 A6
   1DF9 DD CBr55 A6       12012 	res	4,(ix+offsetc+x)		;DD CBr55 A6
   1DFD FD CBr55 A6       12013 	res	4,(iy+offsetc+x)		;FD CBr55 A6
   1E01 CB A7             12025 	res	4,a			;CB A7
   1E03 CB A0             12026 	res	4,b			;CB A0
   1E05 CB A1             12027 	res	4,c			;CB A1
   1E07 CB A2             12028 	res	4,d			;CB A2
   1E09 CB A3             12029 	res	4,e			;CB A3
   1E0B CB A4             12030 	res	4,h			;CB A4
   1E0D CB A5             12031 	res	4,l			;CB A5
   1E0F CB AE             12032 	res	5,(hl)			;CB AE
   1E11 DD CBr55 AE       12044 	res	5,offsetc+x(ix)		;DD CBr55 AE
   1E15 FD CBr55 AE       12045 	res	5,offsetc+x(iy)		;FD CBr55 AE
   1E19 DD CBr55 AE       12046 	res	5,(ix+offsetc+x)		;DD CBr55 AE
   1E1D FD CBr55 AE       12047 	res	5,(iy+offsetc+x)		;FD CBr55 AE
   1E21 CB AF             12059 	res	5,a			;CB AF
   1E23 CB A8             12060 	res	5,b			;CB A8
   1E25 CB A9             12061 	res	5,c			;CB A9
   1E27 CB AA             12062 	res	5,d			;CB AA
   1E29 CB AB             12063 	res	5,e			;CB AB
   1E2B CB AC             12064 	res	5,h			;CB AC
   1E2D CB AD             12065 	res	5,l			;CB AD
   1E2F CB B6             12066 	res	6,(hl)			;CB B6
   1E31 DD CBr55 B6       12078 	res	6,offsetc+x(ix)		;DD CBr55 B6
   1E35 FD CBr55 B6       12079 	res	6,offsetc+x(iy)		;FD CBr55 B6
   1E39 DD CBr55 B6       12080 	res	6,(ix+offsetc+x)		;DD CBr55 B6
   1E3D FD CBr55 B6       12081 	res	6,(iy+offsetc+x)		;FD CBr55 B6
   1E41 CB B7             12093 	res	6,a			;CB B7
   1E43 CB B0             12094 	res	6,b			;CB B0
   1E45 CB B1             12095 	res	6,c			;CB B1
   1E47 CB B2             12096 	res	6,d			;CB B2
   1E49 CB B3             12097 	res	6,e			;CB B3
   1E4B CB B4             12098 	res	6,h			;CB B4
   1E4D CB B5             12099 	res	6,l			;CB B5
   1E4F CB BE             12100 	res	7,(hl)			;CB BE
   1E51 DD CBr55 BE       12112 	res	7,offsetc+x(ix)		;DD CBr55 BE
   1E55 FD CBr55 BE       12113 	res	7,offsetc+x(iy)		;FD CBr55 BE
   1E59 DD CBr55 BE       12114 	res	7,(ix+offsetc+x)		;DD CBr55 BE
   1E5D FD CBr55 BE       12115 	res	7,(iy+offsetc+x)		;FD CBr55 BE
   1E61 CB BF             12127 	res	7,a			;CB BF
   1E63 CB B8             12128 	res	7,b			;CB B8
   1E65 CB B9             12129 	res	7,c			;CB B9
   1E67 CB BA             12130 	res	7,d			;CB BA
   1E69 CB BB             12131 	res	7,e			;CB BB
   1E6B CB BC             12132 	res	7,h			;CB BC
   1E6D CB BD             12133 	res	7,l			;CB BD
                          12134 
                          12135 ;*******************************************************************
                          12136 ;	RET	
                          12137 ;*******************************************************************
                          12138 	;***********************************************************
                          12139 	; return from subroutine
                          12140 	.z80
   1E6F C9                12141 	ret				;C9
                          12142 	;***********************************************************
                          12143 	; return from subroutine if condition is true
   1E70 D8                12144 	ret	C			;D8
   1E71 F8                12145 	ret	M			;F8
   1E72 D0                12146 	ret	NC			;D0
   1E73 C0                12147 	ret	NZ			;C0
   1E74 F0                12148 	ret	P			;F0
   1E75 E8                12149 	ret	PE			;E8
   1E76 E0                12150 	ret	PO			;E0
   1E77 C8                12151 	ret	Z			;C8
                          12152 
                          12153 ;*******************************************************************
                          12154 ;	RETI	
                          12155 ;*******************************************************************
                          12156 	;***********************************************************
                          12157 	; return from interrupt (privileged)
                          12158 	.z80
   1E78 ED 4D             12159 	reti				;ED 4D
                          12160 
                          12161 ;*******************************************************************
                          12162 ;	RETN	
                          12163 ;*******************************************************************
                          12164 	;***********************************************************
                          12165 	; return from non-maskable interrupt (privileged)
                          12166 	.z80
   1E7A ED 45             12167 	retn				;ED 45
                          12168 
                          12169 ;*******************************************************************
                          12170 ;	RETIL	
                          12171 ;*******************************************************************
                          12172 	;***********************************************************
                          12173 	; return from interrupt (long)
                          12174 	.z280p
   1E7C ED 55             12175 	retil				;ED 55
                          12176 
                          12177 ;*******************************************************************
                          12178 ;	RL	
                          12179 ;*******************************************************************
                          12224 	;***********************************************************
                          12225 	; rotate left through carry
                          12226 	.z80
   1E7E CB 16             12227 	rl	(hl)			;CB 16
   1E80 DD CBr55 16       12239 	rl	offsetc+x(ix)		;DD CBr55 16
   1E84 FD CBr55 16       12240 	rl	offsetc+x(iy)		;FD CBr55 16
   1E88 DD CBr55 16       12241 	rl	(ix+offsetc+x)		;DD CBr55 16
   1E8C FD CBr55 16       12242 	rl	(iy+offsetc+x)		;FD CBr55 16
   1E90 CB 17             12254 	rl	a			;CB 17
   1E92 CB 10             12255 	rl	b			;CB 10
   1E94 CB 11             12256 	rl	c			;CB 11
   1E96 CB 12             12257 	rl	d			;CB 12
   1E98 CB 13             12258 	rl	e			;CB 13
   1E9A CB 14             12259 	rl	h			;CB 14
   1E9C CB 15             12260 	rl	l			;CB 15
                          12261 
                          12262 ;*******************************************************************
                          12263 ;	RLA	
                          12264 ;*******************************************************************
                          12265 	;***********************************************************
                          12266 	; rotate left 'a' with carry
                          12267 	.z80
   1E9E 17                12268 	rla				;17
                          12269 
                          12270 ;*******************************************************************
                          12271 ;	RLC	
                          12272 ;*******************************************************************
                          12317 	;***********************************************************
                          12318 	; rotate left circular
                          12319 	.z80
   1E9F CB 06             12320 	rlc	(hl)			;CB 06
   1EA1 DD CBr55 06       12332 	rlc	offsetc+x(ix)		;DD CBr55 06
   1EA5 FD CBr55 06       12333 	rlc	offsetc+x(iy)		;FD CBr55 06
   1EA9 DD CBr55 06       12334 	rlc	(ix+offsetc+x)		;DD CBr55 06
   1EAD FD CBr55 06       12335 	rlc	(iy+offsetc+x)		;FD CBr55 06
   1EB1 CB 07             12347 	rlc	a			;CB 07
   1EB3 CB 00             12348 	rlc	b			;CB 00
   1EB5 CB 01             12349 	rlc	c			;CB 01
   1EB7 CB 02             12350 	rlc	d			;CB 02
   1EB9 CB 03             12351 	rlc	e			;CB 03
   1EBB CB 04             12352 	rlc	h			;CB 04
   1EBD CB 05             12353 	rlc	l			;CB 05
                          12354 
                          12355 ;*******************************************************************
                          12356 ;	RLCA	
                          12357 ;*******************************************************************
                          12358 	;***********************************************************
                          12359 	; rotate left 'a' circular
                          12360 	.z80
   1EBF 07                12361 	rlca				;07
                          12362 
                          12363 ;*******************************************************************
                          12364 ;	RLD	
                          12365 ;*******************************************************************
                          12366 	;***********************************************************
                          12367 	; rotate digit left and right
                          12368 	; between 'a' and location (hl)
                          12369 	.z80
   1EC0 ED 6F             12370 	rld				;ED 6F
                          12371 
                          12372 ;*******************************************************************
                          12373 ;	RR	
                          12374 ;*******************************************************************
                          12419 	;***********************************************************
                          12420 	; rotate right through carry
                          12421 	.z80
   1EC2 CB 1E             12422 	rr	(hl)			;CB 1E
   1EC4 DD CBr55 1E       12434 	rr	offsetc+x(ix)		;DD CBr55 1E
   1EC8 FD CBr55 1E       12435 	rr	offsetc+x(iy)		;FD CBr55 1E
   1ECC DD CBr55 1E       12436 	rr	(ix+offsetc+x)		;DD CBr55 1E
   1ED0 FD CBr55 1E       12437 	rr	(iy+offsetc+x)		;FD CBr55 1E
   1ED4 CB 1F             12449 	rr	a			;CB 1F
   1ED6 CB 18             12450 	rr	b			;CB 18
   1ED8 CB 19             12451 	rr	c			;CB 19
   1EDA CB 1A             12452 	rr	d			;CB 1A
   1EDC CB 1B             12453 	rr	e			;CB 1B
   1EDE CB 1C             12454 	rr	h			;CB 1C
   1EE0 CB 1D             12455 	rr	l			;CB 1D
                          12456 
                          12457 ;*******************************************************************
                          12458 ;	RRA	
                          12459 ;*******************************************************************
                          12460 	;***********************************************************
                          12461 	; rotate 'a' right with carry
                          12462 	.z80
   1EE2 1F                12463 	rra				;1F
                          12464 
                          12465 ;*******************************************************************
                          12466 ;	RRC	
                          12467 ;*******************************************************************
                          12512 	;***********************************************************
                          12513 	; rotate right circular
                          12514 	.z80
   1EE3 CB 0E             12515 	rrc	(hl)			;CB 0E
   1EE5 DD CBr55 0E       12527 	rrc	offsetc+x(ix)		;DD CBr55 0E
   1EE9 FD CBr55 0E       12528 	rrc	offsetc+x(iy)		;FD CBr55 0E
   1EED DD CBr55 0E       12529 	rrc	(ix+offsetc+x)		;DD CBr55 0E
   1EF1 FD CBr55 0E       12530 	rrc	(iy+offsetc+x)		;FD CBr55 0E
   1EF5 CB 0F             12542 	rrc	a			;CB 0F
   1EF7 CB 08             12543 	rrc	b			;CB 08
   1EF9 CB 09             12544 	rrc	c			;CB 09
   1EFB CB 0A             12545 	rrc	d			;CB 0A
   1EFD CB 0B             12546 	rrc	e			;CB 0B
   1EFF CB 0C             12547 	rrc	h			;CB 0C
   1F01 CB 0D             12548 	rrc	l			;CB 0D
                          12549 
                          12550 ;*******************************************************************
                          12551 ;	RRCA	
                          12552 ;*******************************************************************
                          12553 	.z80
                          12554 	;***********************************************************
                          12555 	; rotate 'a' right circular
   1F03 0F                12556 	rrca				;0F
                          12557 
                          12558 ;*******************************************************************
                          12559 ;	RRD	
                          12560 ;*******************************************************************
                          12561 	;***********************************************************
                          12562 	; rotate digit right and left
                          12563 	; between 'a' and location (hl)
                          12564 	.z80
   1F04 ED 67             12565 	rrd				;ED 67
                          12566 
                          12567 ;*******************************************************************
                          12568 ;	RST	
                          12569 ;*******************************************************************
                          12570 	;***********************************************************
                          12571 	; restart location
                          12572 	.z80
   1F06 C7                12573 	rst	0x00			;C7
   1F07 CF                12574 	rst	0x08			;CF
   1F08 D7                12575 	rst	0x10			;D7
   1F09 DF                12576 	rst	0x18			;DF
   1F0A E7                12577 	rst	0x20			;E7
   1F0B EF                12578 	rst	0x28			;EF
   1F0C F7                12579 	rst	0x30			;F7
   1F0D FF                12580 	rst	0x38			;FF
                          12581 
                          12582 ;*******************************************************************
                          12583 ;	SBC	
                          12584 ;		Leading 'a' operand is optional.
                          12585 ;		If offset is ommitted 0 is assumed.
                          12586 ;*******************************************************************
                          12587 	;***********************************************************
                          12588 	; subtract with carry to 'a'
                          12589 	.z80
   1F0E 9E                12590 	sbc	a,(hl)			;9E
   1F0F DD 9Er55          12602 	sbc	a,offsetc+x(ix)		;DD 9Er55
   1F12 FD 9Er55          12603 	sbc	a,offsetc+x(iy)		;FD 9Er55
   1F15 DD 9Er55          12604 	sbc	a,(ix+offsetc+x)		;DD 9Er55
   1F18 FD 9Er55          12605 	sbc	a,(iy+offsetc+x)		;FD 9Er55
   1F1B 9F                12617 	sbc	a,a			;9F
   1F1C 98                12618 	sbc	a,b			;98
   1F1D 99                12619 	sbc	a,c			;99
   1F1E 9A                12620 	sbc	a,d			;9A
   1F1F 9B                12621 	sbc	a,e			;9B
   1F20 9C                12622 	sbc	a,h			;9C
   1F21 9D                12623 	sbc	a,l			;9D
   1F22 DEr20             12633 	sbc	a,#nc+x			;DEr20
   1F24 DEr20             12634 	sbc	a, nc+x			;DEr20
                          12644 	;***********************************************************
                          12645 	; subtract with carry to 'a'
                          12646 	.z80
   1F26 9E                12647 	sbc	(hl)			;9E
   1F27 DD 9Er55          12659 	sbc	offsetc+x(ix)		;DD 9Er55
   1F2A FD 9Er55          12660 	sbc	offsetc+x(iy)		;FD 9Er55
   1F2D DD 9Er55          12661 	sbc	(ix+offsetc+x)		;DD 9Er55
   1F30 FD 9Er55          12662 	sbc	(iy+offsetc+x)		;FD 9Er55
   1F33 9F                12674 	sbc	a			;9F
   1F34 98                12675 	sbc	b			;98
   1F35 99                12676 	sbc	c			;99
   1F36 9A                12677 	sbc	d			;9A
   1F37 9B                12678 	sbc	e			;9B
   1F38 9C                12679 	sbc	h			;9C
   1F39 9D                12680 	sbc	l			;9D
   1F3A DEr20             12690 	sbc	#nc+x			;DEr20
   1F3C DEr20             12691 	sbc	 nc+x			;DEr20
                          12701 	;***********************************************************
                          12702 	; add with carry register pair to 'hl'
   1F3E ED 42             12703 	sbc	hl,bc			;ED 42
   1F40 ED 52             12704 	sbc	hl,de			;ED 52
   1F42 ED 62             12705 	sbc	hl,hl			;ED 62
   1F44 ED 72             12706 	sbc	hl,sp			;ED 72
                          12707 	;***********************************************************
                          12708 	;  p. 5-130
                          12709 	.z280
   1F46 DD 9C             12710 	sbc	a,ixh			;DD 9C
   1F48 DD 9D             12711 	sbc	a,ixl			;DD 9D
   1F4A FD 9C             12712 	sbc	a,iyh			;FD 9C
   1F4C FD 9D             12713 	sbc	a,iyl			;FD 9D
   1F4E DEr20             12739 	sbc	a,#nc+x			;DEr20
   1F50 DD 9Fr44s33       12740 	sbc	a,(daddc+x)		;DD 9Fr44s33
   1F54 FD 99r55s00       12741 	sbc	a,sxofc+x(ix)		;FD 99r55s00
   1F58 FD 99r55s00       12742 	sbc	a,(ix+sxofc+x)		;FD 99r55s00
   1F5C FD 9Ar55s00       12743 	sbc	a,sxofc+x(iy)		;FD 9Ar55s00
   1F60 FD 9Ar55s00       12744 	sbc	a,(iy+sxofc+x)		;FD 9Ar55s00
   1F64 FD 9Br55s00       12745 	sbc	a,sxofc+x(hl)		;FD 9Br55s00
   1F68 FD 9Br55s00       12746 	sbc	a,(hl+sxofc+x)		;FD 9Br55s00
   1F6C DD 98r55s00       12747 	sbc	a,sxofc+x(sp)		;DD 98r55s00
   1F70 DD 98r55s00       12748 	sbc	a,(sp+sxofc+x)		;DD 98r55s00
   1F74 FD 99r22s11       12749 	sbc	a,lxofc+x(ix)		;FD 99r22s11
   1F78 FD 99r22s11       12750 	sbc	a,(ix+lxofc+x)		;FD 99r22s11
   1F7C FD 9Ar22s11       12751 	sbc	a,lxofc+x(iy)		;FD 9Ar22s11
   1F80 FD 9Ar22s11       12752 	sbc	a,(iy+lxofc+x)		;FD 9Ar22s11
   1F84 FD 9Br22s11       12753 	sbc	a,lxofc+x(hl)		;FD 9Br22s11
   1F88 FD 9Br22s11       12754 	sbc	a,(hl+lxofc+x)		;FD 9Br22s11
   1F8C DD 98r22s11       12755 	sbc	a,lxofc+x(sp)		;DD 98r22s11
   1F90 DD 98r22s11       12756 	sbc	a,(sp+lxofc+x)		;DD 98r22s11
   1F94 DD 9E 00          12795 	sbc	a,(ix)			;DD 9E 00
   1F97 FD 9E 00          12796 	sbc	a,(iy)			;FD 9E 00
   1F9A 9E                12797 	sbc	a,(hl)			;9E
   1F9B DD 98 00 00       12798 	sbc	a,(sp)			;DD 98 00 00
   1F9F FD 98p34q12       12817 	sbc	a,raofc+sbc01(pc)	;FD 98p34q12
   1FA3 FD 98p34q12       12821 	sbc	a,(pc+raofc+sbc02)	;FD 98p34q12
   1FA7 FD 98p34q12       12825 	sbc	a,[raofc+sbc03]		;FD 98p34q12
   1FAB FD 98 1C 00       12882 	sbc	a,[.+nc]		;FD 98 1C 00
   1FAF DD 99             12883 	sbc	a,(hl+ix)		;DD 99
   1FB1 DD 9A             12884 	sbc	a,(hl+iy)		;DD 9A
   1FB3 DD 9B             12885 	sbc	a,(ix+iy)		;DD 9B
                          12886 	;***********************************************************
                          12887 	;  p. 5-130
                          12888 	.z280
   1FB5 DD 9C             12889 	sbc	ixh			;DD 9C
   1FB7 DD 9D             12890 	sbc	ixl			;DD 9D
   1FB9 FD 9C             12891 	sbc	iyh			;FD 9C
   1FBB FD 9D             12892 	sbc	iyl			;FD 9D
   1FBD DEr20             12918 	sbc	#nc+x			;DEr20
   1FBF DD 9Fr44s33       12919 	sbc	(daddc+x)			;DD 9Fr44s33
   1FC3 FD 99r55s00       12920 	sbc	sxofc+x(ix)		;FD 99r55s00
   1FC7 FD 99r55s00       12921 	sbc	(ix+sxofc+x)		;FD 99r55s00
   1FCB FD 9Ar55s00       12922 	sbc	sxofc+x(iy)		;FD 9Ar55s00
   1FCF FD 9Ar55s00       12923 	sbc	(iy+sxofc+x)		;FD 9Ar55s00
   1FD3 FD 9Br55s00       12924 	sbc	sxofc+x(hl)		;FD 9Br55s00
   1FD7 FD 9Br55s00       12925 	sbc	(hl+sxofc+x)		;FD 9Br55s00
   1FDB DD 98r55s00       12926 	sbc	sxofc+x(sp)		;DD 98r55s00
   1FDF DD 98r55s00       12927 	sbc	(sp+sxofc+x)		;DD 98r55s00
   1FE3 FD 99r22s11       12928 	sbc	lxofc+x(ix)		;FD 99r22s11
   1FE7 FD 99r22s11       12929 	sbc	(ix+lxofc+x)		;FD 99r22s11
   1FEB FD 9Ar22s11       12930 	sbc	lxofc+x(iy)		;FD 9Ar22s11
   1FEF FD 9Ar22s11       12931 	sbc	(iy+lxofc+x)		;FD 9Ar22s11
   1FF3 FD 9Br22s11       12932 	sbc	lxofc+x(hl)		;FD 9Br22s11
   1FF7 FD 9Br22s11       12933 	sbc	(hl+lxofc+x)		;FD 9Br22s11
   1FFB DD 98r22s11       12934 	sbc	lxofc+x(sp)		;DD 98r22s11
   1FFF DD 98r22s11       12935 	sbc	(sp+lxofc+x)		;DD 98r22s11
   2003 9E                12974 	sbc	(hl)			;9E
   2004 DD 9E 00          12975 	sbc	(ix)			;DD 9E 00
   2007 FD 9E 00          12976 	sbc	(iy)			;FD 9E 00
   200A DD 98 00 00       12977 	sbc	(sp)			;DD 98 00 00
   200E FD 98p34q12       12996 	sbc	raofc+sbc04(pc)		;FD 98p34q12
   2012 FD 98p34q12       13000 	sbc	(pc+raofc+sbc05)	;FD 98p34q12
   2016 FD 98p34q12       13004 	sbc	[raofc+sbc06]		;FD 98p34q12
   201A FD 98 1C 00       13061 	sbc	[.+nc]			;FD 98 1C 00
   201E DD 99             13062 	sbc	(hl+ix)			;DD 99
   2020 DD 9A             13063 	sbc	(hl+iy)			;DD 9A
   2022 DD 9B             13064 	sbc	(ix+iy)			;DD 9B
                          13065 	;***********************************************************
                          13066 	;  p. 5-131
   2024 DD ED 42          13067 	sbc	ix,bc			;DD ED 42
   2027 DD ED 52          13068 	sbc	ix,de			;DD ED 52
   202A DD ED 62          13069 	sbc	ix,ix			;DD ED 62
   202D DD ED 72          13070 	sbc	ix,sp			;DD ED 72
   2030 FD ED 42          13071 	sbc	iy,bc			;FD ED 42
   2033 FD ED 52          13072 	sbc	iy,de			;FD ED 52
   2036 FD ED 62          13073 	sbc	iy,iy			;FD ED 62
   2039 FD ED 72          13074 	sbc	iy,sp			;FD ED 72
                          13075 
                          13076 ;*******************************************************************
                          13077 ;	SC	
                          13078 ;*******************************************************************
                          13079 	;***********************************************************
                          13080 	; Z280 system call
                          13081 	.z280
   203C ED 71r20s00       13092  	sc	nc+x			;ED 71r20s00
   2040 ED 71r20s00       13093 	sc	#nc+x			;ED 71r20s00
   2044 ED 71r20s00       13094 	sc	(nc+x)			;ED 71r20s00
                          13105 
                          13106 ;*******************************************************************
                          13107 ;	SCF	
                          13108 ;*******************************************************************
                          13109 	;***********************************************************
                          13110 	; set carry flag (C=1)
                          13111 	.z80
   2048 37                13112 	scf				;37
                          13113 
                          13114 ;*******************************************************************
                          13115 ;	SET	
                          13116 ;*******************************************************************
                          13117 	;***********************************************************
                          13118 	; set bit of location or register
                          13119 	.z80
   2049 CB C6             13120 	set	0,(hl)			;CB C6
   204B DD CBr55 C6       13132 	set	0,offsetc+x(ix)		;DD CBr55 C6
   204F FD CBr55 C6       13133 	set	0,offsetc+x(iy)		;FD CBr55 C6
   2053 DD CBr55 C6       13134 	set	0,(ix+offsetc+x)		;DD CBr55 C6
   2057 FD CBr55 C6       13135 	set	0,(iy+offsetc+x)		;FD CBr55 C6
   205B CB C7             13147 	set	0,a			;CB C7
   205D CB C0             13148 	set	0,b			;CB C0
   205F CB C1             13149 	set	0,c			;CB C1
   2061 CB C2             13150 	set	0,d			;CB C2
   2063 CB C3             13151 	set	0,e			;CB C3
   2065 CB C4             13152 	set	0,h			;CB C4
   2067 CB C5             13153 	set	0,l			;CB C5
   2069 CB CE             13154 	set	1,(hl)			;CB CE
   206B DD CBr55 CE       13166 	set	1,offsetc+x(ix)		;DD CBr55 CE
   206F FD CBr55 CE       13167 	set	1,offsetc+x(iy)		;FD CBr55 CE
   2073 DD CBr55 CE       13168 	set	1,(ix+offsetc+x)		;DD CBr55 CE
   2077 FD CBr55 CE       13169 	set	1,(iy+offsetc+x)		;FD CBr55 CE
   207B CB CF             13181 	set	1,a			;CB CF
   207D CB C8             13182 	set	1,b			;CB C8
   207F CB C9             13183 	set	1,c			;CB C9
   2081 CB CA             13184 	set	1,d			;CB CA
   2083 CB CB             13185 	set	1,e			;CB CB
   2085 CB CC             13186 	set	1,h			;CB CC
   2087 CB CD             13187 	set	1,l			;CB CD
   2089 CB D6             13188 	set	2,(hl)			;CB D6
   208B DD CBr55 D6       13200 	set	2,offsetc+x(ix)		;DD CBr55 D6
   208F FD CBr55 D6       13201 	set	2,offsetc+x(iy)		;FD CBr55 D6
   2093 DD CBr55 D6       13202 	set	2,(ix+offsetc+x)		;DD CBr55 D6
   2097 FD CBr55 D6       13203 	set	2,(iy+offsetc+x)		;FD CBr55 D6
   209B CB D7             13215 	set	2,a			;CB D7
   209D CB D0             13216 	set	2,b			;CB D0
   209F CB D1             13217 	set	2,c			;CB D1
   20A1 CB D2             13218 	set	2,d			;CB D2
   20A3 CB D3             13219 	set	2,e			;CB D3
   20A5 CB D4             13220 	set	2,h			;CB D4
   20A7 CB D5             13221 	set	2,l			;CB D5
   20A9 CB DE             13222 	set	3,(hl)			;CB DE
   20AB DD CBr55 DE       13234 	set	3,offsetc+x(ix)		;DD CBr55 DE
   20AF FD CBr55 DE       13235 	set	3,offsetc+x(iy)		;FD CBr55 DE
   20B3 DD CBr55 DE       13236 	set	3,(ix+offsetc+x)		;DD CBr55 DE
   20B7 FD CBr55 DE       13237 	set	3,(iy+offsetc+x)		;FD CBr55 DE
   20BB CB DF             13249 	set	3,a			;CB DF
   20BD CB D8             13250 	set	3,b			;CB D8
   20BF CB D9             13251 	set	3,c			;CB D9
   20C1 CB DA             13252 	set	3,d			;CB DA
   20C3 CB DB             13253 	set	3,e			;CB DB
   20C5 CB DC             13254 	set	3,h			;CB DC
   20C7 CB DD             13255 	set	3,l			;CB DD
   20C9 CB E6             13256 	set	4,(hl)			;CB E6
   20CB DD CBr55 E6       13268 	set	4,offsetc+x(ix)		;DD CBr55 E6
   20CF FD CBr55 E6       13269 	set	4,offsetc+x(iy)		;FD CBr55 E6
   20D3 DD CBr55 E6       13270 	set	4,(ix+offsetc+x)		;DD CBr55 E6
   20D7 FD CBr55 E6       13271 	set	4,(iy+offsetc+x)		;FD CBr55 E6
   20DB CB E7             13283 	set	4,a			;CB E7
   20DD CB E0             13284 	set	4,b			;CB E0
   20DF CB E1             13285 	set	4,c			;CB E1
   20E1 CB E2             13286 	set	4,d			;CB E2
   20E3 CB E3             13287 	set	4,e			;CB E3
   20E5 CB E4             13288 	set	4,h			;CB E4
   20E7 CB E5             13289 	set	4,l			;CB E5
   20E9 CB EE             13290 	set	5,(hl)			;CB EE
   20EB DD CBr55 EE       13302 	set	5,offsetc+x(ix)		;DD CBr55 EE
   20EF FD CBr55 EE       13303 	set	5,offsetc+x(iy)		;FD CBr55 EE
   20F3 DD CBr55 EE       13304 	set	5,(ix+offsetc+x)		;DD CBr55 EE
   20F7 FD CBr55 EE       13305 	set	5,(iy+offsetc+x)		;FD CBr55 EE
   20FB CB EF             13317 	set	5,a			;CB EF
   20FD CB E8             13318 	set	5,b			;CB E8
   20FF CB E9             13319 	set	5,c			;CB E9
   2101 CB EA             13320 	set	5,d			;CB EA
   2103 CB EB             13321 	set	5,e			;CB EB
   2105 CB EC             13322 	set	5,h			;CB EC
   2107 CB ED             13323 	set	5,l			;CB ED
   2109 CB F6             13324 	set	6,(hl)			;CB F6
   210B DD CBr55 F6       13336 	set	6,offsetc+x(ix)		;DD CBr55 F6
   210F FD CBr55 F6       13337 	set	6,offsetc+x(iy)		;FD CBr55 F6
   2113 DD CBr55 F6       13338 	set	6,(ix+offsetc+x)		;DD CBr55 F6
   2117 FD CBr55 F6       13339 	set	6,(iy+offsetc+x)		;FD CBr55 F6
   211B CB F7             13351 	set	6,a			;CB F7
   211D CB F0             13352 	set	6,b			;CB F0
   211F CB F1             13353 	set	6,c			;CB F1
   2121 CB F2             13354 	set	6,d			;CB F2
   2123 CB F3             13355 	set	6,e			;CB F3
   2125 CB F4             13356 	set	6,h			;CB F4
   2127 CB F5             13357 	set	6,l			;CB F5
   2129 CB FE             13358 	set	7,(hl)			;CB FE
   212B DD CBr55 FE       13370 	set	7,offsetc+x(ix)		;DD CBr55 FE
   212F FD CBr55 FE       13371 	set	7,offsetc+x(iy)		;FD CBr55 FE
   2133 DD CBr55 FE       13372 	set	7,(ix+offsetc+x)		;DD CBr55 FE
   2137 FD CBr55 FE       13373 	set	7,(iy+offsetc+x)		;FD CBr55 FE
   213B CB FF             13385 	set	7,a			;CB FF
   213D CB F8             13386 	set	7,b			;CB F8
   213F CB F9             13387 	set	7,c			;CB F9
   2141 CB FA             13388 	set	7,d			;CB FA
   2143 CB FB             13389 	set	7,e			;CB FB
   2145 CB FC             13390 	set	7,h			;CB FC
   2147 CB FD             13391 	set	7,l			;CB FD
                          13392 
                          13393 ;*******************************************************************
                          13394 ;	SLA	
                          13395 ;*******************************************************************
                          13440 	;***********************************************************
                          13441 	; shift operand left arithmetic
                          13442 	.z80
   2149 CB 26             13443 	sla	(hl)			;CB 26
   214B DD CBr55 26       13455 	sla	offsetc+x(ix)		;DD CBr55 26
   214F FD CBr55 26       13456 	sla	offsetc+x(iy)		;FD CBr55 26
   2153 DD CBr55 26       13457 	sla	(ix+offsetc+x)		;DD CBr55 26
   2157 FD CBr55 26       13458 	sla	(iy+offsetc+x)		;FD CBr55 26
   215B CB 27             13470 	sla	a			;CB 27
   215D CB 20             13471 	sla	b			;CB 20
   215F CB 21             13472 	sla	c			;CB 21
   2161 CB 22             13473 	sla	d			;CB 22
   2163 CB 23             13474 	sla	e			;CB 23
   2165 CB 24             13475 	sla	h			;CB 24
   2167 CB 25             13476 	sla	l			;CB 25
                          13477 
                          13478 ;*******************************************************************
                          13479 ;	SRA	
                          13480 ;*******************************************************************
                          13525 	;***********************************************************
                          13526 	; shift operand right arithmetic
                          13527 	.z80
   2169 CB 2E             13528 	sra	(hl)			;CB 2E
   216B DD CBr55 2E       13540 	sra	offsetc+x(ix)		;DD CBr55 2E
   216F FD CBr55 2E       13541 	sra	offsetc+x(iy)		;FD CBr55 2E
   2173 DD CBr55 2E       13542 	sra	(ix+offsetc+x)		;DD CBr55 2E
   2177 FD CBr55 2E       13543 	sra	(iy+offsetc+x)		;FD CBr55 2E
   217B CB 2F             13555 	sra	a			;CB 2F
   217D CB 28             13556 	sra	b			;CB 28
   217F CB 29             13557 	sra	c			;CB 29
   2181 CB 2A             13558 	sra	d			;CB 2A
   2183 CB 2B             13559 	sra	e			;CB 2B
   2185 CB 2C             13560 	sra	h			;CB 2C
   2187 CB 2D             13561 	sra	l			;CB 2D
                          13562 
                          13563 ;*******************************************************************
                          13564 ;	SRL	
                          13565 ;*******************************************************************
                          13610 	;***********************************************************
                          13611 	; shift operand right logical
                          13612 	.z80
   2189 CB 3E             13613 	srl	(hl)			;CB 3E
   218B DD CBr55 3E       13625 	srl	offsetc+x(ix)		;DD CBr55 3E
   218F FD CBr55 3E       13626 	srl	offsetc+x(iy)		;FD CBr55 3E
   2193 DD CBr55 3E       13627 	srl	(ix+offsetc+x)		;DD CBr55 3E
   2197 FD CBr55 3E       13628 	srl	(iy+offsetc+x)		;FD CBr55 3E
   219B CB 3F             13640 	srl	a			;CB 3F
   219D CB 38             13641 	srl	b			;CB 38
   219F CB 39             13642 	srl	c			;CB 39
   21A1 CB 3A             13643 	srl	d			;CB 3A
   21A3 CB 3B             13644 	srl	e			;CB 3B
   21A5 CB 3C             13645 	srl	h			;CB 3C
   21A7 CB 3D             13646 	srl	l			;CB 3D
                          13647 
                          13648 ;*******************************************************************
                          13649 ;	SUB	
                          13650 ;		Leading 'a' operand is optional.
                          13651 ;		If offset is ommitted 0 is assumed.
                          13652 ;*******************************************************************
                          13653 	;***********************************************************
                          13654 	; subtract operand from 'a'
                          13655 	.z80
   21A9 96                13656 	sub	a,(hl)			;96
   21AA DD 96r55          13668 	sub	a,offsetc+x(ix)		;DD 96r55
   21AD FD 96r55          13669 	sub	a,offsetc+x(iy)		;FD 96r55
   21B0 DD 96r55          13670 	sub	a,(ix+offsetc+x)		;DD 96r55
   21B3 FD 96r55          13671 	sub	a,(iy+offsetc+x)		;FD 96r55
   21B6 97                13683 	sub	a,a			;97
   21B7 90                13684 	sub	a,b			;90
   21B8 91                13685 	sub	a,c			;91
   21B9 92                13686 	sub	a,d			;92
   21BA 93                13687 	sub	a,e			;93
   21BB 94                13688 	sub	a,h			;94
   21BC 95                13689 	sub	a,l			;95
   21BD D6r20             13699 	sub	a,#nc+x			;D6r20
   21BF D6r20             13700 	sub	a, nc+x			;D6r20
                          13710 	;***********************************************************
                          13711 	; subtract operand from 'a'
                          13712 	.z80
   21C1 96                13713 	sub	(hl)			;96
   21C2 DD 96r55          13725 	sub	offsetc+x(ix)		;DD 96r55
   21C5 FD 96r55          13726 	sub	offsetc+x(iy)		;FD 96r55
   21C8 DD 96r55          13727 	sub	(ix+offsetc+x)		;DD 96r55
   21CB FD 96r55          13728 	sub	(iy+offsetc+x)		;FD 96r55
   21CE 97                13740 	sub	a			;97
   21CF 90                13741 	sub	b			;90
   21D0 91                13742 	sub	c			;91
   21D1 92                13743 	sub	d			;92
   21D2 93                13744 	sub	e			;93
   21D3 94                13745 	sub	h			;94
   21D4 95                13746 	sub	l			;95
   21D5 D6r20             13756 	sub	#nc+x			;D6r20
   21D7 D6r20             13757 	sub	 nc+x			;D6r20
                          13767 	;***********************************************************
                          13768 	;  p. 5-139
                          13769 	.z280
   21D9 DD 94             13770 	sub	a,ixh			;DD 94
   21DB DD 95             13771 	sub	a,ixl			;DD 95
   21DD FD 94             13772 	sub	a,iyh			;FD 94
   21DF FD 95             13773 	sub	a,iyl			;FD 95
   21E1 D6r20             13799 	sub	a,#nc+x			;D6r20
   21E3 DD 97r44s33       13800 	sub	a,(daddc+x)		;DD 97r44s33
   21E7 FD 91r55s00       13801 	sub	a,sxofc+x(ix)		;FD 91r55s00
   21EB FD 91r55s00       13802 	sub	a,(ix+sxofc+x)		;FD 91r55s00
   21EF FD 92r55s00       13803 	sub	a,sxofc+x(iy)		;FD 92r55s00
   21F3 FD 92r55s00       13804 	sub	a,(iy+sxofc+x)		;FD 92r55s00
   21F7 FD 93r55s00       13805 	sub	a,sxofc+x(hl)		;FD 93r55s00
   21FB FD 93r55s00       13806 	sub	a,(hl+sxofc+x)		;FD 93r55s00
   21FF DD 90r55s00       13807 	sub	a,sxofc+x(sp)		;DD 90r55s00
   2203 DD 90r55s00       13808 	sub	a,(sp+sxofc+x)		;DD 90r55s00
   2207 FD 91r22s11       13809 	sub	a,lxofc+x(ix)		;FD 91r22s11
   220B FD 91r22s11       13810 	sub	a,(ix+lxofc+x)		;FD 91r22s11
   220F FD 92r22s11       13811 	sub	a,lxofc+x(iy)		;FD 92r22s11
   2213 FD 92r22s11       13812 	sub	a,(iy+lxofc+x)		;FD 92r22s11
   2217 FD 93r22s11       13813 	sub	a,lxofc+x(hl)		;FD 93r22s11
   221B FD 93r22s11       13814 	sub	a,(hl+lxofc+x)		;FD 93r22s11
   221F DD 90r22s11       13815 	sub	a,lxofc+x(sp)		;DD 90r22s11
   2223 DD 90r22s11       13816 	sub	a,(sp+lxofc+x)		;DD 90r22s11
   2227 96                13855 	sub	a,(hl)			;96
   2228 DD 96 00          13856 	sub	a,(ix)			;DD 96 00
   222B FD 96 00          13857 	sub	a,(iy)			;FD 96 00
   222E DD 90 00 00       13858 	sub	a,(sp)			;DD 90 00 00
   2232 FD 90p34q12       13877 	sub	a,raofc+sub01(pc)	;FD 90p34q12
   2236 FD 90p34q12       13881 	sub	a,(pc+raofc+sub02)	;FD 90p34q12
   223A FD 90p34q12       13885 	sub	a,[raofc+sub03]		;FD 90p34q12
   223E FD 90 80 05       13942 	sub	a,[.+nnc]		;FD 90 80 05
   2242 DD 91             13943 	sub	a,(hl+ix)		;DD 91
   2244 DD 92             13944 	sub	a,(hl+iy)		;DD 92
   2246 DD 93             13945 	sub	a,(ix+iy)		;DD 93
                          13946 	;***********************************************************
                          13947 	;  p. 5-139
                          13948 	.z280
   2248 DD 94             13949 	sub	ixh			;DD 94
   224A DD 95             13950 	sub	ixl			;DD 95
   224C FD 94             13951 	sub	iyh			;FD 94
   224E FD 95             13952 	sub	iyl			;FD 95
   2250 D6r20             13978 	sub	#nc+x			;D6r20
   2252 DD 97r44s33       13979 	sub	(daddc+x)			;DD 97r44s33
   2256 FD 91r55s00       13980 	sub	sxofc+x(ix)		;FD 91r55s00
   225A FD 91r55s00       13981 	sub	(ix+sxofc+x)		;FD 91r55s00
   225E FD 92r55s00       13982 	sub	sxofc+x(iy)		;FD 92r55s00
   2262 FD 92r55s00       13983 	sub	(iy+sxofc+x)		;FD 92r55s00
   2266 FD 93r55s00       13984 	sub	sxofc+x(hl)		;FD 93r55s00
   226A FD 93r55s00       13985 	sub	(hl+sxofc+x)		;FD 93r55s00
   226E DD 90r55s00       13986 	sub	sxofc+x(sp)		;DD 90r55s00
   2272 DD 90r55s00       13987 	sub	(sp+sxofc+x)		;DD 90r55s00
   2276 FD 91r22s11       13988 	sub	lxofc+x(ix)		;FD 91r22s11
   227A FD 91r22s11       13989 	sub	(ix+lxofc+x)		;FD 91r22s11
   227E FD 92r22s11       13990 	sub	lxofc+x(iy)		;FD 92r22s11
   2282 FD 92r22s11       13991 	sub	(iy+lxofc+x)		;FD 92r22s11
   2286 FD 93r22s11       13992 	sub	lxofc+x(hl)		;FD 93r22s11
   228A FD 93r22s11       13993 	sub	(hl+lxofc+x)		;FD 93r22s11
   228E DD 90r22s11       13994 	sub	lxofc+x(sp)		;DD 90r22s11
   2292 DD 90r22s11       13995 	sub	(sp+lxofc+x)		;DD 90r22s11
   2296 DD 96 00          14034 	sub	(ix)			;DD 96 00
   2299 FD 96 00          14035 	sub	(iy)			;FD 96 00
   229C 96                14036 	sub	(hl)			;96
   229D DD 90 00 00       14037 	sub	(sp)			;DD 90 00 00
   22A1 FD 90p34q12       14056 	sub	raofc+sub04(pc)		;FD 90p34q12
   22A5 FD 90p34q12       14060 	sub	(pc+raofc+sub05)	;FD 90p34q12
   22A9 FD 90p34q12       14064 	sub	[raofc+sub06]		;FD 90p34q12
   22AD FD 90 80 05       14121 	sub	[.+nnc]			;FD 90 80 05
   22B1 DD 91             14122 	sub	a,(hl+ix)		;DD 91
   22B3 DD 92             14123 	sub	a,(hl+iy)		;DD 92
   22B5 DD 93             14124 	sub	a,(ix+iy)		;DD 93
                          14125 	;***********************************************************
                          14126 	;  p. 5-140
                          14127 	.z280
   22B7 DD ED CE          14128 	sub	hl,(hl)			;DD ED CE
   22BA FD ED CE 00 00    14129 	sub	hl,(ix)			;FD ED CE 00 00
   22BF FD ED DE 00 00    14130 	sub	hl,(iy)			;FD ED DE 00 00
   22C4 FD ED FEr84s05    14148 	sub	hl,#nnc+x			;FD ED FEr84s05
   22C9 DD ED DEr44s33    14149 	sub	hl,(daddc+x)		;DD ED DEr44s33
   22CE FD ED CEr55s00    14150 	sub	hl,sxofc+x(ix)		;FD ED CEr55s00
   22D3 FD ED CEr55s00    14151 	sub	hl,(ix+sxofc+x)		;FD ED CEr55s00
   22D8 FD ED CEr22s11    14152 	sub	hl,lxofc+x(ix)		;FD ED CEr22s11
   22DD FD ED CEr22s11    14153 	sub	hl,(ix+lxofc+x)		;FD ED CEr22s11
   22E2 FD ED DEr55s00    14154 	sub	hl,sxofc+x(iy)		;FD ED DEr55s00
   22E7 FD ED DEr55s00    14155 	sub	hl,(iy+sxofc+x)		;FD ED DEr55s00
   22EC FD ED DEr22s11    14156 	sub	hl,lxofc+x(iy)		;FD ED DEr22s11
   22F1 FD ED DEr22s11    14157 	sub	hl,(iy+lxofc+x)		;FD ED DEr22s11
   22F6 DD ED FEp34q12    14193 	sub	hl,raofc+sub07(pc)	;DD ED FEp34q12
   22FB DD ED FEp34q12    14197 	sub	hl,(pc+raofc+sub08)	;DD ED FEp34q12
   2300 DD ED FEp34q12    14201 	sub	hl,[raofc+sub09]	;DD ED FEp34q12
   2305 DD ED FE 1B 00    14258 	sub	hl,[.+nc]		;DD ED FE 1B 00
   230A ED CE             14259 	sub	hl,bc			;ED CE
   230C ED DE             14260 	sub	hl,de			;ED DE
   230E ED EE             14261 	sub	hl,hl			;ED EE
   2310 DD ED EE          14262 	sub	hl,ix			;DD ED EE
   2313 FD ED EE          14263 	sub	hl,iy			;FD ED EE
   2316 ED FE             14264 	sub	hl,sp			;ED FE
                          14265 ;*******************************************************************
                          14266 ;	SUBW	
                          14267 ;*******************************************************************
                          14268 	;***********************************************************
                          14269 	; subtract operand from 'hl'
                          14270 	.z280
   2318 ED CE             14271 	subw	hl,bc			;ED CE
   231A ED DE             14272 	subw	hl,de			;ED DE
   231C ED EE             14273 	subw	hl,hl			;ED EE
   231E DD ED EE          14274 	subw	hl,ix			;DD ED EE
   2321 FD ED EE          14275 	subw	hl,iy			;FD ED EE
   2324 ED FE             14276 	subw	hl,sp			;ED FE
   2326 FD ED FEr84s05    14294 	subw	hl,#nnc+x			;FD ED FEr84s05
   232B DD ED DEr44s33    14295 	subw	hl,(daddc+x)		;DD ED DEr44s33
   2330 FD ED CEr55s00    14296 	subw	hl,sxofc+x(ix)		;FD ED CEr55s00
   2335 FD ED CEr55s00    14297 	subw	hl,(ix+sxofc+x)		;FD ED CEr55s00
   233A FD ED DEr55s00    14298 	subw	hl,sxofc+x(iy)		;FD ED DEr55s00
   233F FD ED DEr55s00    14299 	subw	hl,(iy+sxofc+x)		;FD ED DEr55s00
   2344 FD ED CEr22s11    14300 	subw	hl,lxofc+x(ix)		;FD ED CEr22s11
   2349 FD ED CEr22s11    14301 	subw	hl,(ix+lxofc+x)		;FD ED CEr22s11
   234E FD ED DEr22s11    14302 	subw	hl,lxofc+x(iy)		;FD ED DEr22s11
   2353 FD ED DEr22s11    14303 	subw	hl,(iy+lxofc+x)		;FD ED DEr22s11
   2358 DD ED CE          14321 	subw	hl,(hl)			;DD ED CE
   235B FD ED CE 00 00    14322 	subw	hl,(ix)			;FD ED CE 00 00
   2360 FD ED DE 00 00    14323 	subw	hl,(iy)			;FD ED DE 00 00
   2365 DD ED FEp34q12    14342 	subw	hl,raofc+subw01(pc)	;DD ED FEp34q12
   236A DD ED FEp34q12    14346 	subw	hl,(pc+raofc+subw02)	;DD ED FEp34q12
   236F DD ED FEp34q12    14350 	subw	hl,[raofc+subw03]	;DD ED FEp34q12
   2374 DD ED FE 1B 00    14407 	subw	hl,[.+nc]		;DD ED FE 1B 00
                          14408 
                          14409 ;*******************************************************************
                          14410 ;	TSET	
                          14411 ;*******************************************************************
                          14412 	;***********************************************************
                          14413 	; Z280 test and set
                          14414 	;  p. 5-141
                          14415 	.z280
   2379 CB 30             14416 	tset	b			;CB 30
   237B CB 31             14417 	tset	c			;CB 31
   237D CB 32             14418 	tset	d			;CB 32
   237F CB 33             14419 	tset	e			;CB 33
   2381 CB 34             14420 	tset	h			;CB 34
   2383 CB 35             14421 	tset	l			;CB 35
   2385 CB 36             14422 	tset	(hl)			;CB 36
   2387 CB 37             14423 	tset	a			;CB 37
   2389 DD CBr55 36       14435 	tset	sxofc+x(ix)		;DD CBr55 36
   238D DD CBr55 36       14436 	tset	(ix+sxofc+x)		;DD CBr55 36
   2391 FD CBr55 36       14437 	tset	sxofc+x(iy)		;FD CBr55 36
   2395 FD CBr55 36       14438 	tset	(iy+sxofc+x)		;FD CBr55 36
                          14450 
                          14451 ;*******************************************************************
                          14452 ;	TSTI	
                          14453 ;*******************************************************************
                          14454 	;***********************************************************
                          14455 	; Z280 test input
                          14456 	.z280
   2399 ED 70             14457 	tsti	(c)			;ED 70
                          14458 
                          14459 ;*******************************************************************
                          14460 ;	XOR	
                          14461 ;		Leading 'a' operand is optional.
                          14462 ;		If offset is ommitted 0 is assumed.
                          14463 ;*******************************************************************
                          14464 	;***********************************************************
                          14465 	; logical 'xor' operand with 'a'
                          14466 	.z80
   239B AE                14467 	xor	a,(hl)			;AE
   239C DD AEr55          14479 	xor	a,offsetc+x(ix)		;DD AEr55
   239F FD AEr55          14480 	xor	a,offsetc+x(iy)		;FD AEr55
   23A2 DD AEr55          14481 	xor	a,(ix+offsetc+x)		;DD AEr55
   23A5 FD AEr55          14482 	xor	a,(iy+offsetc+x)		;FD AEr55
   23A8 AF                14494 	xor	a,a			;AF
   23A9 A8                14495 	xor	a,b			;A8
   23AA A9                14496 	xor	a,c			;A9
   23AB AA                14497 	xor	a,d			;AA
   23AC AB                14498 	xor	a,e			;AB
   23AD AC                14499 	xor	a,h			;AC
   23AE AD                14500 	xor	a,l			;AD
   23AF EEr20             14510 	xor	a,#nc+x			;EEr20
   23B1 EEr20             14511 	xor	a, nc+x			;EEr20
                          14521 	;***********************************************************
                          14522 	; logical 'xor' operand without 'a'
                          14523 	.z80
   23B3 AE                14524 	xor	(hl)			;AE
   23B4 DD AEr55          14536 	xor	offsetc+x(ix)		;DD AEr55
   23B7 FD AEr55          14537 	xor	offsetc+x(iy)		;FD AEr55
   23BA DD AEr55          14538 	xor	(ix+offsetc+x)		;DD AEr55
   23BD FD AEr55          14539 	xor	(iy+offsetc+x)		;FD AEr55
   23C0 AF                14551 	xor	a			;AF
   23C1 A8                14552 	xor	b			;A8
   23C2 A9                14553 	xor	c			;A9
   23C3 AA                14554 	xor	d			;AA
   23C4 AB                14555 	xor	e			;AB
   23C5 AC                14556 	xor	h			;AC
   23C6 AD                14557 	xor	l			;AD
   23C7 EEr20             14567 	xor	#nc+x			;EEr20
   23C9 EEr20             14568 	xor	 nc+x			;EEr20
                          14578 	;***********************************************************
                          14579 	;  p. 5-143
                          14580 	.z280
   23CB DD AC             14581 	xor	a,ixh			;DD AC
   23CD DD AD             14582 	xor	a,ixl			;DD AD
   23CF FD AC             14583 	xor	a,iyh			;FD AC
   23D1 FD AD             14584 	xor	a,iyl			;FD AD
   23D3 EEr20             14610 	xor	a,#nc+x			;EEr20
   23D5 DD AFr44s33       14611 	xor	a,(daddc+x)		;DD AFr44s33
   23D9 FD A9r55s00       14612 	xor	a,sxofc+x(ix)		;FD A9r55s00
   23DD FD A9r55s00       14613 	xor	a,(ix+sxofc+x)		;FD A9r55s00
   23E1 FD AAr55s00       14614 	xor	a,sxofc+x(iy)		;FD AAr55s00
   23E5 FD AAr55s00       14615 	xor	a,(iy+sxofc+x)		;FD AAr55s00
   23E9 FD ABr55s00       14616 	xor	a,sxofc+x(hl)		;FD ABr55s00
   23ED FD ABr55s00       14617 	xor	a,(hl+sxofc+x)		;FD ABr55s00
   23F1 DD A8r55s00       14618 	xor	a,sxofc+x(sp)		;DD A8r55s00
   23F5 DD A8r55s00       14619 	xor	a,(sp+sxofc+x)		;DD A8r55s00
   23F9 FD A9r22s11       14620 	xor	a,lxofc+x(ix)		;FD A9r22s11
   23FD FD A9r22s11       14621 	xor	a,(ix+lxofc+x)		;FD A9r22s11
   2401 FD AAr22s11       14622 	xor	a,lxofc+x(iy)		;FD AAr22s11
   2405 FD AAr22s11       14623 	xor	a,(iy+lxofc+x)		;FD AAr22s11
   2409 FD ABr22s11       14624 	xor	a,lxofc+x(hl)		;FD ABr22s11
   240D FD ABr22s11       14625 	xor	a,(hl+lxofc+x)		;FD ABr22s11
   2411 DD A8r22s11       14626 	xor	a,lxofc+x(sp)		;DD A8r22s11
   2415 DD A8r22s11       14627 	xor	a,(sp+lxofc+x)		;DD A8r22s11
   2419 AE                14666 	xor	a,(hl)			;AE
   241A DD AE 00          14667 	xor	a,(ix)			;DD AE 00
   241D FD AE 00          14668 	xor	a,(iy)			;FD AE 00
   2420 DD A8 00 00       14669 	xor	a,(sp)			;DD A8 00 00
   2424 FD A8p34q12       14688 	xor	a,raofc+zor01(pc)	;FD A8p34q12
   2428 FD A8p34q12       14692 	xor	a,(pc+raofc+zor02)	;FD A8p34q12
   242C FD A8p34q12       14696 	xor	a,[raofc+zor03]		;FD A8p34q12
   2430 FD A8 1C 00       14753 	xor	a,[.+nc]		;FD A8 1C 00
   2434 DD A9             14754 	xor	a,(hl+ix)		;DD A9
   2436 DD AA             14755 	xor	a,(hl+iy)		;DD AA
   2438 DD AB             14756 	xor	a,(ix+iy)		;DD AB
                          14757 	;***********************************************************
                          14758 	;  p. 5-143
                          14759 	.z280
   243A DD AC             14760 	xor	ixh			;DD AC
   243C DD AD             14761 	xor	ixl			;DD AD
   243E FD AC             14762 	xor	iyh			;FD AC
   2440 FD AD             14763 	xor	iyl			;FD AD
   2442 EEr20             14789 	xor	#nc+x			;EEr20
   2444 DD AFr44s33       14790 	xor	(daddc+x)			;DD AFr44s33
   2448 FD A9r55s00       14791 	xor	sxofc+x(ix)		;FD A9r55s00
   244C FD A9r55s00       14792 	xor	(ix+sxofc+x)		;FD A9r55s00
   2450 FD AAr55s00       14793 	xor	sxofc+x(iy)		;FD AAr55s00
   2454 FD AAr55s00       14794 	xor	(iy+sxofc+x)		;FD AAr55s00
   2458 FD ABr55s00       14795 	xor	sxofc+x(hl)		;FD ABr55s00
   245C FD ABr55s00       14796 	xor	(hl+sxofc+x)		;FD ABr55s00
   2460 DD A8r55s00       14797 	xor	sxofc+x(sp)		;DD A8r55s00
   2464 DD A8r55s00       14798 	xor	(sp+sxofc+x)		;DD A8r55s00
   2468 FD A9r22s11       14799 	xor	lxofc+x(ix)		;FD A9r22s11
   246C FD A9r22s11       14800 	xor	(ix+lxofc+x)		;FD A9r22s11
   2470 FD AAr22s11       14801 	xor	lxofc+x(iy)		;FD AAr22s11
   2474 FD AAr22s11       14802 	xor	(iy+lxofc+x)		;FD AAr22s11
   2478 FD ABr22s11       14803 	xor	lxofc+x(hl)		;FD ABr22s11
   247C FD ABr22s11       14804 	xor	(hl+lxofc+x)		;FD ABr22s11
   2480 DD A8r22s11       14805 	xor	lxofc+x(sp)		;DD A8r22s11
   2484 DD A8r22s11       14806 	xor	(sp+lxofc+x)		;DD A8r22s11
   2488 AE                14845 	xor	(hl)			;AE
   2489 DD AE 00          14846 	xor	(ix)			;DD AE 00
   248C FD AE 00          14847 	xor	(iy)			;FD AE 00
   248F DD A8 00 00       14848 	xor	(sp)			;DD A8 00 00
   2493 FD A8p34q12       14867 	xor	raofc+zor04(pc)		;FD A8p34q12
   2497 FD A8p34q12       14871 	xor	(pc+raofc+zor05)	;FD A8p34q12
   249B FD A8p34q12       14875 	xor	[raofc+zor06]		;FD A8p34q12
   249F FD A8 1C 00       14932 	xor	[.+nc]			;FD A8 1C 00
   24A3 DD A9             14933 	xor	(hl+ix)			;DD A9
   24A5 DD AA             14934 	xor	(hl+iy)			;DD AA
   24A7 DD AB             14935 	xor	(ix+iy)			;DD AB
                          14936 
                          14937 	;***********************************************************
                          14938 	; Hitachi HD64180 Codes
                          14939 	;***********************************************************
                          14940 
                          14941 	.hd64
                          14942 
                          14943 	;***********************************************************
                          14944 	; start of the Z180 section
                          14945 	;***********************************************************
                          14946 	
                          14947 
                          14948 ;*******************************************************************
                          14949 ;	IN0	
                          14950 ;*******************************************************************
                          14951 	;***********************************************************
                          14952 	; load register with input from port (n)
   24A9 ED 38r20          14967 	in0	a,(nc+x)			;ED 38r20
   24AC ED 00r20          14968 	in0	b,(nc+x)			;ED 00r20
   24AF ED 08r20          14969 	in0	c,(nc+x)			;ED 08r20
   24B2 ED 10r20          14970 	in0	d,(nc+x)			;ED 10r20
   24B5 ED 18r20          14971 	in0	e,(nc+x)			;ED 18r20
   24B8 ED 20r20          14972 	in0	h,(nc+x)			;ED 20r20
   24BB ED 28r20          14973 	in0	l,(nc+x)			;ED 28r20
                          14988 
                          14989 ;*******************************************************************
                          14990 ;	mlt	
                          14991 ;*******************************************************************
                          14992 	;***********************************************************
                          14993 	; multiplication of each half
                          14994 	; of the specified register pair
                          14995 	; with the 16-bit result going to
                          14996 	; the specified register pair
   24BE ED 4C             14997 	mlt	bc			;ED 4C
   24C0 ED 5C             14998 	mlt	de			;ED 5C
   24C2 ED 6C             14999 	mlt	hl			;ED 6C
   24C4 ED 7C             15000 	mlt	sp			;ED 7C
                          15001 
                          15002 ;*******************************************************************
                          15003 ;	OTDM	
                          15004 ;*******************************************************************
                          15005 	;***********************************************************
                          15006 	; load output port (c) with
                          15007 	; location (hl),
                          15008 	; decrement hl and b
                          15009 	; decrement c
   24C6 ED 8B             15010 	otdm				;ED 8B
                          15011 
                          15012 ;*******************************************************************
                          15013 ;	OTDMR	
                          15014 ;*******************************************************************
                          15015 	;***********************************************************
                          15016 	; load output port (c) with
                          15017 	; location (hl),
                          15018 	; decrement hl and c
                          15019 	; decrement b
                          15020 	; repeat until b = 0
   24C8 ED 9B             15021 	otdmr				;ED 9B
                          15022 
                          15023 ;*******************************************************************
                          15024 ;	OTIM	
                          15025 ;*******************************************************************
                          15026 	;***********************************************************
                          15027 	; load output port (c) with
                          15028 	; location (hl),
                          15029 	; increment hl and b
                          15030 	; decrement c
   24CA ED 83             15031 	otim				;ED 83
                          15032 
                          15033 ;*******************************************************************
                          15034 ;	OTIMR	
                          15035 ;*******************************************************************
                          15036 	;***********************************************************
                          15037 	; load output port (c) with
                          15038 	; location (hl),
                          15039 	; increment hl and c
                          15040 	; decrement b
                          15041 	; repeat until b = 0
   24CC ED 93             15042 	otimr				;ED 93
                          15043 
                          15044 ;*******************************************************************
                          15045 ;	OUT0	
                          15046 ;*******************************************************************
                          15047 	;***********************************************************
                          15048 	; load output port (n) from register
   24CE ED 39r20          15063 	out0	(nc+x),a			;ED 39r20
   24D1 ED 01r20          15064 	out0	(nc+x),b			;ED 01r20
   24D4 ED 09r20          15065 	out0	(nc+x),c			;ED 09r20
   24D7 ED 11r20          15066 	out0	(nc+x),d			;ED 11r20
   24DA ED 19r20          15067 	out0	(nc+x),e			;ED 19r20
   24DD ED 21r20          15068 	out0	(nc+x),h			;ED 21r20
   24E0 ED 29r20          15069 	out0	(nc+x),l			;ED 29r20
                          15084 
                          15085 ;*******************************************************************
                          15086 ;	SLP	
                          15087 ;*******************************************************************
                          15088 	;***********************************************************
                          15089 	; enter sleep mode
   24E3 ED 76             15090 	slp				;ED 76
                          15091 
                          15092 ;*******************************************************************
                          15093 ;	TST	
                          15094 ;*******************************************************************
                          15095 	;***********************************************************
                          15096 	; non-destructive'and' with accumulator and specified operand
   24E5 ED 3C             15097 	tst	a,a			;ED 3C
   24E7 ED 04             15098 	tst	a,b			;ED 04
   24E9 ED 0C             15099 	tst	a,c			;ED 0C
   24EB ED 14             15100 	tst	a,d			;ED 14
   24ED ED 1C             15101 	tst	a,e			;ED 1C
   24EF ED 24             15102 	tst	a,h			;ED 24
   24F1 ED 2C             15103 	tst	a,l			;ED 2C
   24F3 ED 64r20          15113 	tst	a,#nc+x			;ED 64r20
   24F6 ED 64r20          15114 	tst	a, nc+x			;ED 64r20
   24F9 ED 34             15124 	tst	a,(hl)			;ED 34
                          15125 	;***********************************************************
   24FB ED 3C             15126 	tst	a			;ED 3C
   24FD ED 04             15127 	tst	b			;ED 04
   24FF ED 0C             15128 	tst	c			;ED 0C
   2501 ED 14             15129 	tst	d			;ED 14
   2503 ED 1C             15130 	tst	e			;ED 1C
   2505 ED 24             15131 	tst	h			;ED 24
   2507 ED 2C             15132 	tst	l			;ED 2C
   2509 ED 64r20          15142 	tst	#nc+x			;ED 64r20
   250C ED 64r20          15143 	tst	 nc+x			;ED 64r20
   250F ED 34             15153 	tst	(hl)			;ED 34
                          15154 
                          15155 ;*******************************************************************
                          15156 ;	TSTIO	
                          15157 ;*******************************************************************
                          15158 	;***********************************************************
                          15159 	; non-destructive 'and' of n and the contents of port (c)
   2511 ED 74r20          15171 	tstio	#nc+x,(c)			;ED 74r20
   2514 ED 74r20          15172 	tstio	(c),#nc+x			;ED 74r20
   2517 ED 74r20          15173 	tstio	#nc+x			;ED 74r20
   251A ED 74r20          15174 	tstio	 nc+x			;ED 74r20
                          15186 	;***********************************************************
                          15187 	; end of the Z180 section
                          15188 	;***********************************************************
                          15189 	
                          15190 ;*******************************************************************
                          15191 ;	UNDOCUMENTED	
                          15192 ;*******************************************************************
                          15193 	;***********************************************************
                          15194 	; start of the Z80 undocumented section
                          15195 	;***********************************************************
                          15196 	.z80u
   251D DD 8C             15197 	adc	a,ixh			;DD 8C
   251F DD 8D             15198 	adc	a,ixl			;DD 8D
   2521 FD 8C             15199 	adc	a,iyh			;FD 8C
   2523 FD 8D             15200 	adc	a,iyl			;FD 8D
   2525 DD 84             15201 	add	a,ixh			;DD 84
   2527 DD 85             15202 	add	a,ixl			;DD 85
   2529 FD 84             15203 	add	a,iyh			;FD 84
   252B FD 85             15204 	add	a,iyl			;FD 85
   252D DD A4             15205 	and	a,ixh			;DD A4
   252F DD A5             15206 	and	a,ixl			;DD A5
   2531 FD A4             15207 	and	a,iyh			;FD A4
   2533 FD A5             15208 	and	a,iyl			;FD A5
   2535 DD BC             15209 	cp	a,ixh			;DD BC
   2537 DD BD             15210 	cp	a,ixl			;DD BD
   2539 FD BC             15211 	cp	a,iyh			;FD BC
   253B FD BD             15212 	cp	a,iyl			;FD BD
   253D DD B4             15213 	or	a,ixh			;DD B4
   253F DD B5             15214 	or	a,ixl			;DD B5
   2541 FD B4             15215 	or	a,iyh			;FD B4
   2543 FD B5             15216 	or	a,iyl			;FD B5
   2545 DD 9C             15217 	sbc	a,ixh			;DD 9C
   2547 DD 9D             15218 	sbc	a,ixl			;DD 9D
   2549 FD 9C             15219 	sbc	a,iyh			;FD 9C
   254B FD 9D             15220 	sbc	a,iyl			;FD 9D
   254D DD 94             15221 	sub	a,ixh			;DD 94
   254F DD 95             15222 	sub	a,ixl			;DD 95
   2551 FD 94             15223 	sub	a,iyh			;FD 94
   2553 FD 95             15224 	sub	a,iyl			;FD 95
   2555 DD AC             15225 	xor	a,ixh			;DD AC
   2557 DD AD             15226 	xor	a,ixl			;DD AD
   2559 FD AC             15227 	xor	a,iyh			;FD AC
   255B FD AD             15228 	xor	a,iyl			;FD AD
                          15229 					;
   255D DD 25             15230 	dec	ixh			;DD 25
   255F DD 2D             15231 	dec	ixl			;DD 2D
   2561 FD 25             15232 	dec	iyh			;FD 25
   2563 FD 2D             15233 	dec	iyl			;FD 2D
   2565 DD 24             15234 	inc	ixh			;DD 24
   2567 DD 2C             15235 	inc	ixl			;DD 2C
   2569 FD 24             15236 	inc	iyh			;FD 24
   256B FD 2C             15237 	inc 	iyl			;FD 2C
                          15238 					;
   256D DD ED 60          15239 	in	ixh,(c)			;DD ED 60
   2570 DD ED 68          15240 	in	ixl,(c)			;DD ED 68
   2573 FD ED 60          15241 	in	iyh,(c)			;FD ED 60
   2576 FD ED 68          15242 	in	iyl,(c)			;FD ED 68
                          15243 					;
   2579 DD 67             15244 	ld	ixh,a			;DD 67
   257B DD 6F             15245 	ld	ixl,a			;DD 6F
   257D FD 67             15246 	ld	iyh,a			;FD 67
   257F FD 6F             15247 	ld	iyl,a			;FD 6F
   2581 DD 60             15248 	ld	ixh,b			;DD 60
   2583 DD 68             15249 	ld	ixl,b			;DD 68
   2585 FD 60             15250 	ld	iyh,b			;FD 60
   2587 FD 68             15251 	ld	iyl,b			;FD 68
   2589 DD 61             15252 	ld	ixh,c			;DD 61
   258B DD 69             15253 	ld	ixl,c			;DD 69
   258D FD 61             15254 	ld	iyh,c			;FD 61
   258F FD 69             15255 	ld	iyl,c			;FD 69
   2591 DD 62             15256 	ld	ixh,d			;DD 62
   2593 DD 6A             15257 	ld	ixl,d			;DD 6A
   2595 FD 62             15258 	ld	iyh,d			;FD 62
   2597 FD 6A             15259 	ld	iyl,d			;FD 6A
   2599 DD 63             15260 	ld	ixh,e			;DD 63
   259B DD 6B             15261 	ld	ixl,e			;DD 6B
   259D FD 63             15262 	ld	iyh,e			;FD 63
   259F FD 6B             15263 	ld	iyl,e			;FD 6B
                          15264 					;
   25A1 DD 7C             15265 	ld	a,ixh			;DD 7C
   25A3 DD 7D             15266 	ld	a,ixl			;DD 7D
   25A5 FD 7C             15267 	ld	a,iyh			;FD 7C
   25A7 FD 7D             15268 	ld	a,iyl			;FD 7D
   25A9 DD 44             15269 	ld	b,ixh			;DD 44
   25AB DD 45             15270 	ld	b,ixl			;DD 45
   25AD FD 44             15271 	ld	b,iyh			;FD 44
   25AF FD 45             15272 	ld	b,iyl			;FD 45
   25B1 DD 4C             15273 	ld	c,ixh			;DD 4C
   25B3 DD 4D             15274 	ld	c,ixl			;DD 4D
   25B5 FD 4C             15275 	ld	c,iyh			;FD 4C
   25B7 FD 4D             15276 	ld	c,iyl			;FD 4D
   25B9 DD 54             15277 	ld	d,ixh			;DD 54
   25BB DD 55             15278 	ld	d,ixl			;DD 55
   25BD FD 54             15279 	ld	d,iyh			;FD 54
   25BF FD 55             15280 	ld	d,iyl			;FD 55
   25C1 DD 5C             15281 	ld	e,ixh			;DD 5C
   25C3 DD 5D             15282 	ld	e,ixl			;DD 5D
   25C5 FD 5C             15283 	ld	e,iyh			;FD 5C
   25C7 FD 5D             15284 	ld	e,iyl			;FD 5D
                     0001 15285 .if 1
                          15286 					;
   25C9 DD 64             15287 	ld	ixh,ixh			;DD 64
   25CB DD 65             15288 	ld	ixh,ixl			;DD 65
   25CD DD 6C             15289 	ld	ixl,ixh			;DD 6C
   25CF DD 6D             15290 	ld	ixl,ixl			;DD 6D
   25D1 FD 64             15291 	ld	iyh,iyh			;FD 64
   25D3 FD 65             15292 	ld	iyh,iyl			;FD 65
   25D5 FD 6C             15293 	ld	iyl,iyh			;FD 6C
   25D7 FD 6D             15294 	ld	iyl,iyl			;FD 6D
                          15295 .endif
                          15296 					;
   25D9 DD 26r20          15308 	ld	ixh,#nc+x			;DD 26r20
   25DC DD 2Er20          15309 	ld	ixl,#nc+x			;DD 2Er20
   25DF FD 26r20          15310 	ld	iyh,#nc+x			;FD 26r20
   25E2 FD 2Er20          15311 	ld	iyl,#nc+x			;FD 2Er20
   25E5 DD 26r20          15334  	ld	ixh,#nc+x			;DD 26r20
   25E8 DD 2Er23          15335 	ld	ixl,#nc+x+3		;DD 2Er23
   25EB FD 26r1F          15336 	ld	iyh,#nc+x-1		;FD 26r1F
   25EE FD 2Er20          15337 	ld	iyl,#nc+x			;FD 2Er20
                          15349 	;***********************************************************
                          15350 	; without 'a'
   25F1 DD 8C             15351 	adc	ixh			;DD 8C
   25F3 DD 8D             15352 	adc	ixl			;DD 8D
   25F5 FD 8C             15353 	adc	iyh			;FD 8C
   25F7 FD 8D             15354 	adc	iyl			;FD 8D
   25F9 DD 84             15355 	add	ixh			;DD 84
   25FB DD 85             15356 	add	ixl			;DD 85
   25FD FD 84             15357 	add	iyh			;FD 84
   25FF FD 85             15358 	add	iyl			;FD 85
   2601 DD A4             15359 	and	ixh			;DD A4
   2603 DD A5             15360 	and	ixl			;DD A5
   2605 FD A4             15361 	and	iyh			;FD A4
   2607 FD A5             15362 	and	iyl			;FD A5
   2609 DD BC             15363 	cp	ixh			;DD BC
   260B DD BD             15364 	cp	ixl			;DD BD
   260D FD BC             15365 	cp	iyh			;FD BC
   260F FD BD             15366 	cp	iyl			;FD BD
   2611 DD B4             15367 	or	ixh			;DD B4
   2613 DD B5             15368 	or	ixl			;DD B5
   2615 FD B4             15369 	or	iyh			;FD B4
   2617 FD B5             15370 	or	iyl			;FD B5
   2619 DD 9C             15371 	sbc	ixh			;DD 9C
   261B DD 9D             15372 	sbc	ixl			;DD 9D
   261D FD 9C             15373 	sbc	iyh			;FD 9C
   261F FD 9D             15374 	sbc	iyl			;FD 9D
   2621 DD 94             15375 	sub	ixh			;DD 94
   2623 DD 95             15376 	sub	ixl			;DD 95
   2625 FD 94             15377 	sub	iyh			;FD 94
   2627 FD 95             15378 	sub	iyl			;FD 95
   2629 DD AC             15379 	xor	ixh			;DD AC
   262B DD AD             15380 	xor	ixl			;DD AD
   262D FD AC             15381 	xor	iyh			;FD AC
   262F FD AD             15382 	xor	iyl			;FD AD
                          15383 	;***********************************************************
                          15384 	; c.f. 'tset' on Z280 (see above)
                          15385 	; shift left (like SLA), but shift a '1' into bit 0 !!!
   2631 CB 36             15386 	sll	(hl)			;CB 36
   2633 DD CBr55 36       15398 	sll	offsetc+x(ix)		;DD CBr55 36
   2637 FD CBr55 36       15399 	sll	offsetc+x(iy)		;FD CBr55 36
   263B DD CBr55 36       15400 	sll	(ix+offsetc+x)		;DD CBr55 36
   263F FD CBr55 36       15401 	sll	(iy+offsetc+x)		;FD CBr55 36
   2643 CB 37             15413 	sll	a			;CB 37
   2645 CB 30             15414 	sll	b			;CB 30
   2647 CB 31             15415 	sll	c			;CB 31
   2649 CB 32             15416 	sll	d			;CB 32
   264B CB 33             15417 	sll	e			;CB 33
   264D CB 34             15418 	sll	h			;CB 34
   264F CB 35             15419 	sll	l			;CB 35
                          15420 	;  sll a  ==  tset a	may be used to distinguish Z80 from Z280 with Areg = 0x41
                          15421 	;***********************************************************
                          15422 	; end of the Z80 undocumented section
                          15423 	;***********************************************************
                          15424 
                          15425 	.globl	z
   2651 3E 12             15426 	ld	a,# >0x1234
   2653 3E 34             15427 	ld	a,# <0x1234
   2655 3Es12             15428 	ld	a,# >(z+0x1234)
   2657 3Er34             15429 	ld	a,# <(z+0x1234)
                          15430 	
                          15431 
                          15432 	.end
                          15433 
ASxxxx Assembler V05.50  (2/14/17 Zilog Z80 / Z180 / HD64180 / Z280)    Page 1
Hexadecimal [16-Bits]                                 Sun Aug 27 19:25:33 2023
Test of Z280 assembler
Symbol Table

    .__.$$$.       =   2710 L   |     .__.ABS.       =   0000 G
    .__.CPU.       =   0087 L   |     .__.H$L.       =   0000 L
    CXLR           =   0006     |     CXL_           =   0000 
    CX_R           =   0001     |     C_LR           =   0008 
    C_L_           =   0004     |     C__R           =   0003 
    ODDBALL_SHIFT_ =   0000     |     _XLR           =   0000 
    _XL_           =   0000     |     _X_R           =   FFFF 
    adc01              **** GX  |     adc02              **** GX
    adc03              **** GX  |     adc04              **** GX
    adc05              **** GX  |     adc06              **** GX
    adc07              **** GX  |     adc08              **** GX
    adc09              **** GX  |     adc11              **** GX
    adc12              **** GX  |     adc13              **** GX
    adc14              **** GX  |     adc15              **** GX
    adc16              **** GX  |     add01              **** GX
    add02              **** GX  |     add03              **** GX
    add04              **** GX  |     add05              **** GX
    add06              **** GX  |     addw01             **** GX
    addw02             **** GX  |     addw03             **** GX
    and01              **** GX  |     and02              **** GX
    and03              **** GX  |     and04              **** GX
    and05              **** GX  |     and06              **** GX
    call01             **** GX  |     call02             **** GX
    call03             **** GX  |     call04             **** GX
    call05             **** GX  |     call06             **** GX
    cp01               **** GX  |     cp02               **** GX
    cp03               **** GX  |     cp04               **** GX
    cp05               **** GX  |     cp06               **** GX
    cp07               **** GX  |     cp08               **** GX
    cp09               **** GX  |     cpw01              **** GX
    cpw02              **** GX  |     cpw03              **** GX
    cpw04              **** GX  |     cpw05              **** GX
    cpw06              **** GX  |     daddc          =   3344 G
    daddr          =   3344     |     daddx              **** GX
    dec01              **** GX  |     dec02              **** GX
    dec03              **** GX  |     decb01             **** GX
    decb02             **** GX  |     decb03             **** GX
    decw01             **** GX  |     decw02             **** GX
    decw03             **** GX  |     div01              **** GX
    div02              **** GX  |     div03              **** GX
    divu01             **** GX  |     divu02             **** GX
    divu03             **** GX  |     divuw01            **** GX
    divuw02            **** GX  |     divuw03            **** GX
    divw01             **** GX  |     divw02             **** GX
    divw03             **** GX  |     ex01               **** GX
    ex02               **** GX  |     ex03               **** GX
    in01               **** GX  |     in02               **** GX
    in03               **** GX  |     inc01              **** GX
    inc02              **** GX  |     inc03              **** GX
    incw01             **** GX  |     incw02             **** GX
    incw03             **** GX  |   0 jmp1               0DBD R
    jp01               **** GX  |     jp02               **** GX
    jp03               **** GX  |     jr_1               **** GX
    jr_2               **** GX  |     jr_3               **** GX
    jr_4               **** GX  |     ld01               **** GX
    ld02               **** GX  |     ld03               **** GX
    ld04               **** GX  |     ld05               **** GX
    ld06               **** GX  |     ld07               **** GX
    ld08               **** GX  |     ld09               **** GX
    lda01              **** GX  |     lda02              **** GX
    lda03              **** GX  |     lda04              **** GX
    lda05              **** GX  |     lda06              **** GX
    lda07              **** GX  |     lda08              **** GX
    lda09              **** GX  |     ldb01              **** GX
    ldb02              **** GX  |     ldb03              **** GX
    ldw01              **** GX  |     ldw02              **** GX
    ldw03              **** GX  |     ldw04              **** GX
    ldw05              **** GX  |     ldw06              **** GX
    ldw07              **** GX  |     ldw08              **** GX
    ldw09              **** GX  |     ldw11              **** GX
    ldw12              **** GX  |     ldw13              **** GX
    ldw14              **** GX  |     ldw15              **** GX
    ldw16              **** GX  |     ldw17              **** GX
    ldw18              **** GX  |     ldw19              **** GX
    ldw21              **** GX  |     ldw22              **** GX
    ldw23              **** GX  |   0 ljr1               0E29 R
  0 ljr2               0E31 R   |     lxofc          =   1122 G
    lxoff          =   1122     |     lxofx              **** GX
    mult01             **** GX  |     mult02             **** GX
    mult03             **** GX  |     mult04             **** GX
    mult05             **** GX  |     mult06             **** GX
    multu01            **** GX  |     multu02            **** GX
    multu03            **** GX  |     multu04            **** GX
    multu05            **** GX  |     multu06            **** GX
    multuw01           **** GX  |     multuw02           **** GX
    multuw03           **** GX  |     multw01            **** GX
    multw02            **** GX  |     multw03            **** GX
    n              =   0020     |     nc             =   0020 G
    nn             =   0584     |     nnc            =   0584 G
    nnx                **** GX  |     nx                 **** GX
    offset         =   0055     |     offsetc        =   0055 G
    offsetx            **** GX  |     or01               **** GX
    or02               **** GX  |     or03               **** GX
    or04               **** GX  |     or05               **** GX
    or06               **** GX  |     out01              **** GX
    out02              **** GX  |     out03              **** GX
    pop01              **** GX  |     pop02              **** GX
    pop03              **** GX  |     push01             **** GX
    push02             **** GX  |     push03             **** GX
    raofc          =   1234 G   |     raoff          =   1234 
    raofx              **** GX  |     sbc01              **** GX
    sbc02              **** GX  |     sbc03              **** GX
    sbc04              **** GX  |     sbc05              **** GX
    sbc06              **** GX  |     sub01              **** GX
    sub02              **** GX  |     sub03              **** GX
    sub04              **** GX  |     sub05              **** GX
    sub06              **** GX  |     sub07              **** GX
    sub08              **** GX  |     sub09              **** GX
    subw01             **** GX  |     subw02             **** GX
    subw03             **** GX  |     sxofc          =   0055 G
    sxoff          =   0055     |     sxofx              **** GX
    x                  **** GX  |   0 xadc01         =   0061 GR
  0 xadc02         =   0065 GR  |   0 xadc03         =   0069 GR
  0 xadc04         =   006D GR  |   0 xadc05         =   0071 GR
  0 xadc06         =   0075 GR  |   0 xadc07         =   0079 GR
  0 xadc08         =   007D GR  |   0 xadc09         =   0081 GR
  0 xadc11         =   016E GR  |   0 xadc12         =   0172 GR
  0 xadc13         =   0176 GR  |   0 xadc14         =   01E3 GR
  0 xadc15         =   01E7 GR  |   0 xadc16         =   01EB GR
  0 xadd01         =   02BC GR  |   0 xadd02         =   02C0 GR
  0 xadd03         =   02C4 GR  |   0 xadd04         =   0339 GR
  0 xadd05         =   033D GR  |   0 xadd06         =   0341 GR
  0 xaddw01        =   0396 GR  |   0 xaddw02        =   039B GR
  0 xaddw03        =   03A0 GR  |   0 xand01         =   0477 GR
  0 xand02         =   047B GR  |   0 xand03         =   047F GR
  0 xand04         =   04AD GR  |   0 xand05         =   04B1 GR
  0 xand06         =   04B5 GR  |   0 xcall01        =   05FE GR
  0 xcall02        =   0602 GR  |   0 xcall03        =   0606 GR
  0 xcall04        =   060E GR  |   0 xcall05        =   0612 GR
  0 xcall06        =   0616 GR  |   0 xcp01          =   06A8 GR
  0 xcp02          =   06AC GR  |   0 xcp03          =   06B0 GR
  0 xcp04          =   070F GR  |   0 xcp05          =   0713 GR
  0 xcp06          =   0717 GR  |   0 xcp07          =   0835 GR
  0 xcp08          =   083A GR  |   0 xcp09          =   083F GR
  0 xcpw01         =   0773 GR  |   0 xcpw02         =   0778 GR
  0 xcpw03         =   077D GR  |   0 xcpw04         =   07D4 GR
  0 xcpw05         =   07D9 GR  |   0 xcpw06         =   07DE GR
  0 xdec01         =   08C5 GR  |   0 xdec02         =   08C9 GR
  0 xdec03         =   08CD GR  |   0 xdecb01        =   0937 GR
  0 xdecb02        =   093B GR  |   0 xdecb03        =   093F GR
  0 xdecw01        =   0983 GR  |   0 xdecw02        =   0987 GR
  0 xdecw03        =   098B GR  |   0 xdiv01         =   0A1A GR
  0 xdiv02         =   0A1F GR  |   0 xdiv03         =   0A24 GR
  0 xdivu01        =   0AB4 GR  |   0 xdivu02        =   0AB9 GR
  0 xdivu03        =   0ABE GR  |   0 xdivuw01       =   0B30 GR
  0 xdivuw02       =   0B35 GR  |   0 xdivuw03       =   0B3A GR
  0 xdivw01        =   0BA3 GR  |   0 xdivw02        =   0BA8 GR
  0 xdivw03        =   0BAD GR  |   0 xex01          =   0C49 GR
  0 xex02          =   0C4E GR  |   0 xex03          =   0C53 GR
  0 xin01          =   0CE9 GR  |   0 xin02          =   0CEE GR
  0 xin03          =   0CF3 GR  |   0 xinc01         =   0D75 GR
  0 xinc02         =   0D79 GR  |   0 xinc03         =   0D7D GR
  0 xincw01        =   0DA9 GR  |   0 xincw02        =   0DAD GR
  0 xincw03        =   0DB1 GR  |   0 xjp01          =   0E1B GR
  0 xjp02          =   0E1F GR  |   0 xjp03          =   0E23 GR
  0 xjr_1              0E33 GR  |   0 xjr_2              0E35 GR
  0 xjr_3              0E37 GR  |   0 xjr_4              0E39 GR
  0 xld01          =   1053 GR  |   0 xld02          =   1057 GR
  0 xld03          =   105B GR  |   0 xld04          =   10BF GR
  0 xld05          =   10C3 GR  |   0 xld06          =   10C7 GR
  0 xld07          =   1140 GR  |   0 xld08          =   1145 GR
  0 xld09          =   114A GR  |   0 xlda01         =   1337 GR
  0 xlda02         =   133C GR  |   0 xlda03         =   1341 GR
  0 xlda04         =   1350 GR  |   0 xlda05         =   1355 GR
  0 xlda06         =   135A GR  |   0 xlda07         =   1368 GR
  0 xlda08         =   136C GR  |   0 xlda09         =   1370 GR
  0 xldb01         =   11E8 GR  |   0 xldb02         =   11ED GR
  0 xldb03         =   11F2 GR  |   0 xldw01         =   1442 GR
  0 xldw02         =   1448 GR  |   0 xldw03         =   144E GR
  0 xldw04         =   156E GR  |   0 xldw05         =   1572 GR
  0 xldw06         =   1576 GR  |   0 xldw07         =   157F GR
  0 xldw08         =   1584 GR  |   0 xldw09         =   1589 GR
  0 xldw11         =   1593 GR  |   0 xldw12         =   1598 GR
  0 xldw13         =   159D GR  |   0 xldw14         =   16B7 GR
  0 xldw15         =   16BB GR  |   0 xldw16         =   16BF GR
  0 xldw17         =   16C8 GR  |   0 xldw18         =   16CD GR
  0 xldw19         =   16D2 GR  |   0 xldw21         =   16DC GR
  0 xldw22         =   16E1 GR  |   0 xldw23         =   16E6 GR
  0 xmult01        =   18D7 GR  |   0 xmult02        =   18DC GR
  0 xmult03        =   18E1 GR  |   0 xmult04        =   1971 GR
  0 xmult05        =   1976 GR  |   0 xmult06        =   197B GR
  0 xmultu01       =   1A10 GR  |   0 xmultu02       =   1A15 GR
  0 xmultu03       =   1A1A GR  |   0 xmultu04       =   1AAF GR
  0 xmultu05       =   1AB4 GR  |   0 xmultu06       =   1AB9 GR
  0 xmultuw01      =   1B19 GR  |   0 xmultuw02      =   1B1E GR
  0 xmultuw03      =   1B23 GR  |   0 xmultw01       =   1B7F GR
  0 xmultw02       =   1B84 GR  |   0 xmultw03       =   1B89 GR
  0 xor01          =   1BFB GR  |   0 xor02          =   1BFF GR
  0 xor03          =   1C03 GR  |   0 xor04          =   1C75 GR
  0 xor05          =   1C79 GR  |   0 xor06          =   1C7D GR
  0 xout01         =   1D01 GR  |   0 xout02         =   1D06 GR
  0 xout03         =   1D0B GR  |   0 xpop01         =   1D3F GR
  0 xpop02         =   1D43 GR  |   0 xpop03         =   1D47 GR
  0 xpush01        =   1D61 GR  |   0 xpush02        =   1D65 GR
  0 xpush03        =   1D69 GR  |   0 xsbc01         =   1FA3 GR
  0 xsbc02         =   1FA7 GR  |   0 xsbc03         =   1FAB GR
  0 xsbc04         =   2012 GR  |   0 xsbc05         =   2016 GR
  0 xsbc06         =   201A GR  |   0 xsub01         =   2236 GR
  0 xsub02         =   223A GR  |   0 xsub03         =   223E GR
  0 xsub04         =   22A5 GR  |   0 xsub05         =   22A9 GR
  0 xsub06         =   22AD GR  |   0 xsub07         =   22FB GR
  0 xsub08         =   2300 GR  |   0 xsub09         =   2305 GR
  0 xsubw01        =   236A GR  |   0 xsubw02        =   236F GR
  0 xsubw03        =   2374 GR  |   0 xzor01         =   2428 GR
  0 xzor02         =   242C GR  |   0 xzor03         =   2430 GR
  0 xzor04         =   2497 GR  |   0 xzor05         =   249B GR
  0 xzor06         =   249F GR  |     z                  **** GX
    zor01              **** GX  |     zor02              **** GX
    zor03              **** GX  |     zor04              **** GX
    zor05              **** GX  |     zor06              **** GX

ASxxxx Assembler V05.50  (2/14/17 Zilog Z80 / Z180 / HD64180 / Z280)    Page 2
Hexadecimal [16-Bits]                                 Sun Aug 27 19:25:33 2023
Test of Z280 assembler
Area Table

[_CSEG]
   0 _CODE            size 2659   flags C180
[_DSEG]
   1 _DATA            size    0   flags C0C0

